Archive member included because of file (symbol)

/home/einar/px4_firmware/src/Firmware/build_px4fmu-v2_default/px4io-v2/NuttX/nuttx-export/libs/libnuttx.a(sched-irq_attach.o)
                              CMakeFiles/px4io-v2.dir/__/__/drivers/stm32/drv_hrt.c.obj (irq_attach)
/home/einar/px4_firmware/src/Firmware/build_px4fmu-v2_default/px4io-v2/NuttX/nuttx-export/libs/libnuttx.a(sched-irq_initialize.o)
                              /home/einar/px4_firmware/src/Firmware/build_px4fmu-v2_default/px4io-v2/NuttX/nuttx-export/libs/libnuttx.a(sched-irq_attach.o) (g_irqvector)
/home/einar/px4_firmware/src/Firmware/build_px4fmu-v2_default/px4io-v2/NuttX/nuttx-export/libs/libnuttx.a(sched-irq_unexpectedisr.o)
                              /home/einar/px4_firmware/src/Firmware/build_px4fmu-v2_default/px4io-v2/NuttX/nuttx-export/libs/libnuttx.a(sched-irq_attach.o) (irq_unexpected_isr)
/home/einar/px4_firmware/src/Firmware/build_px4fmu-v2_default/px4io-v2/NuttX/nuttx-export/libs/libnuttx.a(c-lib_abort.o)
                              (abort)
/home/einar/px4_firmware/src/Firmware/build_px4fmu-v2_default/px4io-v2/NuttX/nuttx-export/libs/libnuttx.a(c-lib_cfsetspeed.o)
                              CMakeFiles/px4io-v2.dir/dsm.c.obj (cfsetspeed)
/home/einar/px4_firmware/src/Firmware/build_px4fmu-v2_default/px4io-v2/NuttX/nuttx-export/libs/libnuttx.a(c-lib_crc32.o)
                              CMakeFiles/px4io-v2.dir/px4io.c.obj (crc32part)
/home/einar/px4_firmware/src/Firmware/build_px4fmu-v2_default/px4io-v2/NuttX/nuttx-export/libs/libnuttx.a(c-lib_dprintf.o)
                              CMakeFiles/px4io-v2.dir/__/systemlib/perf_counter.c.obj (dprintf)
/home/einar/px4_firmware/src/Firmware/build_px4fmu-v2_default/px4io-v2/NuttX/nuttx-export/libs/libnuttx.a(c-lib_lowsyslog.o)
                              CMakeFiles/px4io-v2.dir/px4io.c.obj (lowsyslog)
/home/einar/px4_firmware/src/Firmware/build_px4fmu-v2_default/px4io-v2/NuttX/nuttx-export/libs/libnuttx.a(c-lib_memchr.o)
                              CMakeFiles/px4io-v2.dir/__/systemlib/mixer/mixer.cpp.obj (memchr)
/home/einar/px4_firmware/src/Firmware/build_px4fmu-v2_default/px4io-v2/NuttX/nuttx-export/libs/libnuttx.a(c-lib_memcpy.o)
                              CMakeFiles/px4io-v2.dir/mixer.cpp.obj (memcpy)
/home/einar/px4_firmware/src/Firmware/build_px4fmu-v2_default/px4io-v2/NuttX/nuttx-export/libs/libnuttx.a(c-lib_memset.o)
                              CMakeFiles/px4io-v2.dir/registers.c.obj (memset)
/home/einar/px4_firmware/src/Firmware/build_px4fmu-v2_default/px4io-v2/NuttX/nuttx-export/libs/libnuttx.a(c-lib_printf.o)
                              CMakeFiles/px4io-v2.dir/__/systemlib/perf_counter.c.obj (printf)
/home/einar/px4_firmware/src/Firmware/build_px4fmu-v2_default/px4io-v2/NuttX/nuttx-export/libs/libnuttx.a(c-lib_sscanf.o)
                              CMakeFiles/px4io-v2.dir/__/systemlib/mixer/mixer_multirotor.cpp.obj (sscanf)
/home/einar/px4_firmware/src/Firmware/build_px4fmu-v2_default/px4io-v2/NuttX/nuttx-export/libs/libnuttx.a(c-lib_strchr.o)
                              /home/einar/px4_firmware/src/Firmware/build_px4fmu-v2_default/px4io-v2/NuttX/nuttx-export/libs/libnuttx.a(c-lib_sscanf.o) (strchr)
/home/einar/px4_firmware/src/Firmware/build_px4fmu-v2_default/px4io-v2/NuttX/nuttx-export/libs/libnuttx.a(c-lib_strcmp.o)
                              CMakeFiles/px4io-v2.dir/__/systemlib/perf_counter.c.obj (strcmp)
/home/einar/px4_firmware/src/Firmware/build_px4fmu-v2_default/px4io-v2/NuttX/nuttx-export/libs/libnuttx.a(c-lib_strcspn.o)
                              /home/einar/px4_firmware/src/Firmware/build_px4fmu-v2_default/px4io-v2/NuttX/nuttx-export/libs/libnuttx.a(c-lib_sscanf.o) (strcspn)
/home/einar/px4_firmware/src/Firmware/build_px4fmu-v2_default/px4io-v2/NuttX/nuttx-export/libs/libnuttx.a(c-lib_strncpy.o)
                              /home/einar/px4_firmware/src/Firmware/build_px4fmu-v2_default/px4io-v2/NuttX/nuttx-export/libs/libnuttx.a(c-lib_sscanf.o) (strncpy)
/home/einar/px4_firmware/src/Firmware/build_px4fmu-v2_default/px4io-v2/NuttX/nuttx-export/libs/libnuttx.a(c-lib_strtol.o)
                              /home/einar/px4_firmware/src/Firmware/build_px4fmu-v2_default/px4io-v2/NuttX/nuttx-export/libs/libnuttx.a(c-lib_sscanf.o) (strtol)
/home/einar/px4_firmware/src/Firmware/build_px4fmu-v2_default/px4io-v2/NuttX/nuttx-export/libs/libnuttx.a(c-lib_strtoul.o)
                              /home/einar/px4_firmware/src/Firmware/build_px4fmu-v2_default/px4io-v2/NuttX/nuttx-export/libs/libnuttx.a(c-lib_strtol.o) (strtoul)
/home/einar/px4_firmware/src/Firmware/build_px4fmu-v2_default/px4io-v2/NuttX/nuttx-export/libs/libnuttx.a(c-lib_syslog.o)
                              /home/einar/px4_firmware/src/Firmware/build_px4fmu-v2_default/px4io-v2/NuttX/nuttx-export/libs/libnuttx.a(c-lib_printf.o) (vsyslog)
/home/einar/px4_firmware/src/Firmware/build_px4fmu-v2_default/px4io-v2/NuttX/nuttx-export/libs/libnuttx.a(c-lib_tcgetattr.o)
                              CMakeFiles/px4io-v2.dir/dsm.c.obj (tcgetattr)
/home/einar/px4_firmware/src/Firmware/build_px4fmu-v2_default/px4io-v2/NuttX/nuttx-export/libs/libnuttx.a(c-lib_tcsetattr.o)
                              CMakeFiles/px4io-v2.dir/dsm.c.obj (tcsetattr)
/home/einar/px4_firmware/src/Firmware/build_px4fmu-v2_default/px4io-v2/NuttX/nuttx-export/libs/libnuttx.a(c-lib_vdprintf.o)
                              /home/einar/px4_firmware/src/Firmware/build_px4fmu-v2_default/px4io-v2/NuttX/nuttx-export/libs/libnuttx.a(c-lib_dprintf.o) (vdprintf)
/home/einar/px4_firmware/src/Firmware/build_px4fmu-v2_default/px4io-v2/NuttX/nuttx-export/libs/libnuttx.a(c-lib_vsnprintf.o)
                              CMakeFiles/px4io-v2.dir/px4io.c.obj (vsnprintf)
/home/einar/px4_firmware/src/Firmware/build_px4fmu-v2_default/px4io-v2/NuttX/nuttx-export/libs/libnuttx.a(c-sq_addafter.o)
                              CMakeFiles/px4io-v2.dir/__/__/drivers/stm32/drv_hrt.c.obj (sq_addafter)
/home/einar/px4_firmware/src/Firmware/build_px4fmu-v2_default/px4io-v2/NuttX/nuttx-export/libs/libnuttx.a(c-sq_addfirst.o)
                              CMakeFiles/px4io-v2.dir/__/systemlib/perf_counter.c.obj (sq_addfirst)
/home/einar/px4_firmware/src/Firmware/build_px4fmu-v2_default/px4io-v2/NuttX/nuttx-export/libs/libnuttx.a(c-sq_addlast.o)
                              /home/einar/px4_firmware/src/Firmware/build_px4fmu-v2_default/px4io-v2/NuttX/nuttx-export/libs/libnuttx.a(c-sq_addafter.o) (sq_addlast)
/home/einar/px4_firmware/src/Firmware/build_px4fmu-v2_default/px4io-v2/NuttX/nuttx-export/libs/libnuttx.a(c-sq_rem.o)
                              CMakeFiles/px4io-v2.dir/__/systemlib/perf_counter.c.obj (sq_rem)
/home/einar/px4_firmware/src/Firmware/build_px4fmu-v2_default/px4io-v2/NuttX/nuttx-export/libs/libnuttx.a(mm-mm_calloc.o)
                              CMakeFiles/px4io-v2.dir/__/systemlib/perf_counter.c.obj (calloc)
/home/einar/px4_firmware/src/Firmware/build_px4fmu-v2_default/px4io-v2/NuttX/nuttx-export/libs/libnuttx.a(mm-mm_free.o)
                              CMakeFiles/px4io-v2.dir/__/systemlib/perf_counter.c.obj (free)
/home/einar/px4_firmware/src/Firmware/build_px4fmu-v2_default/px4io-v2/NuttX/nuttx-export/libs/libnuttx.a(mm-mm_mallinfo.o)
                              CMakeFiles/px4io-v2.dir/px4io.c.obj (mallinfo)
/home/einar/px4_firmware/src/Firmware/build_px4fmu-v2_default/px4io-v2/NuttX/nuttx-export/libs/libnuttx.a(mm-mm_malloc.o)
                              CMakeFiles/px4io-v2.dir/__/systemlib/mixer/mixer_simple.cpp.obj (malloc)
/home/einar/px4_firmware/src/Firmware/build_px4fmu-v2_default/px4io-v2/NuttX/nuttx-export/libs/libnuttx.a(mm-mm_sem.o)
                              /home/einar/px4_firmware/src/Firmware/build_px4fmu-v2_default/px4io-v2/NuttX/nuttx-export/libs/libnuttx.a(mm-mm_free.o) (mm_takesemaphore)
/home/einar/px4_firmware/src/Firmware/build_px4fmu-v2_default/px4io-v2/NuttX/nuttx-export/libs/libnuttx.a(mm-mm_size2ndx.o)
                              /home/einar/px4_firmware/src/Firmware/build_px4fmu-v2_default/px4io-v2/NuttX/nuttx-export/libs/libnuttx.a(mm-mm_malloc.o) (mm_size2ndx)
/home/einar/px4_firmware/src/Firmware/build_px4fmu-v2_default/px4io-v2/NuttX/nuttx-export/libs/libnuttx.a(mm-mm_user.o)
                              /home/einar/px4_firmware/src/Firmware/build_px4fmu-v2_default/px4io-v2/NuttX/nuttx-export/libs/libnuttx.a(mm-mm_free.o) (g_mmheap)
/home/einar/px4_firmware/src/Firmware/build_px4fmu-v2_default/px4io-v2/NuttX/nuttx-export/libs/libnuttx.a(mm-mm_zalloc.o)
                              /home/einar/px4_firmware/src/Firmware/build_px4fmu-v2_default/px4io-v2/NuttX/nuttx-export/libs/libnuttx.a(mm-mm_calloc.o) (zalloc)
/home/einar/px4_firmware/src/Firmware/build_px4fmu-v2_default/px4io-v2/NuttX/nuttx-export/libs/libnuttx.a(arch-stm32_dma.o)
                              CMakeFiles/px4io-v2.dir/serial.c.obj (stm32_dmachannel)
/home/einar/px4_firmware/src/Firmware/build_px4fmu-v2_default/px4io-v2/NuttX/nuttx-export/libs/libnuttx.a(arch-stm32_gpio.o)
                              CMakeFiles/px4io-v2.dir/dsm.c.obj (stm32_configgpio)
/home/einar/px4_firmware/src/Firmware/build_px4fmu-v2_default/px4io-v2/NuttX/nuttx-export/libs/libnuttx.a(arch-stm32_irq.o)
                              /home/einar/px4_firmware/src/Firmware/build_px4fmu-v2_default/px4io-v2/NuttX/nuttx-export/libs/libnuttx.a(sched-irq_attach.o) (up_disable_irq)
/home/einar/px4_firmware/src/Firmware/build_px4fmu-v2_default/px4io-v2/NuttX/nuttx-export/libs/libnuttx.a(arch-stm32_serial.o)
                              CMakeFiles/px4io-v2.dir/px4io.c.obj (stm32_serial_dma_poll)
/home/einar/px4_firmware/src/Firmware/build_px4fmu-v2_default/px4io-v2/NuttX/nuttx-export/libs/libnuttx.a(arch-stm32_start.o)
                              (__start)
/home/einar/px4_firmware/src/Firmware/build_px4fmu-v2_default/px4io-v2/NuttX/nuttx-export/libs/libnuttx.a(arch-up_assert.o)
                              /home/einar/px4_firmware/src/Firmware/build_px4fmu-v2_default/px4io-v2/NuttX/nuttx-export/libs/libnuttx.a(sched-irq_unexpectedisr.o) (up_assert)
/home/einar/px4_firmware/src/Firmware/build_px4fmu-v2_default/px4io-v2/NuttX/nuttx-export/libs/libnuttx.a(arch-up_exception.o)
                              /home/einar/px4_firmware/src/Firmware/build_px4fmu-v2_default/px4io-v2/NuttX/nuttx-export/libs/libnuttx.a(arch-up_assert.o) (g_intstackbase)
/home/einar/px4_firmware/src/Firmware/build_px4fmu-v2_default/px4io-v2/NuttX/nuttx-export/libs/libnuttx.a(arch-up_hardfault.o)
                              /home/einar/px4_firmware/src/Firmware/build_px4fmu-v2_default/px4io-v2/NuttX/nuttx-export/libs/libnuttx.a(arch-stm32_irq.o) (up_hardfault)
/home/einar/px4_firmware/src/Firmware/build_px4fmu-v2_default/px4io-v2/NuttX/nuttx-export/libs/libnuttx.a(arch-up_modifyreg32.o)
                              CMakeFiles/px4io-v2.dir/__/__/drivers/stm32/drv_hrt.c.obj (modifyreg32)
/home/einar/px4_firmware/src/Firmware/build_px4fmu-v2_default/px4io-v2/NuttX/nuttx-export/libs/libnuttx.a(arch-up_svcall.o)
                              /home/einar/px4_firmware/src/Firmware/build_px4fmu-v2_default/px4io-v2/NuttX/nuttx-export/libs/libnuttx.a(arch-stm32_irq.o) (up_svcall)
/home/einar/px4_firmware/src/Firmware/build_px4fmu-v2_default/px4io-v2/NuttX/nuttx-export/libs/libnuttx.a(arch-up_systemreset.o)
                              CMakeFiles/px4io-v2.dir/px4io.c.obj (up_systemreset)
/home/einar/px4_firmware/src/Firmware/build_px4fmu-v2_default/px4io-v2/NuttX/nuttx-export/libs/libnuttx.a(arch-up_udelay.o)
                              CMakeFiles/px4io-v2.dir/adc.c.obj (up_udelay)
/home/einar/px4_firmware/src/Firmware/build_px4fmu-v2_default/px4io-v2/NuttX/nuttx-export/libs/libnuttx.a(arch-up_vectors.o)
                              (_vectors)
/home/einar/px4_firmware/src/Firmware/build_px4fmu-v2_default/px4io-v2/NuttX/nuttx-export/libs/libnuttx.a(cxx-libxx_cxa_atexit.o)
                              CMakeFiles/px4io-v2.dir/mixer.cpp.obj (__dso_handle)
/home/einar/px4_firmware/src/Firmware/build_px4fmu-v2_default/px4io-v2/NuttX/nuttx-export/libs/libnuttx.a(cxx-libxx_cxapurevirtual.o)
                              CMakeFiles/px4io-v2.dir/__/systemlib/mixer/mixer.cpp.obj (__cxa_pure_virtual)
/home/einar/px4_firmware/src/Firmware/build_px4fmu-v2_default/px4io-v2/NuttX/nuttx-export/libs/libnuttx.a(cxx-libxx_delete.o)
                              CMakeFiles/px4io-v2.dir/__/systemlib/mixer/mixer.cpp.obj (operator delete(void*))
/home/einar/px4_firmware/src/Firmware/build_px4fmu-v2_default/px4io-v2/NuttX/nuttx-export/libs/libnuttx.a(cxx-libxx_eabi_atexit.o)
                              CMakeFiles/px4io-v2.dir/mixer.cpp.obj (__aeabi_atexit)
/home/einar/px4_firmware/src/Firmware/build_px4fmu-v2_default/px4io-v2/NuttX/nuttx-export/libs/libnuttx.a(cxx-libxx_new.o)
                              CMakeFiles/px4io-v2.dir/__/systemlib/mixer/mixer.cpp.obj (operator new(unsigned int))
/home/einar/px4_firmware/src/Firmware/build_px4fmu-v2_default/px4io-v2/NuttX/nuttx-export/libs/libnuttx.a(fs-fs_ioctl.o)
                              /home/einar/px4_firmware/src/Firmware/build_px4fmu-v2_default/px4io-v2/NuttX/nuttx-export/libs/libnuttx.a(c-lib_tcgetattr.o) (ioctl)
/home/einar/px4_firmware/src/Firmware/build_px4fmu-v2_default/px4io-v2/NuttX/nuttx-export/libs/libnuttx.a(fs-fs_open.o)
                              CMakeFiles/px4io-v2.dir/dsm.c.obj (open)
/home/einar/px4_firmware/src/Firmware/build_px4fmu-v2_default/px4io-v2/NuttX/nuttx-export/libs/libnuttx.a(fs-fs_read.o)
                              CMakeFiles/px4io-v2.dir/dsm.c.obj (read)
/home/einar/px4_firmware/src/Firmware/build_px4fmu-v2_default/px4io-v2/NuttX/nuttx-export/libs/libnuttx.a(fs-fs_write.o)
                              CMakeFiles/px4io-v2.dir/sbus.c.obj (write)
/home/einar/px4_firmware/src/Firmware/build_px4fmu-v2_default/px4io-v2/NuttX/nuttx-export/libs/libnuttx.a(drivers-serialirq.o)
                              /home/einar/px4_firmware/src/Firmware/build_px4fmu-v2_default/px4io-v2/NuttX/nuttx-export/libs/libnuttx.a(arch-stm32_serial.o) (uart_xmitchars)
/home/einar/px4_firmware/src/Firmware/build_px4fmu-v2_default/px4io-v2/NuttX/nuttx-export/libs/libnuttx.a(drivers-serial.o)
                              /home/einar/px4_firmware/src/Firmware/build_px4fmu-v2_default/px4io-v2/NuttX/nuttx-export/libs/libnuttx.a(arch-stm32_serial.o) (uart_register)
/home/einar/px4_firmware/src/Firmware/build_px4fmu-v2_default/px4io-v2/NuttX/nuttx-export/libs/libnuttx.a(sched-errno_getptr.o)
                              /home/einar/px4_firmware/src/Firmware/build_px4fmu-v2_default/px4io-v2/NuttX/nuttx-export/libs/libnuttx.a(mm-mm_sem.o) (get_errno_ptr)
/home/einar/px4_firmware/src/Firmware/build_px4fmu-v2_default/px4io-v2/NuttX/nuttx-export/libs/libnuttx.a(sched-exit.o)
                              /home/einar/px4_firmware/src/Firmware/build_px4fmu-v2_default/px4io-v2/NuttX/nuttx-export/libs/libnuttx.a(c-lib_abort.o) (exit)
/home/einar/px4_firmware/src/Firmware/build_px4fmu-v2_default/px4io-v2/NuttX/nuttx-export/libs/libnuttx.a(sched-getpid.o)
                              /home/einar/px4_firmware/src/Firmware/build_px4fmu-v2_default/px4io-v2/NuttX/nuttx-export/libs/libnuttx.a(mm-mm_sem.o) (getpid)
/home/einar/px4_firmware/src/Firmware/build_px4fmu-v2_default/px4io-v2/NuttX/nuttx-export/libs/libnuttx.a(sched-os_start.o)
                              /home/einar/px4_firmware/src/Firmware/build_px4fmu-v2_default/px4io-v2/NuttX/nuttx-export/libs/libnuttx.a(arch-stm32_start.o) (os_start)
/home/einar/px4_firmware/src/Firmware/build_px4fmu-v2_default/px4io-v2/NuttX/nuttx-export/libs/libnuttx.a(sched-sched_garbage.o)
                              /home/einar/px4_firmware/src/Firmware/build_px4fmu-v2_default/px4io-v2/NuttX/nuttx-export/libs/libnuttx.a(sched-os_start.o) (sched_garbagecollection)
/home/einar/px4_firmware/src/Firmware/build_px4fmu-v2_default/px4io-v2/NuttX/nuttx-export/libs/libnuttx.a(sched-sched_getfiles.o)
                              /home/einar/px4_firmware/src/Firmware/build_px4fmu-v2_default/px4io-v2/NuttX/nuttx-export/libs/libnuttx.a(fs-fs_ioctl.o) (sched_getfiles)
/home/einar/px4_firmware/src/Firmware/build_px4fmu-v2_default/px4io-v2/NuttX/nuttx-export/libs/libnuttx.a(sched-sem_post.o)
                              /home/einar/px4_firmware/src/Firmware/build_px4fmu-v2_default/px4io-v2/NuttX/nuttx-export/libs/libnuttx.a(mm-mm_sem.o) (sem_post)
/home/einar/px4_firmware/src/Firmware/build_px4fmu-v2_default/px4io-v2/NuttX/nuttx-export/libs/libnuttx.a(sched-sem_trywait.o)
                              /home/einar/px4_firmware/src/Firmware/build_px4fmu-v2_default/px4io-v2/NuttX/nuttx-export/libs/libnuttx.a(mm-mm_sem.o) (sem_trywait)
/home/einar/px4_firmware/src/Firmware/build_px4fmu-v2_default/px4io-v2/NuttX/nuttx-export/libs/libnuttx.a(sched-sem_wait.o)
                              /home/einar/px4_firmware/src/Firmware/build_px4fmu-v2_default/px4io-v2/NuttX/nuttx-export/libs/libnuttx.a(mm-mm_sem.o) (sem_wait)
/home/einar/px4_firmware/src/Firmware/build_px4fmu-v2_default/px4io-v2/NuttX/nuttx-export/libs/libnuttx.a(sched-task_exithook.o)
                              /home/einar/px4_firmware/src/Firmware/build_px4fmu-v2_default/px4io-v2/NuttX/nuttx-export/libs/libnuttx.a(sched-exit.o) (task_exithook)
/home/einar/px4_firmware/src/Firmware/build_px4fmu-v2_default/px4io-v2/NuttX/nuttx-export/libs/libnuttx.a(sched-task_recover.o)
                              /home/einar/px4_firmware/src/Firmware/build_px4fmu-v2_default/px4io-v2/NuttX/nuttx-export/libs/libnuttx.a(sched-task_exithook.o) (task_recover)
/home/einar/px4_firmware/src/Firmware/build_px4fmu-v2_default/px4io-v2/NuttX/nuttx-export/libs/libnuttx.a(sched-wd_cancel.o)
                              /home/einar/px4_firmware/src/Firmware/build_px4fmu-v2_default/px4io-v2/NuttX/nuttx-export/libs/libnuttx.a(sched-task_recover.o) (wd_cancel)
/home/einar/px4_firmware/src/Firmware/build_px4fmu-v2_default/px4io-v2/NuttX/nuttx-export/libs/libnuttx.a(sched-wd_delete.o)
                              /home/einar/px4_firmware/src/Firmware/build_px4fmu-v2_default/px4io-v2/NuttX/nuttx-export/libs/libnuttx.a(sched-task_recover.o) (wd_delete)
/home/einar/px4_firmware/src/Firmware/build_px4fmu-v2_default/px4io-v2/NuttX/nuttx-export/libs/libnuttx.a(sched-wd_initialize.o)
                              /home/einar/px4_firmware/src/Firmware/build_px4fmu-v2_default/px4io-v2/NuttX/nuttx-export/libs/libnuttx.a(sched-wd_cancel.o) (g_wdactivelist)
/home/einar/px4_firmware/src/Firmware/build_px4fmu-v2_default/px4io-v2/NuttX/nuttx-export/libs/libnuttx.a(c-dq_addfirst.o)
                              /home/einar/px4_firmware/src/Firmware/build_px4fmu-v2_default/px4io-v2/NuttX/nuttx-export/libs/libnuttx.a(sched-os_start.o) (dq_addfirst)
/home/einar/px4_firmware/src/Firmware/build_px4fmu-v2_default/px4io-v2/NuttX/nuttx-export/libs/libnuttx.a(c-lib_cfgetspeed.o)
                              /home/einar/px4_firmware/src/Firmware/build_px4fmu-v2_default/px4io-v2/NuttX/nuttx-export/libs/libnuttx.a(arch-stm32_serial.o) (cfgetspeed)
/home/einar/px4_firmware/src/Firmware/build_px4fmu-v2_default/px4io-v2/NuttX/nuttx-export/libs/libnuttx.a(c-lib_checkbase.o)
                              /home/einar/px4_firmware/src/Firmware/build_px4fmu-v2_default/px4io-v2/NuttX/nuttx-export/libs/libnuttx.a(c-lib_strtoul.o) (lib_checkbase)
/home/einar/px4_firmware/src/Firmware/build_px4fmu-v2_default/px4io-v2/NuttX/nuttx-export/libs/libnuttx.a(c-lib_isbasedigit.o)
                              /home/einar/px4_firmware/src/Firmware/build_px4fmu-v2_default/px4io-v2/NuttX/nuttx-export/libs/libnuttx.a(c-lib_strtoul.o) (lib_isbasedigit)
/home/einar/px4_firmware/src/Firmware/build_px4fmu-v2_default/px4io-v2/NuttX/nuttx-export/libs/libnuttx.a(c-lib_libvsprintf.o)
                              /home/einar/px4_firmware/src/Firmware/build_px4fmu-v2_default/px4io-v2/NuttX/nuttx-export/libs/libnuttx.a(c-lib_lowsyslog.o) (lib_vsprintf)
/home/einar/px4_firmware/src/Firmware/build_px4fmu-v2_default/px4io-v2/NuttX/nuttx-export/libs/libnuttx.a(c-lib_lowoutstream.o)
                              /home/einar/px4_firmware/src/Firmware/build_px4fmu-v2_default/px4io-v2/NuttX/nuttx-export/libs/libnuttx.a(c-lib_lowsyslog.o) (lib_lowoutstream)
/home/einar/px4_firmware/src/Firmware/build_px4fmu-v2_default/px4io-v2/NuttX/nuttx-export/libs/libnuttx.a(c-lib_memoutstream.o)
                              /home/einar/px4_firmware/src/Firmware/build_px4fmu-v2_default/px4io-v2/NuttX/nuttx-export/libs/libnuttx.a(c-lib_vsnprintf.o) (lib_memoutstream)
/home/einar/px4_firmware/src/Firmware/build_px4fmu-v2_default/px4io-v2/NuttX/nuttx-export/libs/libnuttx.a(c-lib_nulloutstream.o)
                              /home/einar/px4_firmware/src/Firmware/build_px4fmu-v2_default/px4io-v2/NuttX/nuttx-export/libs/libnuttx.a(c-lib_libvsprintf.o) (lib_nulloutstream)
/home/einar/px4_firmware/src/Firmware/build_px4fmu-v2_default/px4io-v2/NuttX/nuttx-export/libs/libnuttx.a(c-lib_rawoutstream.o)
                              /home/einar/px4_firmware/src/Firmware/build_px4fmu-v2_default/px4io-v2/NuttX/nuttx-export/libs/libnuttx.a(c-lib_syslog.o) (lib_rawoutstream)
/home/einar/px4_firmware/src/Firmware/build_px4fmu-v2_default/px4io-v2/NuttX/nuttx-export/libs/libnuttx.a(c-lib_skipspace.o)
                              /home/einar/px4_firmware/src/Firmware/build_px4fmu-v2_default/px4io-v2/NuttX/nuttx-export/libs/libnuttx.a(c-lib_strtol.o) (lib_skipspace)
/home/einar/px4_firmware/src/Firmware/build_px4fmu-v2_default/px4io-v2/NuttX/nuttx-export/libs/libnuttx.a(c-lib_strcpy.o)
                              /home/einar/px4_firmware/src/Firmware/build_px4fmu-v2_default/px4io-v2/NuttX/nuttx-export/libs/libnuttx.a(arch-stm32_serial.o) (strcpy)
/home/einar/px4_firmware/src/Firmware/build_px4fmu-v2_default/px4io-v2/NuttX/nuttx-export/libs/libnuttx.a(c-lib_strlen.o)
                              /home/einar/px4_firmware/src/Firmware/build_px4fmu-v2_default/px4io-v2/NuttX/nuttx-export/libs/libnuttx.a(c-lib_libvsprintf.o) (strlen)
/home/einar/px4_firmware/src/Firmware/build_px4fmu-v2_default/px4io-v2/NuttX/nuttx-export/libs/libnuttx.a(c-sem_init.o)
                              /home/einar/px4_firmware/src/Firmware/build_px4fmu-v2_default/px4io-v2/NuttX/nuttx-export/libs/libnuttx.a(mm-mm_sem.o) (sem_init)
/home/einar/px4_firmware/src/Firmware/build_px4fmu-v2_default/px4io-v2/NuttX/nuttx-export/libs/libnuttx.a(c-sq_remafter.o)
                              /home/einar/px4_firmware/src/Firmware/build_px4fmu-v2_default/px4io-v2/NuttX/nuttx-export/libs/libnuttx.a(c-sq_rem.o) (sq_remafter)
/home/einar/px4_firmware/src/Firmware/build_px4fmu-v2_default/px4io-v2/NuttX/nuttx-export/libs/libnuttx.a(c-sq_remfirst.o)
                              /home/einar/px4_firmware/src/Firmware/build_px4fmu-v2_default/px4io-v2/NuttX/nuttx-export/libs/libnuttx.a(sched-sched_garbage.o) (sq_remfirst)
/home/einar/px4_firmware/src/Firmware/build_px4fmu-v2_default/px4io-v2/NuttX/nuttx-export/libs/libnuttx.a(mm-mm_addfreechunk.o)
                              /home/einar/px4_firmware/src/Firmware/build_px4fmu-v2_default/px4io-v2/NuttX/nuttx-export/libs/libnuttx.a(mm-mm_free.o) (mm_addfreechunk)
/home/einar/px4_firmware/src/Firmware/build_px4fmu-v2_default/px4io-v2/NuttX/nuttx-export/libs/libnuttx.a(mm-mm_initialize.o)
                              /home/einar/px4_firmware/src/Firmware/build_px4fmu-v2_default/px4io-v2/NuttX/nuttx-export/libs/libnuttx.a(mm-mm_user.o) (mm_addregion)
/home/einar/px4_firmware/src/Firmware/build_px4fmu-v2_default/px4io-v2/NuttX/nuttx-export/libs/libnuttx.a(arch-stm32_allocateheap.o)
                              /home/einar/px4_firmware/src/Firmware/build_px4fmu-v2_default/px4io-v2/NuttX/nuttx-export/libs/libnuttx.a(sched-os_start.o) (up_allocate_heap)
/home/einar/px4_firmware/src/Firmware/build_px4fmu-v2_default/px4io-v2/NuttX/nuttx-export/libs/libnuttx.a(arch-stm32_idle.o)
                              /home/einar/px4_firmware/src/Firmware/build_px4fmu-v2_default/px4io-v2/NuttX/nuttx-export/libs/libnuttx.a(sched-os_start.o) (up_idle)
/home/einar/px4_firmware/src/Firmware/build_px4fmu-v2_default/px4io-v2/NuttX/nuttx-export/libs/libnuttx.a(arch-stm32_lowputc.o)
                              /home/einar/px4_firmware/src/Firmware/build_px4fmu-v2_default/px4io-v2/NuttX/nuttx-export/libs/libnuttx.a(arch-stm32_serial.o) (up_lowputc)
/home/einar/px4_firmware/src/Firmware/build_px4fmu-v2_default/px4io-v2/NuttX/nuttx-export/libs/libnuttx.a(arch-stm32_rcc.o)
                              /home/einar/px4_firmware/src/Firmware/build_px4fmu-v2_default/px4io-v2/NuttX/nuttx-export/libs/libnuttx.a(arch-stm32_start.o) (stm32_clockconfig)
/home/einar/px4_firmware/src/Firmware/build_px4fmu-v2_default/px4io-v2/NuttX/nuttx-export/libs/libnuttx.a(arch-stm32_vectors.o)
                              /home/einar/px4_firmware/src/Firmware/build_px4fmu-v2_default/px4io-v2/NuttX/nuttx-export/libs/libnuttx.a(arch-up_assert.o) (g_idle_topstack)
/home/einar/px4_firmware/src/Firmware/build_px4fmu-v2_default/px4io-v2/NuttX/nuttx-export/libs/libnuttx.a(arch-up_blocktask.o)
                              /home/einar/px4_firmware/src/Firmware/build_px4fmu-v2_default/px4io-v2/NuttX/nuttx-export/libs/libnuttx.a(sched-sem_wait.o) (up_block_task)
/home/einar/px4_firmware/src/Firmware/build_px4fmu-v2_default/px4io-v2/NuttX/nuttx-export/libs/libnuttx.a(arch-up_copystate.o)
                              /home/einar/px4_firmware/src/Firmware/build_px4fmu-v2_default/px4io-v2/NuttX/nuttx-export/libs/libnuttx.a(arch-up_blocktask.o) (up_copystate)
/home/einar/px4_firmware/src/Firmware/build_px4fmu-v2_default/px4io-v2/NuttX/nuttx-export/libs/libnuttx.a(arch-up_doirq.o)
                              /home/einar/px4_firmware/src/Firmware/build_px4fmu-v2_default/px4io-v2/NuttX/nuttx-export/libs/libnuttx.a(arch-up_exception.o) (up_doirq)
/home/einar/px4_firmware/src/Firmware/build_px4fmu-v2_default/px4io-v2/NuttX/nuttx-export/libs/libnuttx.a(arch-up_exit.o)
                              /home/einar/px4_firmware/src/Firmware/build_px4fmu-v2_default/px4io-v2/NuttX/nuttx-export/libs/libnuttx.a(sched-exit.o) (_exit)
/home/einar/px4_firmware/src/Firmware/build_px4fmu-v2_default/px4io-v2/NuttX/nuttx-export/libs/libnuttx.a(arch-up_fullcontextrestore.o)
                              /home/einar/px4_firmware/src/Firmware/build_px4fmu-v2_default/px4io-v2/NuttX/nuttx-export/libs/libnuttx.a(arch-up_exit.o) (up_fullcontextrestore)
/home/einar/px4_firmware/src/Firmware/build_px4fmu-v2_default/px4io-v2/NuttX/nuttx-export/libs/libnuttx.a(arch-up_initialize.o)
                              /home/einar/px4_firmware/src/Firmware/build_px4fmu-v2_default/px4io-v2/NuttX/nuttx-export/libs/libnuttx.a(sched-os_start.o) (up_initialize)
/home/einar/px4_firmware/src/Firmware/build_px4fmu-v2_default/px4io-v2/NuttX/nuttx-export/libs/libnuttx.a(arch-up_initialstate.o)
                              /home/einar/px4_firmware/src/Firmware/build_px4fmu-v2_default/px4io-v2/NuttX/nuttx-export/libs/libnuttx.a(sched-os_start.o) (up_initial_state)
/home/einar/px4_firmware/src/Firmware/build_px4fmu-v2_default/px4io-v2/NuttX/nuttx-export/libs/libnuttx.a(arch-up_interruptcontext.o)
                              /home/einar/px4_firmware/src/Firmware/build_px4fmu-v2_default/px4io-v2/NuttX/nuttx-export/libs/libnuttx.a(drivers-serial.o) (up_interrupt_context)
/home/einar/px4_firmware/src/Firmware/build_px4fmu-v2_default/px4io-v2/NuttX/nuttx-export/libs/libnuttx.a(arch-up_mdelay.o)
                              /home/einar/px4_firmware/src/Firmware/build_px4fmu-v2_default/px4io-v2/NuttX/nuttx-export/libs/libnuttx.a(drivers-serial.o) (up_mdelay)
/home/einar/px4_firmware/src/Firmware/build_px4fmu-v2_default/px4io-v2/NuttX/nuttx-export/libs/libnuttx.a(arch-up_switchcontext.o)
                              /home/einar/px4_firmware/src/Firmware/build_px4fmu-v2_default/px4io-v2/NuttX/nuttx-export/libs/libnuttx.a(arch-up_blocktask.o) (up_switchcontext)
/home/einar/px4_firmware/src/Firmware/build_px4fmu-v2_default/px4io-v2/NuttX/nuttx-export/libs/libnuttx.a(arch-up_unblocktask.o)
                              /home/einar/px4_firmware/src/Firmware/build_px4fmu-v2_default/px4io-v2/NuttX/nuttx-export/libs/libnuttx.a(sched-sem_post.o) (up_unblock_task)
/home/einar/px4_firmware/src/Firmware/build_px4fmu-v2_default/px4io-v2/NuttX/nuttx-export/libs/libnuttx.a(fs-fs_files.o)
                              /home/einar/px4_firmware/src/Firmware/build_px4fmu-v2_default/px4io-v2/NuttX/nuttx-export/libs/libnuttx.a(fs-fs_open.o) (files_allocate)
/home/einar/px4_firmware/src/Firmware/build_px4fmu-v2_default/px4io-v2/NuttX/nuttx-export/libs/libnuttx.a(fs-fs_inodeaddref.o)
                              /home/einar/px4_firmware/src/Firmware/build_px4fmu-v2_default/px4io-v2/NuttX/nuttx-export/libs/libnuttx.a(fs-fs_files.o) (inode_addref)
/home/einar/px4_firmware/src/Firmware/build_px4fmu-v2_default/px4io-v2/NuttX/nuttx-export/libs/libnuttx.a(fs-fs_inodefind.o)
                              /home/einar/px4_firmware/src/Firmware/build_px4fmu-v2_default/px4io-v2/NuttX/nuttx-export/libs/libnuttx.a(fs-fs_open.o) (inode_find)
/home/einar/px4_firmware/src/Firmware/build_px4fmu-v2_default/px4io-v2/NuttX/nuttx-export/libs/libnuttx.a(fs-fs_inode.o)
                              /home/einar/px4_firmware/src/Firmware/build_px4fmu-v2_default/px4io-v2/NuttX/nuttx-export/libs/libnuttx.a(fs-fs_inodeaddref.o) (inode_semtake)
/home/einar/px4_firmware/src/Firmware/build_px4fmu-v2_default/px4io-v2/NuttX/nuttx-export/libs/libnuttx.a(fs-fs_inoderelease.o)
                              /home/einar/px4_firmware/src/Firmware/build_px4fmu-v2_default/px4io-v2/NuttX/nuttx-export/libs/libnuttx.a(fs-fs_open.o) (inode_release)
/home/einar/px4_firmware/src/Firmware/build_px4fmu-v2_default/px4io-v2/NuttX/nuttx-export/libs/libnuttx.a(fs-fs_registerdriver.o)
                              /home/einar/px4_firmware/src/Firmware/build_px4fmu-v2_default/px4io-v2/NuttX/nuttx-export/libs/libnuttx.a(drivers-serial.o) (register_driver)
/home/einar/px4_firmware/src/Firmware/build_px4fmu-v2_default/px4io-v2/NuttX/nuttx-export/libs/libnuttx.a(drivers-dev_null.o)
                              /home/einar/px4_firmware/src/Firmware/build_px4fmu-v2_default/px4io-v2/NuttX/nuttx-export/libs/libnuttx.a(arch-up_initialize.o) (devnull_register)
/home/einar/px4_firmware/src/Firmware/build_px4fmu-v2_default/px4io-v2/NuttX/nuttx-export/libs/libnuttx.a(sched-group_create.o)
                              /home/einar/px4_firmware/src/Firmware/build_px4fmu-v2_default/px4io-v2/NuttX/nuttx-export/libs/libnuttx.a(sched-os_start.o) (group_allocate)
/home/einar/px4_firmware/src/Firmware/build_px4fmu-v2_default/px4io-v2/NuttX/nuttx-export/libs/libnuttx.a(sched-group_leave.o)
                              /home/einar/px4_firmware/src/Firmware/build_px4fmu-v2_default/px4io-v2/NuttX/nuttx-export/libs/libnuttx.a(sched-task_exithook.o) (group_leave)
/home/einar/px4_firmware/src/Firmware/build_px4fmu-v2_default/px4io-v2/NuttX/nuttx-export/libs/libnuttx.a(sched-group_setupidlefiles.o)
                              /home/einar/px4_firmware/src/Firmware/build_px4fmu-v2_default/px4io-v2/NuttX/nuttx-export/libs/libnuttx.a(sched-os_start.o) (group_setupidlefiles)
/home/einar/px4_firmware/src/Firmware/build_px4fmu-v2_default/px4io-v2/NuttX/nuttx-export/libs/libnuttx.a(sched-irq_dispatch.o)
                              /home/einar/px4_firmware/src/Firmware/build_px4fmu-v2_default/px4io-v2/NuttX/nuttx-export/libs/libnuttx.a(arch-up_doirq.o) (irq_dispatch)
/home/einar/px4_firmware/src/Firmware/build_px4fmu-v2_default/px4io-v2/NuttX/nuttx-export/libs/libnuttx.a(sched-os_bringup.o)
                              /home/einar/px4_firmware/src/Firmware/build_px4fmu-v2_default/px4io-v2/NuttX/nuttx-export/libs/libnuttx.a(sched-os_start.o) (os_bringup)
/home/einar/px4_firmware/src/Firmware/build_px4fmu-v2_default/px4io-v2/NuttX/nuttx-export/libs/libnuttx.a(sched-sched_addblocked.o)
                              /home/einar/px4_firmware/src/Firmware/build_px4fmu-v2_default/px4io-v2/NuttX/nuttx-export/libs/libnuttx.a(arch-up_blocktask.o) (sched_addblocked)
/home/einar/px4_firmware/src/Firmware/build_px4fmu-v2_default/px4io-v2/NuttX/nuttx-export/libs/libnuttx.a(sched-sched_addprioritized.o)
                              /home/einar/px4_firmware/src/Firmware/build_px4fmu-v2_default/px4io-v2/NuttX/nuttx-export/libs/libnuttx.a(sched-sched_addblocked.o) (sched_addprioritized)
/home/einar/px4_firmware/src/Firmware/build_px4fmu-v2_default/px4io-v2/NuttX/nuttx-export/libs/libnuttx.a(sched-sched_addreadytorun.o)
                              /home/einar/px4_firmware/src/Firmware/build_px4fmu-v2_default/px4io-v2/NuttX/nuttx-export/libs/libnuttx.a(arch-up_unblocktask.o) (sched_addreadytorun)
/home/einar/px4_firmware/src/Firmware/build_px4fmu-v2_default/px4io-v2/NuttX/nuttx-export/libs/libnuttx.a(sched-sched_free.o)
                              /home/einar/px4_firmware/src/Firmware/build_px4fmu-v2_default/px4io-v2/NuttX/nuttx-export/libs/libnuttx.a(sched-group_leave.o) (sched_ufree)
/home/einar/px4_firmware/src/Firmware/build_px4fmu-v2_default/px4io-v2/NuttX/nuttx-export/libs/libnuttx.a(sched-sched_mergepending.o)
                              /home/einar/px4_firmware/src/Firmware/build_px4fmu-v2_default/px4io-v2/NuttX/nuttx-export/libs/libnuttx.a(arch-up_blocktask.o) (sched_mergepending)
/home/einar/px4_firmware/src/Firmware/build_px4fmu-v2_default/px4io-v2/NuttX/nuttx-export/libs/libnuttx.a(sched-sched_removeblocked.o)
                              /home/einar/px4_firmware/src/Firmware/build_px4fmu-v2_default/px4io-v2/NuttX/nuttx-export/libs/libnuttx.a(arch-up_unblocktask.o) (sched_removeblocked)
/home/einar/px4_firmware/src/Firmware/build_px4fmu-v2_default/px4io-v2/NuttX/nuttx-export/libs/libnuttx.a(sched-sched_removereadytorun.o)
                              /home/einar/px4_firmware/src/Firmware/build_px4fmu-v2_default/px4io-v2/NuttX/nuttx-export/libs/libnuttx.a(arch-up_blocktask.o) (sched_removereadytorun)
/home/einar/px4_firmware/src/Firmware/build_px4fmu-v2_default/px4io-v2/NuttX/nuttx-export/libs/libnuttx.a(sched-sem_destroy.o)
                              /home/einar/px4_firmware/src/Firmware/build_px4fmu-v2_default/px4io-v2/NuttX/nuttx-export/libs/libnuttx.a(fs-fs_files.o) (sem_destroy)
/home/einar/px4_firmware/src/Firmware/build_px4fmu-v2_default/px4io-v2/NuttX/nuttx-export/libs/libnuttx.a(sched-task_create.o)
                              /home/einar/px4_firmware/src/Firmware/build_px4fmu-v2_default/px4io-v2/NuttX/nuttx-export/libs/libnuttx.a(sched-os_bringup.o) (task_create)
/home/einar/px4_firmware/src/Firmware/build_px4fmu-v2_default/px4io-v2/NuttX/nuttx-export/libs/libnuttx.a(sched-task_exit.o)
                              /home/einar/px4_firmware/src/Firmware/build_px4fmu-v2_default/px4io-v2/NuttX/nuttx-export/libs/libnuttx.a(arch-up_exit.o) (task_exit)
/home/einar/px4_firmware/src/Firmware/build_px4fmu-v2_default/px4io-v2/NuttX/nuttx-export/libs/libnuttx.a(sched-task_setup.o)
                              /home/einar/px4_firmware/src/Firmware/build_px4fmu-v2_default/px4io-v2/NuttX/nuttx-export/libs/libnuttx.a(sched-task_create.o) (task_schedsetup)
/home/einar/px4_firmware/src/Firmware/build_px4fmu-v2_default/px4io-v2/NuttX/nuttx-export/libs/libnuttx.a(sched-task_start.o)
                              /home/einar/px4_firmware/src/Firmware/build_px4fmu-v2_default/px4io-v2/NuttX/nuttx-export/libs/libnuttx.a(sched-task_create.o) (task_start)
/home/einar/px4_firmware/src/Firmware/build_px4fmu-v2_default/px4io-v2/NuttX/nuttx-export/libs/libnuttx.a(sched-task_terminate.o)
                              /home/einar/px4_firmware/src/Firmware/build_px4fmu-v2_default/px4io-v2/NuttX/nuttx-export/libs/libnuttx.a(sched-task_exit.o) (task_terminate)
/home/einar/px4_firmware/src/Firmware/build_px4fmu-v2_default/px4io-v2/NuttX/nuttx-export/libs/libnuttx.a(c-dq_addlast.o)
                              /home/einar/px4_firmware/src/Firmware/build_px4fmu-v2_default/px4io-v2/NuttX/nuttx-export/libs/libnuttx.a(sched-sched_addblocked.o) (dq_addlast)
/home/einar/px4_firmware/src/Firmware/build_px4fmu-v2_default/px4io-v2/NuttX/nuttx-export/libs/libnuttx.a(c-dq_rem.o)
                              /home/einar/px4_firmware/src/Firmware/build_px4fmu-v2_default/px4io-v2/NuttX/nuttx-export/libs/libnuttx.a(sched-sched_removeblocked.o) (dq_rem)
/home/einar/px4_firmware/src/Firmware/build_px4fmu-v2_default/px4io-v2/NuttX/nuttx-export/libs/libnuttx.a(c-lib_strdup.o)
                              /home/einar/px4_firmware/src/Firmware/build_px4fmu-v2_default/px4io-v2/NuttX/nuttx-export/libs/libnuttx.a(sched-task_setup.o) (strdup)
/home/einar/px4_firmware/src/Firmware/build_px4fmu-v2_default/px4io-v2/NuttX/nuttx-export/libs/libnuttx.a(arch-stm32_timerisr.o)
                              /home/einar/px4_firmware/src/Firmware/build_px4fmu-v2_default/px4io-v2/NuttX/nuttx-export/libs/libnuttx.a(arch-up_initialize.o) (up_timerinit)
/home/einar/px4_firmware/src/Firmware/build_px4fmu-v2_default/px4io-v2/NuttX/nuttx-export/libs/libnuttx.a(arch-up_createstack.o)
                              /home/einar/px4_firmware/src/Firmware/build_px4fmu-v2_default/px4io-v2/NuttX/nuttx-export/libs/libnuttx.a(sched-task_create.o) (up_create_stack)
/home/einar/px4_firmware/src/Firmware/build_px4fmu-v2_default/px4io-v2/NuttX/nuttx-export/libs/libnuttx.a(arch-up_releasestack.o)
                              /home/einar/px4_firmware/src/Firmware/build_px4fmu-v2_default/px4io-v2/NuttX/nuttx-export/libs/libnuttx.a(arch-up_createstack.o) (up_release_stack)
/home/einar/px4_firmware/src/Firmware/build_px4fmu-v2_default/px4io-v2/NuttX/nuttx-export/libs/libnuttx.a(fs-fs_close.o)
                              /home/einar/px4_firmware/src/Firmware/build_px4fmu-v2_default/px4io-v2/NuttX/nuttx-export/libs/libnuttx.a(sched-group_setupidlefiles.o) (close)
/home/einar/px4_firmware/src/Firmware/build_px4fmu-v2_default/px4io-v2/NuttX/nuttx-export/libs/libnuttx.a(fs-fs_filedup2.o)
                              /home/einar/px4_firmware/src/Firmware/build_px4fmu-v2_default/px4io-v2/NuttX/nuttx-export/libs/libnuttx.a(sched-group_setupidlefiles.o) (dup2)
/home/einar/px4_firmware/src/Firmware/build_px4fmu-v2_default/px4io-v2/NuttX/nuttx-export/libs/libnuttx.a(fs-fs_inodereserve.o)
                              /home/einar/px4_firmware/src/Firmware/build_px4fmu-v2_default/px4io-v2/NuttX/nuttx-export/libs/libnuttx.a(fs-fs_registerdriver.o) (inode_reserve)
/home/einar/px4_firmware/src/Firmware/build_px4fmu-v2_default/px4io-v2/NuttX/nuttx-export/libs/libnuttx.a(sched-group_setuptaskfiles.o)
                              /home/einar/px4_firmware/src/Firmware/build_px4fmu-v2_default/px4io-v2/NuttX/nuttx-export/libs/libnuttx.a(sched-task_create.o) (group_setuptaskfiles)
/home/einar/px4_firmware/src/Firmware/build_px4fmu-v2_default/px4io-v2/NuttX/nuttx-export/libs/libnuttx.a(sched-sched_gettcb.o)
                              /home/einar/px4_firmware/src/Firmware/build_px4fmu-v2_default/px4io-v2/NuttX/nuttx-export/libs/libnuttx.a(sched-task_terminate.o) (sched_gettcb)
/home/einar/px4_firmware/src/Firmware/build_px4fmu-v2_default/px4io-v2/NuttX/nuttx-export/libs/libnuttx.a(sched-sched_lock.o)
                              /home/einar/px4_firmware/src/Firmware/build_px4fmu-v2_default/px4io-v2/NuttX/nuttx-export/libs/libnuttx.a(sched-task_setup.o) (sched_lock)
/home/einar/px4_firmware/src/Firmware/build_px4fmu-v2_default/px4io-v2/NuttX/nuttx-export/libs/libnuttx.a(sched-sched_processtimer.o)
                              /home/einar/px4_firmware/src/Firmware/build_px4fmu-v2_default/px4io-v2/NuttX/nuttx-export/libs/libnuttx.a(arch-stm32_timerisr.o) (sched_process_timer)
/home/einar/px4_firmware/src/Firmware/build_px4fmu-v2_default/px4io-v2/NuttX/nuttx-export/libs/libnuttx.a(sched-sched_releasetcb.o)
                              /home/einar/px4_firmware/src/Firmware/build_px4fmu-v2_default/px4io-v2/NuttX/nuttx-export/libs/libnuttx.a(sched-task_create.o) (sched_releasetcb)
/home/einar/px4_firmware/src/Firmware/build_px4fmu-v2_default/px4io-v2/NuttX/nuttx-export/libs/libnuttx.a(sched-sched_unlock.o)
                              /home/einar/px4_firmware/src/Firmware/build_px4fmu-v2_default/px4io-v2/NuttX/nuttx-export/libs/libnuttx.a(sched-task_setup.o) (sched_unlock)
/home/einar/px4_firmware/src/Firmware/build_px4fmu-v2_default/px4io-v2/NuttX/nuttx-export/libs/libnuttx.a(sched-task_activate.o)
                              /home/einar/px4_firmware/src/Firmware/build_px4fmu-v2_default/px4io-v2/NuttX/nuttx-export/libs/libnuttx.a(sched-task_create.o) (task_activate)
/home/einar/px4_firmware/src/Firmware/build_px4fmu-v2_default/px4io-v2/NuttX/nuttx-export/libs/libnuttx.a(arch-up_releasepending.o)
                              /home/einar/px4_firmware/src/Firmware/build_px4fmu-v2_default/px4io-v2/NuttX/nuttx-export/libs/libnuttx.a(sched-sched_unlock.o) (up_release_pending)
/usr/bin/../lib/gcc/arm-none-eabi/4.9.3/../../../../arm-none-eabi/lib/armv7-m/libm.a(lib_a-sf_fmin.o)
                              CMakeFiles/px4io-v2.dir/__/systemlib/mixer/mixer_multirotor.cpp.obj (fminf)
/usr/bin/../lib/gcc/arm-none-eabi/4.9.3/../../../../arm-none-eabi/lib/armv7-m/libm.a(lib_a-sf_fpclassify.o)
                              CMakeFiles/px4io-v2.dir/__/systemlib/pwm_limit/pwm_limit.c.obj (__fpclassifyf)
/usr/bin/../lib/gcc/arm-none-eabi/4.9.3/../../../../arm-none-eabi/lib/armv7-m/libm.a(lib_a-wf_sqrt.o)
                              CMakeFiles/px4io-v2.dir/__/systemlib/perf_counter.c.obj (sqrtf)
/usr/bin/../lib/gcc/arm-none-eabi/4.9.3/../../../../arm-none-eabi/lib/armv7-m/libm.a(lib_a-ef_sqrt.o)
                              /usr/bin/../lib/gcc/arm-none-eabi/4.9.3/../../../../arm-none-eabi/lib/armv7-m/libm.a(lib_a-wf_sqrt.o) (__ieee754_sqrtf)
/usr/bin/../lib/gcc/arm-none-eabi/4.9.3/../../../../arm-none-eabi/lib/armv7-m/libm.a(lib_a-s_lib_ver.o)
                              /usr/bin/../lib/gcc/arm-none-eabi/4.9.3/../../../../arm-none-eabi/lib/armv7-m/libm.a(lib_a-wf_sqrt.o) (__fdlib_version)
/usr/bin/../lib/gcc/arm-none-eabi/4.9.3/../../../../arm-none-eabi/lib/armv7-m/libm.a(lib_a-s_matherr.o)
                              /usr/bin/../lib/gcc/arm-none-eabi/4.9.3/../../../../arm-none-eabi/lib/armv7-m/libm.a(lib_a-wf_sqrt.o) (matherr)
/usr/bin/../lib/gcc/arm-none-eabi/4.9.3/armv7-m/libgcc.a(_lshrdi3.o)
                              /home/einar/px4_firmware/src/Firmware/build_px4fmu-v2_default/px4io-v2/NuttX/nuttx-export/libs/libnuttx.a(c-lib_libvsprintf.o) (__aeabi_llsr)
/usr/bin/../lib/gcc/arm-none-eabi/4.9.3/armv7-m/libgcc.a(_arm_addsubdf3.o)
                              CMakeFiles/px4io-v2.dir/__/systemlib/perf_counter.c.obj (__aeabi_f2d)
/usr/bin/../lib/gcc/arm-none-eabi/4.9.3/armv7-m/libgcc.a(_arm_muldivdf3.o)
                              /usr/bin/../lib/gcc/arm-none-eabi/4.9.3/../../../../arm-none-eabi/lib/armv7-m/libm.a(lib_a-wf_sqrt.o) (__aeabi_ddiv)
/usr/bin/../lib/gcc/arm-none-eabi/4.9.3/armv7-m/libgcc.a(_arm_truncdfsf2.o)
                              /usr/bin/../lib/gcc/arm-none-eabi/4.9.3/../../../../arm-none-eabi/lib/armv7-m/libm.a(lib_a-wf_sqrt.o) (__aeabi_d2f)
/usr/bin/../lib/gcc/arm-none-eabi/4.9.3/armv7-m/libgcc.a(_arm_addsubsf3.o)
                              CMakeFiles/px4io-v2.dir/__/systemlib/perf_counter.c.obj (__aeabi_fsub)
/usr/bin/../lib/gcc/arm-none-eabi/4.9.3/armv7-m/libgcc.a(_arm_muldivsf3.o)
                              CMakeFiles/px4io-v2.dir/controls.c.obj (__aeabi_fmul)
/usr/bin/../lib/gcc/arm-none-eabi/4.9.3/armv7-m/libgcc.a(_arm_cmpsf2.o)
                              CMakeFiles/px4io-v2.dir/mixer.cpp.obj (__aeabi_fcmplt)
/usr/bin/../lib/gcc/arm-none-eabi/4.9.3/armv7-m/libgcc.a(_arm_unordsf2.o)
                              CMakeFiles/px4io-v2.dir/__/systemlib/mixer/mixer_multirotor.cpp.obj (__aeabi_fcmpun)
/usr/bin/../lib/gcc/arm-none-eabi/4.9.3/armv7-m/libgcc.a(_arm_fixsfsi.o)
                              CMakeFiles/px4io-v2.dir/controls.c.obj (__aeabi_f2iz)
/usr/bin/../lib/gcc/arm-none-eabi/4.9.3/armv7-m/libgcc.a(_arm_fixunssfsi.o)
                              CMakeFiles/px4io-v2.dir/controls.c.obj (__aeabi_f2uiz)
/usr/bin/../lib/gcc/arm-none-eabi/4.9.3/armv7-m/libgcc.a(_aeabi_uldivmod.o)
                              CMakeFiles/px4io-v2.dir/__/systemlib/perf_counter.c.obj (__aeabi_uldivmod)
/usr/bin/../lib/gcc/arm-none-eabi/4.9.3/armv7-m/libgcc.a(bpabi.o)
                              /usr/bin/../lib/gcc/arm-none-eabi/4.9.3/armv7-m/libgcc.a(_aeabi_uldivmod.o) (__gnu_uldivmod_helper)
/usr/bin/../lib/gcc/arm-none-eabi/4.9.3/armv7-m/libgcc.a(_dvmd_tls.o)
                              /usr/bin/../lib/gcc/arm-none-eabi/4.9.3/armv7-m/libgcc.a(_aeabi_uldivmod.o) (__aeabi_ldiv0)
/usr/bin/../lib/gcc/arm-none-eabi/4.9.3/armv7-m/libgcc.a(_divdi3.o)
                              /usr/bin/../lib/gcc/arm-none-eabi/4.9.3/armv7-m/libgcc.a(bpabi.o) (__divdi3)
/usr/bin/../lib/gcc/arm-none-eabi/4.9.3/armv7-m/libgcc.a(_udivdi3.o)
                              /usr/bin/../lib/gcc/arm-none-eabi/4.9.3/armv7-m/libgcc.a(bpabi.o) (__udivdi3)

Discarded input sections

 .group         0x0000000000000000        0xc CMakeFiles/px4io-v2.dir/__/systemlib/mixer/mixer.cpp.obj
 .group         0x0000000000000000        0x8 CMakeFiles/px4io-v2.dir/__/systemlib/mixer/mixer.cpp.obj

Memory Configuration

Name             Origin             Length             Attributes
flash            0x0000000008001000 0x000000000000f000 xr
sram             0x0000000020000000 0x0000000000002000 xrw
*default*        0x0000000000000000 0xffffffffffffffff

Linker script and memory map

LOAD CMakeFiles/px4io-v2.dir/adc.c.obj
LOAD CMakeFiles/px4io-v2.dir/controls.c.obj
LOAD CMakeFiles/px4io-v2.dir/dsm.c.obj
LOAD CMakeFiles/px4io-v2.dir/px4io.c.obj
LOAD CMakeFiles/px4io-v2.dir/registers.c.obj
LOAD CMakeFiles/px4io-v2.dir/safety.c.obj
LOAD CMakeFiles/px4io-v2.dir/sbus.c.obj
LOAD CMakeFiles/px4io-v2.dir/__/systemlib/up_cxxinitialize.c.obj
LOAD CMakeFiles/px4io-v2.dir/__/systemlib/perf_counter.c.obj
LOAD CMakeFiles/px4io-v2.dir/mixer.cpp.obj
LOAD CMakeFiles/px4io-v2.dir/__/systemlib/mixer/mixer.cpp.obj
LOAD CMakeFiles/px4io-v2.dir/__/systemlib/mixer/mixer_group.cpp.obj
LOAD CMakeFiles/px4io-v2.dir/__/systemlib/mixer/mixer_multirotor.cpp.obj
LOAD CMakeFiles/px4io-v2.dir/__/systemlib/mixer/mixer_simple.cpp.obj
LOAD CMakeFiles/px4io-v2.dir/__/systemlib/pwm_limit/pwm_limit.c.obj
LOAD CMakeFiles/px4io-v2.dir/__/__/lib/rc/st24.c.obj
LOAD CMakeFiles/px4io-v2.dir/__/__/lib/rc/sumd.c.obj
LOAD CMakeFiles/px4io-v2.dir/__/__/drivers/stm32/drv_hrt.c.obj
LOAD CMakeFiles/px4io-v2.dir/__/__/drivers/stm32/drv_pwm_servo.c.obj
LOAD CMakeFiles/px4io-v2.dir/__/__/drivers/boards/px4io-v2/px4io_init.c.obj
LOAD CMakeFiles/px4io-v2.dir/__/__/drivers/boards/px4io-v2/px4io_pwm_servo.c.obj
LOAD CMakeFiles/px4io-v2.dir/serial.c.obj
LOAD CMakeFiles/px4io-v2.dir/__/systemlib/hx_stream.c.obj
START GROUP
LOAD /home/einar/px4_firmware/src/Firmware/build_px4fmu-v2_default/px4io-v2/NuttX/nuttx-export/libs/libapps.a
LOAD /home/einar/px4_firmware/src/Firmware/build_px4fmu-v2_default/px4io-v2/NuttX/nuttx-export/libs/libnuttx.a
LOAD /usr/bin/../lib/gcc/arm-none-eabi/4.9.3/../../../../arm-none-eabi/lib/armv7-m/libnosys.a
LOAD /usr/bin/../lib/gcc/arm-none-eabi/4.9.3/../../../../arm-none-eabi/lib/armv7-m/libm.a
LOAD /usr/bin/../lib/gcc/arm-none-eabi/4.9.3/armv7-m/libgcc.a
END GROUP

.text           0x0000000008001000     0xbe9c
                0x0000000008001000                _stext = ABSOLUTE (.)
 *(.vectors)
 .vectors       0x0000000008001000      0x134 /home/einar/px4_firmware/src/Firmware/build_px4fmu-v2_default/px4io-v2/NuttX/nuttx-export/libs/libnuttx.a(arch-up_vectors.o)
                0x0000000008001000                _vectors
 *(.text .text.*)
 .text          0x0000000008001134        0x0 CMakeFiles/px4io-v2.dir/adc.c.obj
 .text.adc_init
                0x0000000008001134       0xa4 CMakeFiles/px4io-v2.dir/adc.c.obj
                0x0000000008001134                adc_init
 .text.adc_measure
                0x00000000080011d8       0x80 CMakeFiles/px4io-v2.dir/adc.c.obj
                0x00000000080011d8                adc_measure
 .text          0x0000000008001258        0x0 CMakeFiles/px4io-v2.dir/controls.c.obj
 .text.controls_init
                0x0000000008001258       0xa8 CMakeFiles/px4io-v2.dir/controls.c.obj
                0x0000000008001258                controls_init
 .text.controls_tick
                0x0000000008001300      0x6dc CMakeFiles/px4io-v2.dir/controls.c.obj
                0x0000000008001300                controls_tick
 .text          0x00000000080019dc        0x0 CMakeFiles/px4io-v2.dir/dsm.c.obj
 .text.dsm_guess_format
                0x00000000080019dc       0xcc CMakeFiles/px4io-v2.dir/dsm.c.obj
 .text.dsm_init
                0x0000000008001aa8       0x78 CMakeFiles/px4io-v2.dir/dsm.c.obj
                0x0000000008001aa8                dsm_init
 .text.dsm_bind
                0x0000000008001b20       0x8c CMakeFiles/px4io-v2.dir/dsm.c.obj
                0x0000000008001b20                dsm_bind
 .text.dsm_input
                0x0000000008001bac      0x1a4 CMakeFiles/px4io-v2.dir/dsm.c.obj
                0x0000000008001bac                dsm_input
 .text          0x0000000008001d50        0x0 CMakeFiles/px4io-v2.dir/px4io.c.obj
 .text.isr_debug
                0x0000000008001d50       0x64 CMakeFiles/px4io-v2.dir/px4io.c.obj
                0x0000000008001d50                isr_debug
 .text.schedule_reboot
                0x0000000008001db4       0x1c CMakeFiles/px4io-v2.dir/px4io.c.obj
                0x0000000008001db4                schedule_reboot
 .text.user_start
                0x0000000008001dd0      0x3a0 CMakeFiles/px4io-v2.dir/px4io.c.obj
                0x0000000008001dd0                user_start
 .text          0x0000000008002170        0x0 CMakeFiles/px4io-v2.dir/registers.c.obj
 .text.pwm_configure_rates
                0x0000000008002170       0x90 CMakeFiles/px4io-v2.dir/registers.c.obj
 .text.registers_set
                0x0000000008002200      0x678 CMakeFiles/px4io-v2.dir/registers.c.obj
                0x0000000008002200                registers_set
 .text.registers_get
                0x0000000008002878      0x288 CMakeFiles/px4io-v2.dir/registers.c.obj
                0x0000000008002878                registers_get
 .text          0x0000000008002b00        0x0 CMakeFiles/px4io-v2.dir/safety.c.obj
 .text.safety_check_button
                0x0000000008002b00       0xe8 CMakeFiles/px4io-v2.dir/safety.c.obj
 .text.failsafe_blink
                0x0000000008002be8       0x40 CMakeFiles/px4io-v2.dir/safety.c.obj
 .text.safety_init
                0x0000000008002c28       0x34 CMakeFiles/px4io-v2.dir/safety.c.obj
                0x0000000008002c28                safety_init
 .text.failsafe_led_init
                0x0000000008002c5c       0x34 CMakeFiles/px4io-v2.dir/safety.c.obj
                0x0000000008002c5c                failsafe_led_init
 .text          0x0000000008002c90        0x0 CMakeFiles/px4io-v2.dir/sbus.c.obj
 .text.sbus_init
                0x0000000008002c90       0x80 CMakeFiles/px4io-v2.dir/sbus.c.obj
                0x0000000008002c90                sbus_init
 .text.sbus1_output
                0x0000000008002d10      0x148 CMakeFiles/px4io-v2.dir/sbus.c.obj
                0x0000000008002d10                sbus1_output
 .text.sbus2_output
                0x0000000008002e58       0x20 CMakeFiles/px4io-v2.dir/sbus.c.obj
                0x0000000008002e58                sbus2_output
 .text.sbus_input
                0x0000000008002e78      0x1b4 CMakeFiles/px4io-v2.dir/sbus.c.obj
                0x0000000008002e78                sbus_input
 .text          0x000000000800302c        0x0 CMakeFiles/px4io-v2.dir/__/systemlib/up_cxxinitialize.c.obj
 .text.up_cxxinitialize
                0x000000000800302c       0x38 CMakeFiles/px4io-v2.dir/__/systemlib/up_cxxinitialize.c.obj
                0x000000000800302c                up_cxxinitialize
 .text          0x0000000008003064        0x0 CMakeFiles/px4io-v2.dir/__/systemlib/perf_counter.c.obj
 .text.perf_alloc
                0x0000000008003064       0x50 CMakeFiles/px4io-v2.dir/__/systemlib/perf_counter.c.obj
                0x0000000008003064                perf_alloc
 .text.perf_alloc_once
                0x00000000080030b4       0x3c CMakeFiles/px4io-v2.dir/__/systemlib/perf_counter.c.obj
                0x00000000080030b4                perf_alloc_once
 .text.perf_free
                0x00000000080030f0       0x1c CMakeFiles/px4io-v2.dir/__/systemlib/perf_counter.c.obj
                0x00000000080030f0                perf_free
 .text.perf_count
                0x000000000800310c      0x100 CMakeFiles/px4io-v2.dir/__/systemlib/perf_counter.c.obj
                0x000000000800310c                perf_count
 .text.perf_begin
                0x000000000800320c       0x18 CMakeFiles/px4io-v2.dir/__/systemlib/perf_counter.c.obj
                0x000000000800320c                perf_begin
 .text.perf_end
                0x0000000008003224       0xe0 CMakeFiles/px4io-v2.dir/__/systemlib/perf_counter.c.obj
                0x0000000008003224                perf_end
 .text.perf_set
                0x0000000008003304       0xcc CMakeFiles/px4io-v2.dir/__/systemlib/perf_counter.c.obj
                0x0000000008003304                perf_set
 .text.perf_cancel
                0x00000000080033d0       0x14 CMakeFiles/px4io-v2.dir/__/systemlib/perf_counter.c.obj
                0x00000000080033d0                perf_cancel
 .text.perf_reset
                0x00000000080033e4       0x54 CMakeFiles/px4io-v2.dir/__/systemlib/perf_counter.c.obj
                0x00000000080033e4                perf_reset
 .text.perf_print_counter_fd
                0x0000000008003438      0x144 CMakeFiles/px4io-v2.dir/__/systemlib/perf_counter.c.obj
                0x0000000008003438                perf_print_counter_fd
 .text.perf_print_counter
                0x000000000800357c        0x8 CMakeFiles/px4io-v2.dir/__/systemlib/perf_counter.c.obj
                0x000000000800357c                perf_print_counter
 .text.perf_event_count
                0x0000000008003584       0x20 CMakeFiles/px4io-v2.dir/__/systemlib/perf_counter.c.obj
                0x0000000008003584                perf_event_count
 .text.perf_print_all
                0x00000000080035a4       0x20 CMakeFiles/px4io-v2.dir/__/systemlib/perf_counter.c.obj
                0x00000000080035a4                perf_print_all
 .text.perf_print_latency
                0x00000000080035c4       0x64 CMakeFiles/px4io-v2.dir/__/systemlib/perf_counter.c.obj
                0x00000000080035c4                perf_print_latency
 .text.perf_reset_all
                0x0000000008003628       0x38 CMakeFiles/px4io-v2.dir/__/systemlib/perf_counter.c.obj
                0x0000000008003628                perf_reset_all
 .text          0x0000000008003660        0x0 CMakeFiles/px4io-v2.dir/mixer.cpp.obj
 .text._ZL14mixer_callbackjhhRf
                0x0000000008003660      0x178 CMakeFiles/px4io-v2.dir/mixer.cpp.obj
 .text.startup._GLOBAL__sub_I_mixer_tick
                0x00000000080037d8       0x2c CMakeFiles/px4io-v2.dir/mixer.cpp.obj
 .text.mixer_tick
                0x0000000008003804      0x3f8 CMakeFiles/px4io-v2.dir/mixer.cpp.obj
                0x0000000008003804                mixer_tick
 .text.mixer_handle_text
                0x0000000008003bfc      0x1a4 CMakeFiles/px4io-v2.dir/mixer.cpp.obj
                0x0000000008003bfc                mixer_handle_text
 .text          0x0000000008003da0        0x0 CMakeFiles/px4io-v2.dir/__/systemlib/mixer/mixer.cpp.obj
 .text._ZN9NullMixerD2Ev
                0x0000000008003da0        0x4 CMakeFiles/px4io-v2.dir/__/systemlib/mixer/mixer.cpp.obj
                0x0000000008003da0                NullMixer::~NullMixer()
                0x0000000008003da0                NullMixer::~NullMixer()
 .text._ZN9NullMixer3mixEPfjPt
                0x0000000008003da4       0x10 CMakeFiles/px4io-v2.dir/__/systemlib/mixer/mixer.cpp.obj
                0x0000000008003da4                NullMixer::mix(float*, unsigned int, unsigned short*)
 .text._ZN9NullMixer15groups_requiredERj
                0x0000000008003db4        0x4 CMakeFiles/px4io-v2.dir/__/systemlib/mixer/mixer.cpp.obj
                0x0000000008003db4                NullMixer::groups_required(unsigned int&)
 .text._ZN9NullMixerD0Ev
                0x0000000008003db8        0xc CMakeFiles/px4io-v2.dir/__/systemlib/mixer/mixer.cpp.obj
                0x0000000008003db8                NullMixer::~NullMixer()
 .text._ZN5MixerC2EPFijhhRfEj
                0x0000000008003dc4       0x18 CMakeFiles/px4io-v2.dir/__/systemlib/mixer/mixer.cpp.obj
                0x0000000008003dc4                Mixer::Mixer(int (*)(unsigned int, unsigned char, unsigned char, float&), unsigned int)
                0x0000000008003dc4                Mixer::Mixer(int (*)(unsigned int, unsigned char, unsigned char, float&), unsigned int)
 .text._ZN5Mixer11get_controlEhh
                0x0000000008003ddc       0x14 CMakeFiles/px4io-v2.dir/__/systemlib/mixer/mixer.cpp.obj
                0x0000000008003ddc                Mixer::get_control(unsigned char, unsigned char)
 .text._ZN5Mixer5scaleERK14mixer_scaler_sf
                0x0000000008003df0       0x54 CMakeFiles/px4io-v2.dir/__/systemlib/mixer/mixer.cpp.obj
                0x0000000008003df0                Mixer::scale(mixer_scaler_s const&, float)
 .text._ZN5Mixer11scale_checkER14mixer_scaler_s
                0x0000000008003e44       0x5c CMakeFiles/px4io-v2.dir/__/systemlib/mixer/mixer.cpp.obj
                0x0000000008003e44                Mixer::scale_check(mixer_scaler_s&)
 .text._ZN5Mixer7findtagEPKcRjc
                0x0000000008003ea0       0x34 CMakeFiles/px4io-v2.dir/__/systemlib/mixer/mixer.cpp.obj
                0x0000000008003ea0                Mixer::findtag(char const*, unsigned int&, char)
 .text._ZN5Mixer8skiplineEPKcRj
                0x0000000008003ed4       0x30 CMakeFiles/px4io-v2.dir/__/systemlib/mixer/mixer.cpp.obj
                0x0000000008003ed4                Mixer::skipline(char const*, unsigned int&)
 .text._ZN9NullMixerC2Ev
                0x0000000008003f04       0x14 CMakeFiles/px4io-v2.dir/__/systemlib/mixer/mixer.cpp.obj
                0x0000000008003f04                NullMixer::NullMixer()
                0x0000000008003f04                NullMixer::NullMixer()
 .text._ZN9NullMixer9from_textEPKcRj
                0x0000000008003f18       0x60 CMakeFiles/px4io-v2.dir/__/systemlib/mixer/mixer.cpp.obj
                0x0000000008003f18                NullMixer::from_text(char const*, unsigned int&)
 .text          0x0000000008003f78        0x0 CMakeFiles/px4io-v2.dir/__/systemlib/mixer/mixer_group.cpp.obj
 .text._ZN10MixerGroupD2Ev
                0x0000000008003f78       0x28 CMakeFiles/px4io-v2.dir/__/systemlib/mixer/mixer_group.cpp.obj
                0x0000000008003f78                MixerGroup::~MixerGroup()
                0x0000000008003f78                MixerGroup::~MixerGroup()
 .text._ZN10MixerGroup3mixEPfjPt
                0x0000000008003fa0       0x40 CMakeFiles/px4io-v2.dir/__/systemlib/mixer/mixer_group.cpp.obj
                0x0000000008003fa0                MixerGroup::mix(float*, unsigned int, unsigned short*)
 .text._ZN10MixerGroup15groups_requiredERj
                0x0000000008003fe0       0x1c CMakeFiles/px4io-v2.dir/__/systemlib/mixer/mixer_group.cpp.obj
                0x0000000008003fe0                MixerGroup::groups_required(unsigned int&)
 .text._ZN10MixerGroupD0Ev
                0x0000000008003ffc       0x2c CMakeFiles/px4io-v2.dir/__/systemlib/mixer/mixer_group.cpp.obj
                0x0000000008003ffc                MixerGroup::~MixerGroup()
 .text._ZN10MixerGroupC2EPFijhhRfEj
                0x0000000008004028       0x18 CMakeFiles/px4io-v2.dir/__/systemlib/mixer/mixer_group.cpp.obj
                0x0000000008004028                MixerGroup::MixerGroup(int (*)(unsigned int, unsigned char, unsigned char, float&), unsigned int)
                0x0000000008004028                MixerGroup::MixerGroup(int (*)(unsigned int, unsigned char, unsigned char, float&), unsigned int)
 .text._ZN10MixerGroup9add_mixerEP5Mixer
                0x0000000008004040       0x20 CMakeFiles/px4io-v2.dir/__/systemlib/mixer/mixer_group.cpp.obj
                0x0000000008004040                MixerGroup::add_mixer(Mixer*)
 .text._ZN10MixerGroup5resetEv
                0x0000000008004060       0x1c CMakeFiles/px4io-v2.dir/__/systemlib/mixer/mixer_group.cpp.obj
                0x0000000008004060                MixerGroup::reset()
 .text._ZN10MixerGroup5countEv
                0x000000000800407c       0x14 CMakeFiles/px4io-v2.dir/__/systemlib/mixer/mixer_group.cpp.obj
                0x000000000800407c                MixerGroup::count()
 .text._ZN10MixerGroup13load_from_bufEPKcRj
                0x0000000008004090       0x90 CMakeFiles/px4io-v2.dir/__/systemlib/mixer/mixer_group.cpp.obj
                0x0000000008004090                MixerGroup::load_from_buf(char const*, unsigned int&)
 .text          0x0000000008004120        0x0 CMakeFiles/px4io-v2.dir/__/systemlib/mixer/mixer_multirotor.cpp.obj
 .text._ZN15MultirotorMixerD2Ev
                0x0000000008004120        0x4 CMakeFiles/px4io-v2.dir/__/systemlib/mixer/mixer_multirotor.cpp.obj
                0x0000000008004120                MultirotorMixer::~MultirotorMixer()
                0x0000000008004120                MultirotorMixer::~MultirotorMixer()
 .text._ZN15MultirotorMixer15groups_requiredERj
                0x0000000008004124        0xc CMakeFiles/px4io-v2.dir/__/systemlib/mixer/mixer_multirotor.cpp.obj
                0x0000000008004124                MultirotorMixer::groups_required(unsigned int&)
 .text._ZN15MultirotorMixerD0Ev
                0x0000000008004130        0xc CMakeFiles/px4io-v2.dir/__/systemlib/mixer/mixer_multirotor.cpp.obj
                0x0000000008004130                MultirotorMixer::~MultirotorMixer()
 .text._ZN15MultirotorMixer3mixEPfjPt
                0x000000000800413c      0x708 CMakeFiles/px4io-v2.dir/__/systemlib/mixer/mixer_multirotor.cpp.obj
                0x000000000800413c                MultirotorMixer::mix(float*, unsigned int, unsigned short*)
 .text._ZN15MultirotorMixerC2EPFijhhRfEj18MultirotorGeometryffff
                0x0000000008004844       0x58 CMakeFiles/px4io-v2.dir/__/systemlib/mixer/mixer_multirotor.cpp.obj
                0x0000000008004844                MultirotorMixer::MultirotorMixer(int (*)(unsigned int, unsigned char, unsigned char, float&), unsigned int, MultirotorGeometry, float, float, float, float)
                0x0000000008004844                MultirotorMixer::MultirotorMixer(int (*)(unsigned int, unsigned char, unsigned char, float&), unsigned int, MultirotorGeometry, float, float, float, float)
 .text._ZN15MultirotorMixer9from_textEPFijhhRfEjPKcRj
                0x000000000800489c      0x220 CMakeFiles/px4io-v2.dir/__/systemlib/mixer/mixer_multirotor.cpp.obj
                0x000000000800489c                MultirotorMixer::from_text(int (*)(unsigned int, unsigned char, unsigned char, float&), unsigned int, char const*, unsigned int&)
 .text          0x0000000008004abc        0x0 CMakeFiles/px4io-v2.dir/__/systemlib/mixer/mixer_simple.cpp.obj
 .text._ZN11SimpleMixer15groups_requiredERj
                0x0000000008004abc       0x30 CMakeFiles/px4io-v2.dir/__/systemlib/mixer/mixer_simple.cpp.obj
                0x0000000008004abc                SimpleMixer::groups_required(unsigned int&)
 .text._ZN11SimpleMixerD2Ev
                0x0000000008004aec       0x18 CMakeFiles/px4io-v2.dir/__/systemlib/mixer/mixer_simple.cpp.obj
                0x0000000008004aec                SimpleMixer::~SimpleMixer()
                0x0000000008004aec                SimpleMixer::~SimpleMixer()
 .text._ZN11SimpleMixerD0Ev
                0x0000000008004b04       0x20 CMakeFiles/px4io-v2.dir/__/systemlib/mixer/mixer_simple.cpp.obj
                0x0000000008004b04                SimpleMixer::~SimpleMixer()
 .text._ZN11SimpleMixer3mixEPfjPt
                0x0000000008004b24       0x78 CMakeFiles/px4io-v2.dir/__/systemlib/mixer/mixer_simple.cpp.obj
                0x0000000008004b24                SimpleMixer::mix(float*, unsigned int, unsigned short*)
 .text._ZN11SimpleMixerC2EPFijhhRfEjP14mixer_simple_s
                0x0000000008004b9c       0x18 CMakeFiles/px4io-v2.dir/__/systemlib/mixer/mixer_simple.cpp.obj
                0x0000000008004b9c                SimpleMixer::SimpleMixer(int (*)(unsigned int, unsigned char, unsigned char, float&), unsigned int, mixer_simple_s*)
                0x0000000008004b9c                SimpleMixer::SimpleMixer(int (*)(unsigned int, unsigned char, unsigned char, float&), unsigned int, mixer_simple_s*)
 .text._ZN11SimpleMixer19parse_output_scalerEPKcRjR14mixer_scaler_s
                0x0000000008004bb4       0xa8 CMakeFiles/px4io-v2.dir/__/systemlib/mixer/mixer_simple.cpp.obj
                0x0000000008004bb4                SimpleMixer::parse_output_scaler(char const*, unsigned int&, mixer_scaler_s&)
 .text._ZN11SimpleMixer20parse_control_scalerEPKcRjR14mixer_scaler_sRhS5_
                0x0000000008004c5c       0xb8 CMakeFiles/px4io-v2.dir/__/systemlib/mixer/mixer_simple.cpp.obj
                0x0000000008004c5c                SimpleMixer::parse_control_scaler(char const*, unsigned int&, mixer_scaler_s&, unsigned char&, unsigned char&)
 .text._ZN11SimpleMixer9from_textEPFijhhRfEjPKcRj
                0x0000000008004d14       0xb4 CMakeFiles/px4io-v2.dir/__/systemlib/mixer/mixer_simple.cpp.obj
                0x0000000008004d14                SimpleMixer::from_text(int (*)(unsigned int, unsigned char, unsigned char, float&), unsigned int, char const*, unsigned int&)
 .text._ZN11SimpleMixer9pwm_inputEPFijhhRfEjjttt
                0x0000000008004dc8       0xa4 CMakeFiles/px4io-v2.dir/__/systemlib/mixer/mixer_simple.cpp.obj
                0x0000000008004dc8                SimpleMixer::pwm_input(int (*)(unsigned int, unsigned char, unsigned char, float&), unsigned int, unsigned int, unsigned short, unsigned short, unsigned short)
 .text._ZN11SimpleMixer5checkEv
                0x0000000008004e6c       0x78 CMakeFiles/px4io-v2.dir/__/systemlib/mixer/mixer_simple.cpp.obj
                0x0000000008004e6c                SimpleMixer::check()
 .text          0x0000000008004ee4        0x0 CMakeFiles/px4io-v2.dir/__/systemlib/pwm_limit/pwm_limit.c.obj
 .text.pwm_limit_init
                0x0000000008004ee4       0x10 CMakeFiles/px4io-v2.dir/__/systemlib/pwm_limit/pwm_limit.c.obj
                0x0000000008004ee4                pwm_limit_init
 *fill*         0x0000000008004ef4        0x4 
 .text.pwm_limit_calc
                0x0000000008004ef8      0x2bc CMakeFiles/px4io-v2.dir/__/systemlib/pwm_limit/pwm_limit.c.obj
                0x0000000008004ef8                pwm_limit_calc
 .text          0x00000000080051b4        0x0 CMakeFiles/px4io-v2.dir/__/__/lib/rc/st24.c.obj
 .text.st24_common_crc8
                0x00000000080051b4       0x44 CMakeFiles/px4io-v2.dir/__/__/lib/rc/st24.c.obj
                0x00000000080051b4                st24_common_crc8
 .text.st24_decode
                0x00000000080051f8      0x218 CMakeFiles/px4io-v2.dir/__/__/lib/rc/st24.c.obj
                0x00000000080051f8                st24_decode
 .text          0x0000000008005410        0x0 CMakeFiles/px4io-v2.dir/__/__/lib/rc/sumd.c.obj
 .text.sumd_crc16
                0x0000000008005410       0x20 CMakeFiles/px4io-v2.dir/__/__/lib/rc/sumd.c.obj
                0x0000000008005410                sumd_crc16
 .text.sumd_crc8
                0x0000000008005430        0x8 CMakeFiles/px4io-v2.dir/__/__/lib/rc/sumd.c.obj
                0x0000000008005430                sumd_crc8
 .text.sumd_decode
                0x0000000008005438      0x4d0 CMakeFiles/px4io-v2.dir/__/__/lib/rc/sumd.c.obj
                0x0000000008005438                sumd_decode
 .text          0x0000000008005908        0x0 CMakeFiles/px4io-v2.dir/__/__/drivers/stm32/drv_hrt.c.obj
 .text.hrt_absolute_time
                0x0000000008005908       0x4c CMakeFiles/px4io-v2.dir/__/__/drivers/stm32/drv_hrt.c.obj
                0x0000000008005908                hrt_absolute_time
 .text.hrt_call_reschedule
                0x0000000008005954       0x58 CMakeFiles/px4io-v2.dir/__/__/drivers/stm32/drv_hrt.c.obj
 .text.hrt_call_enter
                0x00000000080059ac       0x50 CMakeFiles/px4io-v2.dir/__/__/drivers/stm32/drv_hrt.c.obj
 .text.hrt_call_internal
                0x00000000080059fc       0x4c CMakeFiles/px4io-v2.dir/__/__/drivers/stm32/drv_hrt.c.obj
 .text.hrt_tim_isr
                0x0000000008005a48      0x21c CMakeFiles/px4io-v2.dir/__/__/drivers/stm32/drv_hrt.c.obj
 .text.ts_to_abstime
                0x0000000008005c64       0x28 CMakeFiles/px4io-v2.dir/__/__/drivers/stm32/drv_hrt.c.obj
                0x0000000008005c64                ts_to_abstime
 .text.abstime_to_ts
                0x0000000008005c8c       0x30 CMakeFiles/px4io-v2.dir/__/__/drivers/stm32/drv_hrt.c.obj
                0x0000000008005c8c                abstime_to_ts
 .text.hrt_elapsed_time
                0x0000000008005cbc       0x24 CMakeFiles/px4io-v2.dir/__/__/drivers/stm32/drv_hrt.c.obj
                0x0000000008005cbc                hrt_elapsed_time
 .text.hrt_store_absolute_time
                0x0000000008005ce0       0x18 CMakeFiles/px4io-v2.dir/__/__/drivers/stm32/drv_hrt.c.obj
                0x0000000008005ce0                hrt_store_absolute_time
 .text.hrt_init
                0x0000000008005cf8       0xcc CMakeFiles/px4io-v2.dir/__/__/drivers/stm32/drv_hrt.c.obj
                0x0000000008005cf8                hrt_init
 .text.hrt_call_after
                0x0000000008005dc4       0x38 CMakeFiles/px4io-v2.dir/__/__/drivers/stm32/drv_hrt.c.obj
                0x0000000008005dc4                hrt_call_after
 .text.hrt_call_at
                0x0000000008005dfc       0x1c CMakeFiles/px4io-v2.dir/__/__/drivers/stm32/drv_hrt.c.obj
                0x0000000008005dfc                hrt_call_at
 .text.hrt_call_every
                0x0000000008005e18       0x38 CMakeFiles/px4io-v2.dir/__/__/drivers/stm32/drv_hrt.c.obj
                0x0000000008005e18                hrt_call_every
 .text.hrt_called
                0x0000000008005e50       0x10 CMakeFiles/px4io-v2.dir/__/__/drivers/stm32/drv_hrt.c.obj
                0x0000000008005e50                hrt_called
 .text.hrt_cancel
                0x0000000008005e60       0x2c CMakeFiles/px4io-v2.dir/__/__/drivers/stm32/drv_hrt.c.obj
                0x0000000008005e60                hrt_cancel
 .text.hrt_call_init
                0x0000000008005e8c        0x8 CMakeFiles/px4io-v2.dir/__/__/drivers/stm32/drv_hrt.c.obj
                0x0000000008005e8c                hrt_call_init
 .text.hrt_call_delay
                0x0000000008005e94       0x18 CMakeFiles/px4io-v2.dir/__/__/drivers/stm32/drv_hrt.c.obj
                0x0000000008005e94                hrt_call_delay
 .text          0x0000000008005eac        0x0 CMakeFiles/px4io-v2.dir/__/__/drivers/stm32/drv_pwm_servo.c.obj
 .text.up_pwm_servo_set
                0x0000000008005eac       0x68 CMakeFiles/px4io-v2.dir/__/__/drivers/stm32/drv_pwm_servo.c.obj
                0x0000000008005eac                up_pwm_servo_set
 .text.up_pwm_servo_get
                0x0000000008005f14       0x5c CMakeFiles/px4io-v2.dir/__/__/drivers/stm32/drv_pwm_servo.c.obj
                0x0000000008005f14                up_pwm_servo_get
 .text.up_pwm_servo_init
                0x0000000008005f70      0x13c CMakeFiles/px4io-v2.dir/__/__/drivers/stm32/drv_pwm_servo.c.obj
                0x0000000008005f70                up_pwm_servo_init
 .text.up_pwm_servo_set_rate_group_update
                0x00000000080060ac       0x40 CMakeFiles/px4io-v2.dir/__/__/drivers/stm32/drv_pwm_servo.c.obj
                0x00000000080060ac                up_pwm_servo_set_rate_group_update
 .text.up_pwm_servo_set_rate
                0x00000000080060ec       0x34 CMakeFiles/px4io-v2.dir/__/__/drivers/stm32/drv_pwm_servo.c.obj
                0x00000000080060ec                up_pwm_servo_set_rate
 .text.up_pwm_servo_get_rate_group
                0x0000000008006120       0x34 CMakeFiles/px4io-v2.dir/__/__/drivers/stm32/drv_pwm_servo.c.obj
                0x0000000008006120                up_pwm_servo_get_rate_group
 .text.up_pwm_servo_arm
                0x0000000008006154       0x2c CMakeFiles/px4io-v2.dir/__/__/drivers/stm32/drv_pwm_servo.c.obj
                0x0000000008006154                up_pwm_servo_arm
 .text.up_pwm_servo_deinit
                0x0000000008006180        0x8 CMakeFiles/px4io-v2.dir/__/__/drivers/stm32/drv_pwm_servo.c.obj
                0x0000000008006180                up_pwm_servo_deinit
 .text          0x0000000008006188        0x0 CMakeFiles/px4io-v2.dir/__/__/drivers/boards/px4io-v2/px4io_init.c.obj
 .text.stm32_boardinitialize
                0x0000000008006188      0x110 CMakeFiles/px4io-v2.dir/__/__/drivers/boards/px4io-v2/px4io_init.c.obj
                0x0000000008006188                stm32_boardinitialize
 .text          0x0000000008006298        0x0 CMakeFiles/px4io-v2.dir/__/__/drivers/boards/px4io-v2/px4io_pwm_servo.c.obj
 .text          0x0000000008006298        0x0 CMakeFiles/px4io-v2.dir/serial.c.obj
 .text.dma_reset
                0x0000000008006298       0x70 CMakeFiles/px4io-v2.dir/serial.c.obj
 .text.rx_dma_callback
                0x0000000008006308      0x15c CMakeFiles/px4io-v2.dir/serial.c.obj
 .text.serial_interrupt
                0x0000000008006464       0xe4 CMakeFiles/px4io-v2.dir/serial.c.obj
 .text.interface_init
                0x0000000008006548      0x13c CMakeFiles/px4io-v2.dir/serial.c.obj
                0x0000000008006548                interface_init
 .text          0x0000000008006684        0x0 CMakeFiles/px4io-v2.dir/__/systemlib/hx_stream.c.obj
 .text.hx_stream_init
                0x0000000008006684       0x24 CMakeFiles/px4io-v2.dir/__/systemlib/hx_stream.c.obj
                0x0000000008006684                hx_stream_init
 .text.hx_stream_free
                0x00000000080066a8       0x20 CMakeFiles/px4io-v2.dir/__/systemlib/hx_stream.c.obj
                0x00000000080066a8                hx_stream_free
 .text.hx_stream_set_counters
                0x00000000080066c8        0x8 CMakeFiles/px4io-v2.dir/__/systemlib/hx_stream.c.obj
                0x00000000080066c8                hx_stream_set_counters
 .text.hx_stream_reset
                0x00000000080066d0       0x14 CMakeFiles/px4io-v2.dir/__/systemlib/hx_stream.c.obj
                0x00000000080066d0                hx_stream_reset
 .text.hx_stream_start
                0x00000000080066e4       0x2c CMakeFiles/px4io-v2.dir/__/systemlib/hx_stream.c.obj
                0x00000000080066e4                hx_stream_start
 .text.hx_stream_send_next
                0x0000000008006710       0x80 CMakeFiles/px4io-v2.dir/__/systemlib/hx_stream.c.obj
                0x0000000008006710                hx_stream_send_next
 .text.hx_stream_send
                0x0000000008006790       0x6c CMakeFiles/px4io-v2.dir/__/systemlib/hx_stream.c.obj
                0x0000000008006790                hx_stream_send
 .text.hx_stream_rx
                0x00000000080067fc       0x90 CMakeFiles/px4io-v2.dir/__/systemlib/hx_stream.c.obj
                0x00000000080067fc                hx_stream_rx
 .text          0x000000000800688c        0x0 /home/einar/px4_firmware/src/Firmware/build_px4fmu-v2_default/px4io-v2/NuttX/nuttx-export/libs/libnuttx.a(sched-irq_attach.o)
 .text.irq_attach
                0x000000000800688c       0x38 /home/einar/px4_firmware/src/Firmware/build_px4fmu-v2_default/px4io-v2/NuttX/nuttx-export/libs/libnuttx.a(sched-irq_attach.o)
                0x000000000800688c                irq_attach
 .text          0x00000000080068c4        0x0 /home/einar/px4_firmware/src/Firmware/build_px4fmu-v2_default/px4io-v2/NuttX/nuttx-export/libs/libnuttx.a(sched-irq_initialize.o)
 .text.irq_initialize
                0x00000000080068c4       0x1c /home/einar/px4_firmware/src/Firmware/build_px4fmu-v2_default/px4io-v2/NuttX/nuttx-export/libs/libnuttx.a(sched-irq_initialize.o)
                0x00000000080068c4                irq_initialize
 .text          0x00000000080068e0        0x0 /home/einar/px4_firmware/src/Firmware/build_px4fmu-v2_default/px4io-v2/NuttX/nuttx-export/libs/libnuttx.a(sched-irq_unexpectedisr.o)
 .text.irq_unexpected_isr
                0x00000000080068e0       0x14 /home/einar/px4_firmware/src/Firmware/build_px4fmu-v2_default/px4io-v2/NuttX/nuttx-export/libs/libnuttx.a(sched-irq_unexpectedisr.o)
                0x00000000080068e0                irq_unexpected_isr
 .text          0x00000000080068f4        0x0 /home/einar/px4_firmware/src/Firmware/build_px4fmu-v2_default/px4io-v2/NuttX/nuttx-export/libs/libnuttx.a(c-lib_abort.o)
 .text.abort    0x00000000080068f4        0x8 /home/einar/px4_firmware/src/Firmware/build_px4fmu-v2_default/px4io-v2/NuttX/nuttx-export/libs/libnuttx.a(c-lib_abort.o)
                0x00000000080068f4                abort
 .text          0x00000000080068fc        0x0 /home/einar/px4_firmware/src/Firmware/build_px4fmu-v2_default/px4io-v2/NuttX/nuttx-export/libs/libnuttx.a(c-lib_cfsetspeed.o)
 .text.cfsetspeed
                0x00000000080068fc        0x6 /home/einar/px4_firmware/src/Firmware/build_px4fmu-v2_default/px4io-v2/NuttX/nuttx-export/libs/libnuttx.a(c-lib_cfsetspeed.o)
                0x00000000080068fc                cfsetspeed
 .text          0x0000000008006902        0x0 /home/einar/px4_firmware/src/Firmware/build_px4fmu-v2_default/px4io-v2/NuttX/nuttx-export/libs/libnuttx.a(c-lib_crc32.o)
 *fill*         0x0000000008006902        0x2 
 .text.crc32part
                0x0000000008006904       0x24 /home/einar/px4_firmware/src/Firmware/build_px4fmu-v2_default/px4io-v2/NuttX/nuttx-export/libs/libnuttx.a(c-lib_crc32.o)
                0x0000000008006904                crc32part
 .text.crc32    0x0000000008006928        0x6 /home/einar/px4_firmware/src/Firmware/build_px4fmu-v2_default/px4io-v2/NuttX/nuttx-export/libs/libnuttx.a(c-lib_crc32.o)
                0x0000000008006928                crc32
 .text          0x000000000800692e        0x0 /home/einar/px4_firmware/src/Firmware/build_px4fmu-v2_default/px4io-v2/NuttX/nuttx-export/libs/libnuttx.a(c-lib_dprintf.o)
 .text.dprintf  0x000000000800692e       0x1a /home/einar/px4_firmware/src/Firmware/build_px4fmu-v2_default/px4io-v2/NuttX/nuttx-export/libs/libnuttx.a(c-lib_dprintf.o)
                0x000000000800692e                dprintf
 .text          0x0000000008006948        0x0 /home/einar/px4_firmware/src/Firmware/build_px4fmu-v2_default/px4io-v2/NuttX/nuttx-export/libs/libnuttx.a(c-lib_lowsyslog.o)
 .text.lowvsyslog
                0x0000000008006948       0x1a /home/einar/px4_firmware/src/Firmware/build_px4fmu-v2_default/px4io-v2/NuttX/nuttx-export/libs/libnuttx.a(c-lib_lowsyslog.o)
                0x0000000008006948                lowvsyslog
 .text.lowsyslog
                0x0000000008006962       0x1a /home/einar/px4_firmware/src/Firmware/build_px4fmu-v2_default/px4io-v2/NuttX/nuttx-export/libs/libnuttx.a(c-lib_lowsyslog.o)
                0x0000000008006962                lowsyslog
 .text          0x000000000800697c        0x0 /home/einar/px4_firmware/src/Firmware/build_px4fmu-v2_default/px4io-v2/NuttX/nuttx-export/libs/libnuttx.a(c-lib_memchr.o)
 .text.memchr   0x000000000800697c       0x1e /home/einar/px4_firmware/src/Firmware/build_px4fmu-v2_default/px4io-v2/NuttX/nuttx-export/libs/libnuttx.a(c-lib_memchr.o)
                0x000000000800697c                memchr
 .text          0x000000000800699a        0x0 /home/einar/px4_firmware/src/Firmware/build_px4fmu-v2_default/px4io-v2/NuttX/nuttx-export/libs/libnuttx.a(c-lib_memcpy.o)
 .text.memcpy   0x000000000800699a       0x16 /home/einar/px4_firmware/src/Firmware/build_px4fmu-v2_default/px4io-v2/NuttX/nuttx-export/libs/libnuttx.a(c-lib_memcpy.o)
                0x000000000800699a                memcpy
 .text          0x00000000080069b0        0x0 /home/einar/px4_firmware/src/Firmware/build_px4fmu-v2_default/px4io-v2/NuttX/nuttx-export/libs/libnuttx.a(c-lib_memset.o)
 .text.memset   0x00000000080069b0       0x10 /home/einar/px4_firmware/src/Firmware/build_px4fmu-v2_default/px4io-v2/NuttX/nuttx-export/libs/libnuttx.a(c-lib_memset.o)
                0x00000000080069b0                memset
 .text          0x00000000080069c0        0x0 /home/einar/px4_firmware/src/Firmware/build_px4fmu-v2_default/px4io-v2/NuttX/nuttx-export/libs/libnuttx.a(c-lib_printf.o)
 .text.printf   0x00000000080069c0       0x1a /home/einar/px4_firmware/src/Firmware/build_px4fmu-v2_default/px4io-v2/NuttX/nuttx-export/libs/libnuttx.a(c-lib_printf.o)
                0x00000000080069c0                printf
 .text          0x00000000080069da        0x0 /home/einar/px4_firmware/src/Firmware/build_px4fmu-v2_default/px4io-v2/NuttX/nuttx-export/libs/libnuttx.a(c-lib_sscanf.o)
 *fill*         0x00000000080069da        0x2 
 .text.findwidth
                0x00000000080069dc       0x34 /home/einar/px4_firmware/src/Firmware/build_px4fmu-v2_default/px4io-v2/NuttX/nuttx-export/libs/libnuttx.a(c-lib_sscanf.o)
 .text.vsscanf  0x0000000008006a10      0x314 /home/einar/px4_firmware/src/Firmware/build_px4fmu-v2_default/px4io-v2/NuttX/nuttx-export/libs/libnuttx.a(c-lib_sscanf.o)
                0x0000000008006a10                vsscanf
 .text.sscanf   0x0000000008006d24       0x1a /home/einar/px4_firmware/src/Firmware/build_px4fmu-v2_default/px4io-v2/NuttX/nuttx-export/libs/libnuttx.a(c-lib_sscanf.o)
                0x0000000008006d24                sscanf
 .text          0x0000000008006d3e        0x0 /home/einar/px4_firmware/src/Firmware/build_px4fmu-v2_default/px4io-v2/NuttX/nuttx-export/libs/libnuttx.a(c-lib_strchr.o)
 .text.strchr   0x0000000008006d3e       0x16 /home/einar/px4_firmware/src/Firmware/build_px4fmu-v2_default/px4io-v2/NuttX/nuttx-export/libs/libnuttx.a(c-lib_strchr.o)
                0x0000000008006d3e                strchr
 .text          0x0000000008006d54        0x0 /home/einar/px4_firmware/src/Firmware/build_px4fmu-v2_default/px4io-v2/NuttX/nuttx-export/libs/libnuttx.a(c-lib_strcmp.o)
 .text.strcmp   0x0000000008006d54       0x1a /home/einar/px4_firmware/src/Firmware/build_px4fmu-v2_default/px4io-v2/NuttX/nuttx-export/libs/libnuttx.a(c-lib_strcmp.o)
                0x0000000008006d54                strcmp
 .text          0x0000000008006d6e        0x0 /home/einar/px4_firmware/src/Firmware/build_px4fmu-v2_default/px4io-v2/NuttX/nuttx-export/libs/libnuttx.a(c-lib_strcspn.o)
 .text.strcspn  0x0000000008006d6e       0x1e /home/einar/px4_firmware/src/Firmware/build_px4fmu-v2_default/px4io-v2/NuttX/nuttx-export/libs/libnuttx.a(c-lib_strcspn.o)
                0x0000000008006d6e                strcspn
 .text          0x0000000008006d8c        0x0 /home/einar/px4_firmware/src/Firmware/build_px4fmu-v2_default/px4io-v2/NuttX/nuttx-export/libs/libnuttx.a(c-lib_strncpy.o)
 .text.strncpy  0x0000000008006d8c       0x24 /home/einar/px4_firmware/src/Firmware/build_px4fmu-v2_default/px4io-v2/NuttX/nuttx-export/libs/libnuttx.a(c-lib_strncpy.o)
                0x0000000008006d8c                strncpy
 .text          0x0000000008006db0        0x0 /home/einar/px4_firmware/src/Firmware/build_px4fmu-v2_default/px4io-v2/NuttX/nuttx-export/libs/libnuttx.a(c-lib_strtol.o)
 .text.strtol   0x0000000008006db0       0x3c /home/einar/px4_firmware/src/Firmware/build_px4fmu-v2_default/px4io-v2/NuttX/nuttx-export/libs/libnuttx.a(c-lib_strtol.o)
                0x0000000008006db0                strtol
 .text          0x0000000008006dec        0x0 /home/einar/px4_firmware/src/Firmware/build_px4fmu-v2_default/px4io-v2/NuttX/nuttx-export/libs/libnuttx.a(c-lib_strtoul.o)
 .text.strtoul  0x0000000008006dec       0x48 /home/einar/px4_firmware/src/Firmware/build_px4fmu-v2_default/px4io-v2/NuttX/nuttx-export/libs/libnuttx.a(c-lib_strtoul.o)
                0x0000000008006dec                strtoul
 .text          0x0000000008006e34        0x0 /home/einar/px4_firmware/src/Firmware/build_px4fmu-v2_default/px4io-v2/NuttX/nuttx-export/libs/libnuttx.a(c-lib_syslog.o)
 .text.vsyslog  0x0000000008006e34       0x1e /home/einar/px4_firmware/src/Firmware/build_px4fmu-v2_default/px4io-v2/NuttX/nuttx-export/libs/libnuttx.a(c-lib_syslog.o)
                0x0000000008006e34                vsyslog
 .text.syslog   0x0000000008006e52       0x1a /home/einar/px4_firmware/src/Firmware/build_px4fmu-v2_default/px4io-v2/NuttX/nuttx-export/libs/libnuttx.a(c-lib_syslog.o)
                0x0000000008006e52                syslog
 .text          0x0000000008006e6c        0x0 /home/einar/px4_firmware/src/Firmware/build_px4fmu-v2_default/px4io-v2/NuttX/nuttx-export/libs/libnuttx.a(c-lib_tcgetattr.o)
 .text.tcgetattr
                0x0000000008006e6c        0xa /home/einar/px4_firmware/src/Firmware/build_px4fmu-v2_default/px4io-v2/NuttX/nuttx-export/libs/libnuttx.a(c-lib_tcgetattr.o)
                0x0000000008006e6c                tcgetattr
 .text          0x0000000008006e76        0x0 /home/einar/px4_firmware/src/Firmware/build_px4fmu-v2_default/px4io-v2/NuttX/nuttx-export/libs/libnuttx.a(c-lib_tcsetattr.o)
 .text.tcsetattr
                0x0000000008006e76       0x10 /home/einar/px4_firmware/src/Firmware/build_px4fmu-v2_default/px4io-v2/NuttX/nuttx-export/libs/libnuttx.a(c-lib_tcsetattr.o)
                0x0000000008006e76                tcsetattr
 .text          0x0000000008006e86        0x0 /home/einar/px4_firmware/src/Firmware/build_px4fmu-v2_default/px4io-v2/NuttX/nuttx-export/libs/libnuttx.a(c-lib_vdprintf.o)
 .text.vdprintf
                0x0000000008006e86       0x20 /home/einar/px4_firmware/src/Firmware/build_px4fmu-v2_default/px4io-v2/NuttX/nuttx-export/libs/libnuttx.a(c-lib_vdprintf.o)
                0x0000000008006e86                vdprintf
 .text          0x0000000008006ea6        0x0 /home/einar/px4_firmware/src/Firmware/build_px4fmu-v2_default/px4io-v2/NuttX/nuttx-export/libs/libnuttx.a(c-lib_vsnprintf.o)
 .text.vsnprintf
                0x0000000008006ea6       0x24 /home/einar/px4_firmware/src/Firmware/build_px4fmu-v2_default/px4io-v2/NuttX/nuttx-export/libs/libnuttx.a(c-lib_vsnprintf.o)
                0x0000000008006ea6                vsnprintf
 .text          0x0000000008006eca        0x0 /home/einar/px4_firmware/src/Firmware/build_px4fmu-v2_default/px4io-v2/NuttX/nuttx-export/libs/libnuttx.a(c-sq_addafter.o)
 .text.sq_addafter
                0x0000000008006eca       0x1c /home/einar/px4_firmware/src/Firmware/build_px4fmu-v2_default/px4io-v2/NuttX/nuttx-export/libs/libnuttx.a(c-sq_addafter.o)
                0x0000000008006eca                sq_addafter
 .text          0x0000000008006ee6        0x0 /home/einar/px4_firmware/src/Firmware/build_px4fmu-v2_default/px4io-v2/NuttX/nuttx-export/libs/libnuttx.a(c-sq_addfirst.o)
 .text.sq_addfirst
                0x0000000008006ee6        0xe /home/einar/px4_firmware/src/Firmware/build_px4fmu-v2_default/px4io-v2/NuttX/nuttx-export/libs/libnuttx.a(c-sq_addfirst.o)
                0x0000000008006ee6                sq_addfirst
 .text          0x0000000008006ef4        0x0 /home/einar/px4_firmware/src/Firmware/build_px4fmu-v2_default/px4io-v2/NuttX/nuttx-export/libs/libnuttx.a(c-sq_addlast.o)
 .text.sq_addlast
                0x0000000008006ef4       0x14 /home/einar/px4_firmware/src/Firmware/build_px4fmu-v2_default/px4io-v2/NuttX/nuttx-export/libs/libnuttx.a(c-sq_addlast.o)
                0x0000000008006ef4                sq_addlast
 .text          0x0000000008006f08        0x0 /home/einar/px4_firmware/src/Firmware/build_px4fmu-v2_default/px4io-v2/NuttX/nuttx-export/libs/libnuttx.a(c-sq_rem.o)
 .text.sq_rem   0x0000000008006f08       0x2c /home/einar/px4_firmware/src/Firmware/build_px4fmu-v2_default/px4io-v2/NuttX/nuttx-export/libs/libnuttx.a(c-sq_rem.o)
                0x0000000008006f08                sq_rem
 .text          0x0000000008006f34        0x0 /home/einar/px4_firmware/src/Firmware/build_px4fmu-v2_default/px4io-v2/NuttX/nuttx-export/libs/libnuttx.a(mm-mm_calloc.o)
 .text.calloc   0x0000000008006f34        0xe /home/einar/px4_firmware/src/Firmware/build_px4fmu-v2_default/px4io-v2/NuttX/nuttx-export/libs/libnuttx.a(mm-mm_calloc.o)
                0x0000000008006f34                calloc
 .text          0x0000000008006f42        0x0 /home/einar/px4_firmware/src/Firmware/build_px4fmu-v2_default/px4io-v2/NuttX/nuttx-export/libs/libnuttx.a(mm-mm_free.o)
 *fill*         0x0000000008006f42        0x2 
 .text.free     0x0000000008006f44       0xa8 /home/einar/px4_firmware/src/Firmware/build_px4fmu-v2_default/px4io-v2/NuttX/nuttx-export/libs/libnuttx.a(mm-mm_free.o)
                0x0000000008006f44                free
 .text          0x0000000008006fec        0x0 /home/einar/px4_firmware/src/Firmware/build_px4fmu-v2_default/px4io-v2/NuttX/nuttx-export/libs/libnuttx.a(mm-mm_mallinfo.o)
 .text.mallinfo
                0x0000000008006fec       0x5c /home/einar/px4_firmware/src/Firmware/build_px4fmu-v2_default/px4io-v2/NuttX/nuttx-export/libs/libnuttx.a(mm-mm_mallinfo.o)
                0x0000000008006fec                mallinfo
 .text          0x0000000008007048        0x0 /home/einar/px4_firmware/src/Firmware/build_px4fmu-v2_default/px4io-v2/NuttX/nuttx-export/libs/libnuttx.a(mm-mm_malloc.o)
 .text.malloc   0x0000000008007048       0x94 /home/einar/px4_firmware/src/Firmware/build_px4fmu-v2_default/px4io-v2/NuttX/nuttx-export/libs/libnuttx.a(mm-mm_malloc.o)
                0x0000000008007048                malloc
 .text          0x00000000080070dc        0x0 /home/einar/px4_firmware/src/Firmware/build_px4fmu-v2_default/px4io-v2/NuttX/nuttx-export/libs/libnuttx.a(mm-mm_sem.o)
 .text.mm_seminitialize
                0x00000000080070dc       0x18 /home/einar/px4_firmware/src/Firmware/build_px4fmu-v2_default/px4io-v2/NuttX/nuttx-export/libs/libnuttx.a(mm-mm_sem.o)
                0x00000000080070dc                mm_seminitialize
 .text.mm_trysemaphore
                0x00000000080070f4       0x32 /home/einar/px4_firmware/src/Firmware/build_px4fmu-v2_default/px4io-v2/NuttX/nuttx-export/libs/libnuttx.a(mm-mm_sem.o)
                0x00000000080070f4                mm_trysemaphore
 *fill*         0x0000000008007126        0x2 
 .text.mm_takesemaphore
                0x0000000008007128       0x40 /home/einar/px4_firmware/src/Firmware/build_px4fmu-v2_default/px4io-v2/NuttX/nuttx-export/libs/libnuttx.a(mm-mm_sem.o)
                0x0000000008007128                mm_takesemaphore
 .text.mm_givesemaphore
                0x0000000008007168       0x2c /home/einar/px4_firmware/src/Firmware/build_px4fmu-v2_default/px4io-v2/NuttX/nuttx-export/libs/libnuttx.a(mm-mm_sem.o)
                0x0000000008007168                mm_givesemaphore
 .text          0x0000000008007194        0x0 /home/einar/px4_firmware/src/Firmware/build_px4fmu-v2_default/px4io-v2/NuttX/nuttx-export/libs/libnuttx.a(mm-mm_size2ndx.o)
 .text.mm_size2ndx
                0x0000000008007194       0x1a /home/einar/px4_firmware/src/Firmware/build_px4fmu-v2_default/px4io-v2/NuttX/nuttx-export/libs/libnuttx.a(mm-mm_size2ndx.o)
                0x0000000008007194                mm_size2ndx
 .text          0x00000000080071ae        0x0 /home/einar/px4_firmware/src/Firmware/build_px4fmu-v2_default/px4io-v2/NuttX/nuttx-export/libs/libnuttx.a(mm-mm_user.o)
 *fill*         0x00000000080071ae        0x2 
 .text.umm_initialize
                0x00000000080071b0       0x10 /home/einar/px4_firmware/src/Firmware/build_px4fmu-v2_default/px4io-v2/NuttX/nuttx-export/libs/libnuttx.a(mm-mm_user.o)
                0x00000000080071b0                umm_initialize
 .text.umm_addregion
                0x00000000080071c0       0x10 /home/einar/px4_firmware/src/Firmware/build_px4fmu-v2_default/px4io-v2/NuttX/nuttx-export/libs/libnuttx.a(mm-mm_user.o)
                0x00000000080071c0                umm_addregion
 .text.umm_trysemaphore
                0x00000000080071d0        0xc /home/einar/px4_firmware/src/Firmware/build_px4fmu-v2_default/px4io-v2/NuttX/nuttx-export/libs/libnuttx.a(mm-mm_user.o)
                0x00000000080071d0                umm_trysemaphore
 .text.umm_givesemaphore
                0x00000000080071dc        0xc /home/einar/px4_firmware/src/Firmware/build_px4fmu-v2_default/px4io-v2/NuttX/nuttx-export/libs/libnuttx.a(mm-mm_user.o)
                0x00000000080071dc                umm_givesemaphore
 .text          0x00000000080071e8        0x0 /home/einar/px4_firmware/src/Firmware/build_px4fmu-v2_default/px4io-v2/NuttX/nuttx-export/libs/libnuttx.a(mm-mm_zalloc.o)
 .text.zalloc   0x00000000080071e8       0x18 /home/einar/px4_firmware/src/Firmware/build_px4fmu-v2_default/px4io-v2/NuttX/nuttx-export/libs/libnuttx.a(mm-mm_zalloc.o)
                0x00000000080071e8                zalloc
 .text          0x0000000008007200        0x0 /home/einar/px4_firmware/src/Firmware/build_px4fmu-v2_default/px4io-v2/NuttX/nuttx-export/libs/libnuttx.a(arch-stm32_dma.o)
 .text.stm32_dmachandisable
                0x0000000008007200       0x20 /home/einar/px4_firmware/src/Firmware/build_px4fmu-v2_default/px4io-v2/NuttX/nuttx-export/libs/libnuttx.a(arch-stm32_dma.o)
 .text.stm32_dmainterrupt
                0x0000000008007220       0x54 /home/einar/px4_firmware/src/Firmware/build_px4fmu-v2_default/px4io-v2/NuttX/nuttx-export/libs/libnuttx.a(arch-stm32_dma.o)
 .text.up_dmainitialize
                0x0000000008007274       0x44 /home/einar/px4_firmware/src/Firmware/build_px4fmu-v2_default/px4io-v2/NuttX/nuttx-export/libs/libnuttx.a(arch-stm32_dma.o)
                0x0000000008007274                up_dmainitialize
 .text.stm32_dmachannel
                0x00000000080072b8       0x34 /home/einar/px4_firmware/src/Firmware/build_px4fmu-v2_default/px4io-v2/NuttX/nuttx-export/libs/libnuttx.a(arch-stm32_dma.o)
                0x00000000080072b8                stm32_dmachannel
 .text.stm32_dmafree
                0x00000000080072ec        0x6 /home/einar/px4_firmware/src/Firmware/build_px4fmu-v2_default/px4io-v2/NuttX/nuttx-export/libs/libnuttx.a(arch-stm32_dma.o)
                0x00000000080072ec                stm32_dmafree
 .text.stm32_dmasetup
                0x00000000080072f2       0x2a /home/einar/px4_firmware/src/Firmware/build_px4fmu-v2_default/px4io-v2/NuttX/nuttx-export/libs/libnuttx.a(arch-stm32_dma.o)
                0x00000000080072f2                stm32_dmasetup
 .text.stm32_dmastart
                0x000000000800731c       0x28 /home/einar/px4_firmware/src/Firmware/build_px4fmu-v2_default/px4io-v2/NuttX/nuttx-export/libs/libnuttx.a(arch-stm32_dma.o)
                0x000000000800731c                stm32_dmastart
 .text.stm32_dmastop
                0x0000000008007344        0x4 /home/einar/px4_firmware/src/Firmware/build_px4fmu-v2_default/px4io-v2/NuttX/nuttx-export/libs/libnuttx.a(arch-stm32_dma.o)
                0x0000000008007344                stm32_dmastop
 .text.stm32_dmaresidual
                0x0000000008007348        0x6 /home/einar/px4_firmware/src/Firmware/build_px4fmu-v2_default/px4io-v2/NuttX/nuttx-export/libs/libnuttx.a(arch-stm32_dma.o)
                0x0000000008007348                stm32_dmaresidual
 .text          0x000000000800734e        0x0 /home/einar/px4_firmware/src/Firmware/build_px4fmu-v2_default/px4io-v2/NuttX/nuttx-export/libs/libnuttx.a(arch-stm32_gpio.o)
 *fill*         0x000000000800734e        0x2 
 .text.stm32_gpioinit
                0x0000000008007350       0x10 /home/einar/px4_firmware/src/Firmware/build_px4fmu-v2_default/px4io-v2/NuttX/nuttx-export/libs/libnuttx.a(arch-stm32_gpio.o)
                0x0000000008007350                stm32_gpioinit
 .text.stm32_configgpio
                0x0000000008007360       0xc4 /home/einar/px4_firmware/src/Firmware/build_px4fmu-v2_default/px4io-v2/NuttX/nuttx-export/libs/libnuttx.a(arch-stm32_gpio.o)
                0x0000000008007360                stm32_configgpio
 .text.stm32_unconfiggpio
                0x0000000008007424        0xc /home/einar/px4_firmware/src/Firmware/build_px4fmu-v2_default/px4io-v2/NuttX/nuttx-export/libs/libnuttx.a(arch-stm32_gpio.o)
                0x0000000008007424                stm32_unconfiggpio
 .text.stm32_gpiowrite
                0x0000000008007430       0x28 /home/einar/px4_firmware/src/Firmware/build_px4fmu-v2_default/px4io-v2/NuttX/nuttx-export/libs/libnuttx.a(arch-stm32_gpio.o)
                0x0000000008007430                stm32_gpiowrite
 .text.stm32_gpioread
                0x0000000008007458       0x2c /home/einar/px4_firmware/src/Firmware/build_px4fmu-v2_default/px4io-v2/NuttX/nuttx-export/libs/libnuttx.a(arch-stm32_gpio.o)
                0x0000000008007458                stm32_gpioread
 .text          0x0000000008007484        0x0 /home/einar/px4_firmware/src/Firmware/build_px4fmu-v2_default/px4io-v2/NuttX/nuttx-export/libs/libnuttx.a(arch-stm32_irq.o)
 .text.stm32_irqinfo
                0x0000000008007484       0x68 /home/einar/px4_firmware/src/Firmware/build_px4fmu-v2_default/px4io-v2/NuttX/nuttx-export/libs/libnuttx.a(arch-stm32_irq.o)
 .text.up_irqinitialize
                0x00000000080074ec       0x68 /home/einar/px4_firmware/src/Firmware/build_px4fmu-v2_default/px4io-v2/NuttX/nuttx-export/libs/libnuttx.a(arch-stm32_irq.o)
                0x00000000080074ec                up_irqinitialize
 .text.up_disable_irq
                0x0000000008007554       0x1e /home/einar/px4_firmware/src/Firmware/build_px4fmu-v2_default/px4io-v2/NuttX/nuttx-export/libs/libnuttx.a(arch-stm32_irq.o)
                0x0000000008007554                up_disable_irq
 .text.up_enable_irq
                0x0000000008007572       0x1c /home/einar/px4_firmware/src/Firmware/build_px4fmu-v2_default/px4io-v2/NuttX/nuttx-export/libs/libnuttx.a(arch-stm32_irq.o)
                0x0000000008007572                up_enable_irq
 .text.up_maskack_irq
                0x000000000800758e        0x4 /home/einar/px4_firmware/src/Firmware/build_px4fmu-v2_default/px4io-v2/NuttX/nuttx-export/libs/libnuttx.a(arch-stm32_irq.o)
                0x000000000800758e                up_maskack_irq
 .text.up_prioritize_irq
                0x0000000008007592       0x3e /home/einar/px4_firmware/src/Firmware/build_px4fmu-v2_default/px4io-v2/NuttX/nuttx-export/libs/libnuttx.a(arch-stm32_irq.o)
                0x0000000008007592                up_prioritize_irq
 .text          0x00000000080075d0        0x0 /home/einar/px4_firmware/src/Firmware/build_px4fmu-v2_default/px4io-v2/NuttX/nuttx-export/libs/libnuttx.a(arch-stm32_serial.o)
 .text.up_restoreusartint
                0x00000000080075d0       0x26 /home/einar/px4_firmware/src/Firmware/build_px4fmu-v2_default/px4io-v2/NuttX/nuttx-export/libs/libnuttx.a(arch-stm32_serial.o)
 .text.up_set_format
                0x00000000080075f6       0x72 /home/einar/px4_firmware/src/Firmware/build_px4fmu-v2_default/px4io-v2/NuttX/nuttx-export/libs/libnuttx.a(arch-stm32_serial.o)
 .text.up_receive
                0x0000000008007668       0x16 /home/einar/px4_firmware/src/Firmware/build_px4fmu-v2_default/px4io-v2/NuttX/nuttx-export/libs/libnuttx.a(arch-stm32_serial.o)
 .text.up_rxint
                0x000000000800767e       0x2c /home/einar/px4_firmware/src/Firmware/build_px4fmu-v2_default/px4io-v2/NuttX/nuttx-export/libs/libnuttx.a(arch-stm32_serial.o)
 .text.up_rxavailable
                0x00000000080076aa        0xc /home/einar/px4_firmware/src/Firmware/build_px4fmu-v2_default/px4io-v2/NuttX/nuttx-export/libs/libnuttx.a(arch-stm32_serial.o)
 .text.up_dma_rxint
                0x00000000080076b6        0x8 /home/einar/px4_firmware/src/Firmware/build_px4fmu-v2_default/px4io-v2/NuttX/nuttx-export/libs/libnuttx.a(arch-stm32_serial.o)
 .text.up_send  0x00000000080076be        0x8 /home/einar/px4_firmware/src/Firmware/build_px4fmu-v2_default/px4io-v2/NuttX/nuttx-export/libs/libnuttx.a(arch-stm32_serial.o)
 .text.up_txready
                0x00000000080076c6        0xc /home/einar/px4_firmware/src/Firmware/build_px4fmu-v2_default/px4io-v2/NuttX/nuttx-export/libs/libnuttx.a(arch-stm32_serial.o)
 .text.up_txint
                0x00000000080076d2       0x38 /home/einar/px4_firmware/src/Firmware/build_px4fmu-v2_default/px4io-v2/NuttX/nuttx-export/libs/libnuttx.a(arch-stm32_serial.o)
 .text.up_interrupt_common
                0x000000000800770a       0x4e /home/einar/px4_firmware/src/Firmware/build_px4fmu-v2_default/px4io-v2/NuttX/nuttx-export/libs/libnuttx.a(arch-stm32_serial.o)
 .text.up_interrupt_usart3
                0x0000000008007758        0xc /home/einar/px4_firmware/src/Firmware/build_px4fmu-v2_default/px4io-v2/NuttX/nuttx-export/libs/libnuttx.a(arch-stm32_serial.o)
 .text.up_interrupt_usart2
                0x0000000008007764        0xc /home/einar/px4_firmware/src/Firmware/build_px4fmu-v2_default/px4io-v2/NuttX/nuttx-export/libs/libnuttx.a(arch-stm32_serial.o)
 .text.up_interrupt_usart1
                0x0000000008007770        0xc /home/einar/px4_firmware/src/Firmware/build_px4fmu-v2_default/px4io-v2/NuttX/nuttx-export/libs/libnuttx.a(arch-stm32_serial.o)
 .text.up_dma_receive
                0x000000000800777c       0x28 /home/einar/px4_firmware/src/Firmware/build_px4fmu-v2_default/px4io-v2/NuttX/nuttx-export/libs/libnuttx.a(arch-stm32_serial.o)
 .text.up_ioctl
                0x00000000080077a4       0xa0 /home/einar/px4_firmware/src/Firmware/build_px4fmu-v2_default/px4io-v2/NuttX/nuttx-export/libs/libnuttx.a(arch-stm32_serial.o)
 .text.up_detach
                0x0000000008007844       0x1a /home/einar/px4_firmware/src/Firmware/build_px4fmu-v2_default/px4io-v2/NuttX/nuttx-export/libs/libnuttx.a(arch-stm32_serial.o)
 .text.up_attach
                0x000000000800785e       0x1e /home/einar/px4_firmware/src/Firmware/build_px4fmu-v2_default/px4io-v2/NuttX/nuttx-export/libs/libnuttx.a(arch-stm32_serial.o)
 .text.up_setup
                0x000000000800787c       0x58 /home/einar/px4_firmware/src/Firmware/build_px4fmu-v2_default/px4io-v2/NuttX/nuttx-export/libs/libnuttx.a(arch-stm32_serial.o)
 .text.up_dma_setup
                0x00000000080078d4       0x50 /home/einar/px4_firmware/src/Firmware/build_px4fmu-v2_default/px4io-v2/NuttX/nuttx-export/libs/libnuttx.a(arch-stm32_serial.o)
 .text.up_shutdown
                0x0000000008007924       0x1c /home/einar/px4_firmware/src/Firmware/build_px4fmu-v2_default/px4io-v2/NuttX/nuttx-export/libs/libnuttx.a(arch-stm32_serial.o)
 .text.up_dma_shutdown
                0x0000000008007940       0x1a /home/einar/px4_firmware/src/Firmware/build_px4fmu-v2_default/px4io-v2/NuttX/nuttx-export/libs/libnuttx.a(arch-stm32_serial.o)
 .text.up_dma_rxavailable
                0x000000000800795a       0x18 /home/einar/px4_firmware/src/Firmware/build_px4fmu-v2_default/px4io-v2/NuttX/nuttx-export/libs/libnuttx.a(arch-stm32_serial.o)
 .text.up_dma_rxcallback
                0x0000000008007972       0x1e /home/einar/px4_firmware/src/Firmware/build_px4fmu-v2_default/px4io-v2/NuttX/nuttx-export/libs/libnuttx.a(arch-stm32_serial.o)
 .text.up_earlyserialinit
                0x0000000008007990       0x34 /home/einar/px4_firmware/src/Firmware/build_px4fmu-v2_default/px4io-v2/NuttX/nuttx-export/libs/libnuttx.a(arch-stm32_serial.o)
                0x0000000008007990                up_earlyserialinit
 .text.up_serialinit
                0x00000000080079c4       0x5c /home/einar/px4_firmware/src/Firmware/build_px4fmu-v2_default/px4io-v2/NuttX/nuttx-export/libs/libnuttx.a(arch-stm32_serial.o)
                0x00000000080079c4                up_serialinit
 .text.stm32_serial_dma_poll
                0x0000000008007a20       0x24 /home/einar/px4_firmware/src/Firmware/build_px4fmu-v2_default/px4io-v2/NuttX/nuttx-export/libs/libnuttx.a(arch-stm32_serial.o)
                0x0000000008007a20                stm32_serial_dma_poll
 .text.up_putc  0x0000000008007a44       0x3c /home/einar/px4_firmware/src/Firmware/build_px4fmu-v2_default/px4io-v2/NuttX/nuttx-export/libs/libnuttx.a(arch-stm32_serial.o)
                0x0000000008007a44                up_putc
 .text          0x0000000008007a80        0x0 /home/einar/px4_firmware/src/Firmware/build_px4fmu-v2_default/px4io-v2/NuttX/nuttx-export/libs/libnuttx.a(arch-stm32_start.o)
 .text.__start  0x0000000008007a80       0x54 /home/einar/px4_firmware/src/Firmware/build_px4fmu-v2_default/px4io-v2/NuttX/nuttx-export/libs/libnuttx.a(arch-stm32_start.o)
                0x0000000008007a80                __start
 .text          0x0000000008007ad4        0x0 /home/einar/px4_firmware/src/Firmware/build_px4fmu-v2_default/px4io-v2/NuttX/nuttx-export/libs/libnuttx.a(arch-up_assert.o)
 .text.up_stackdump
                0x0000000008007ad4       0x40 /home/einar/px4_firmware/src/Firmware/build_px4fmu-v2_default/px4io-v2/NuttX/nuttx-export/libs/libnuttx.a(arch-up_assert.o)
 .text.up_assert
                0x0000000008007b14      0x160 /home/einar/px4_firmware/src/Firmware/build_px4fmu-v2_default/px4io-v2/NuttX/nuttx-export/libs/libnuttx.a(arch-up_assert.o)
                0x0000000008007b14                up_assert
 .text          0x0000000008007c74       0x64 /home/einar/px4_firmware/src/Firmware/build_px4fmu-v2_default/px4io-v2/NuttX/nuttx-export/libs/libnuttx.a(arch-up_exception.o)
                0x0000000008007c74                exception_common
 .text          0x0000000008007cd8        0x0 /home/einar/px4_firmware/src/Firmware/build_px4fmu-v2_default/px4io-v2/NuttX/nuttx-export/libs/libnuttx.a(arch-up_hardfault.o)
 .text.up_hardfault
                0x0000000008007cd8       0x40 /home/einar/px4_firmware/src/Firmware/build_px4fmu-v2_default/px4io-v2/NuttX/nuttx-export/libs/libnuttx.a(arch-up_hardfault.o)
                0x0000000008007cd8                up_hardfault
 .text          0x0000000008007d18        0x0 /home/einar/px4_firmware/src/Firmware/build_px4fmu-v2_default/px4io-v2/NuttX/nuttx-export/libs/libnuttx.a(arch-up_modifyreg32.o)
 .text.modifyreg32
                0x0000000008007d18       0x1c /home/einar/px4_firmware/src/Firmware/build_px4fmu-v2_default/px4io-v2/NuttX/nuttx-export/libs/libnuttx.a(arch-up_modifyreg32.o)
                0x0000000008007d18                modifyreg32
 .text          0x0000000008007d34        0x0 /home/einar/px4_firmware/src/Firmware/build_px4fmu-v2_default/px4io-v2/NuttX/nuttx-export/libs/libnuttx.a(arch-up_svcall.o)
 .text.up_svcall
                0x0000000008007d34       0x34 /home/einar/px4_firmware/src/Firmware/build_px4fmu-v2_default/px4io-v2/NuttX/nuttx-export/libs/libnuttx.a(arch-up_svcall.o)
                0x0000000008007d34                up_svcall
 .text          0x0000000008007d68        0x0 /home/einar/px4_firmware/src/Firmware/build_px4fmu-v2_default/px4io-v2/NuttX/nuttx-export/libs/libnuttx.a(arch-up_systemreset.o)
 .text.up_systemreset
                0x0000000008007d68       0x1c /home/einar/px4_firmware/src/Firmware/build_px4fmu-v2_default/px4io-v2/NuttX/nuttx-export/libs/libnuttx.a(arch-up_systemreset.o)
                0x0000000008007d68                up_systemreset
 .text          0x0000000008007d84        0x0 /home/einar/px4_firmware/src/Firmware/build_px4fmu-v2_default/px4io-v2/NuttX/nuttx-export/libs/libnuttx.a(arch-up_udelay.o)
 .text.up_udelay
                0x0000000008007d84       0x64 /home/einar/px4_firmware/src/Firmware/build_px4fmu-v2_default/px4io-v2/NuttX/nuttx-export/libs/libnuttx.a(arch-up_udelay.o)
                0x0000000008007d84                up_udelay
 .text          0x0000000008007de8        0x0 /home/einar/px4_firmware/src/Firmware/build_px4fmu-v2_default/px4io-v2/NuttX/nuttx-export/libs/libnuttx.a(arch-up_vectors.o)
 .text          0x0000000008007de8        0x0 /home/einar/px4_firmware/src/Firmware/build_px4fmu-v2_default/px4io-v2/NuttX/nuttx-export/libs/libnuttx.a(cxx-libxx_cxa_atexit.o)
 .text.__cxa_atexit
                0x0000000008007de8        0x4 /home/einar/px4_firmware/src/Firmware/build_px4fmu-v2_default/px4io-v2/NuttX/nuttx-export/libs/libnuttx.a(cxx-libxx_cxa_atexit.o)
                0x0000000008007de8                __cxa_atexit
 .text          0x0000000008007dec        0x0 /home/einar/px4_firmware/src/Firmware/build_px4fmu-v2_default/px4io-v2/NuttX/nuttx-export/libs/libnuttx.a(cxx-libxx_cxapurevirtual.o)
 .text.__cxa_pure_virtual
                0x0000000008007dec       0x10 /home/einar/px4_firmware/src/Firmware/build_px4fmu-v2_default/px4io-v2/NuttX/nuttx-export/libs/libnuttx.a(cxx-libxx_cxapurevirtual.o)
                0x0000000008007dec                __cxa_pure_virtual
 .text          0x0000000008007dfc        0x0 /home/einar/px4_firmware/src/Firmware/build_px4fmu-v2_default/px4io-v2/NuttX/nuttx-export/libs/libnuttx.a(cxx-libxx_delete.o)
 .text._ZdlPv   0x0000000008007dfc        0x4 /home/einar/px4_firmware/src/Firmware/build_px4fmu-v2_default/px4io-v2/NuttX/nuttx-export/libs/libnuttx.a(cxx-libxx_delete.o)
                0x0000000008007dfc                operator delete(void*)
 .text          0x0000000008007e00        0x0 /home/einar/px4_firmware/src/Firmware/build_px4fmu-v2_default/px4io-v2/NuttX/nuttx-export/libs/libnuttx.a(cxx-libxx_eabi_atexit.o)
 .text.__aeabi_atexit
                0x0000000008007e00        0xa /home/einar/px4_firmware/src/Firmware/build_px4fmu-v2_default/px4io-v2/NuttX/nuttx-export/libs/libnuttx.a(cxx-libxx_eabi_atexit.o)
                0x0000000008007e00                __aeabi_atexit
 .text          0x0000000008007e0a        0x0 /home/einar/px4_firmware/src/Firmware/build_px4fmu-v2_default/px4io-v2/NuttX/nuttx-export/libs/libnuttx.a(cxx-libxx_new.o)
 .text._Znwj    0x0000000008007e0a        0xa /home/einar/px4_firmware/src/Firmware/build_px4fmu-v2_default/px4io-v2/NuttX/nuttx-export/libs/libnuttx.a(cxx-libxx_new.o)
                0x0000000008007e0a                operator new(unsigned int)
 .text          0x0000000008007e14        0x0 /home/einar/px4_firmware/src/Firmware/build_px4fmu-v2_default/px4io-v2/NuttX/nuttx-export/libs/libnuttx.a(fs-fs_ioctl.o)
 .text.ioctl    0x0000000008007e14       0x48 /home/einar/px4_firmware/src/Firmware/build_px4fmu-v2_default/px4io-v2/NuttX/nuttx-export/libs/libnuttx.a(fs-fs_ioctl.o)
                0x0000000008007e14                ioctl
 .text          0x0000000008007e5c        0x0 /home/einar/px4_firmware/src/Firmware/build_px4fmu-v2_default/px4io-v2/NuttX/nuttx-export/libs/libnuttx.a(fs-fs_open.o)
 .text.inode_checkflags
                0x0000000008007e5c       0x28 /home/einar/px4_firmware/src/Firmware/build_px4fmu-v2_default/px4io-v2/NuttX/nuttx-export/libs/libnuttx.a(fs-fs_open.o)
                0x0000000008007e5c                inode_checkflags
 .text.open     0x0000000008007e84       0x90 /home/einar/px4_firmware/src/Firmware/build_px4fmu-v2_default/px4io-v2/NuttX/nuttx-export/libs/libnuttx.a(fs-fs_open.o)
                0x0000000008007e84                open
 .text          0x0000000008007f14        0x0 /home/einar/px4_firmware/src/Firmware/build_px4fmu-v2_default/px4io-v2/NuttX/nuttx-export/libs/libnuttx.a(fs-fs_read.o)
 .text.read     0x0000000008007f14       0x62 /home/einar/px4_firmware/src/Firmware/build_px4fmu-v2_default/px4io-v2/NuttX/nuttx-export/libs/libnuttx.a(fs-fs_read.o)
                0x0000000008007f14                read
 .text          0x0000000008007f76        0x0 /home/einar/px4_firmware/src/Firmware/build_px4fmu-v2_default/px4io-v2/NuttX/nuttx-export/libs/libnuttx.a(fs-fs_write.o)
 .text.write    0x0000000008007f76       0x54 /home/einar/px4_firmware/src/Firmware/build_px4fmu-v2_default/px4io-v2/NuttX/nuttx-export/libs/libnuttx.a(fs-fs_write.o)
                0x0000000008007f76                write
 .text          0x0000000008007fca        0x0 /home/einar/px4_firmware/src/Firmware/build_px4fmu-v2_default/px4io-v2/NuttX/nuttx-export/libs/libnuttx.a(drivers-serialirq.o)
 .text.uart_xmitchars
                0x0000000008007fca       0x70 /home/einar/px4_firmware/src/Firmware/build_px4fmu-v2_default/px4io-v2/NuttX/nuttx-export/libs/libnuttx.a(drivers-serialirq.o)
                0x0000000008007fca                uart_xmitchars
 .text.uart_recvchars
                0x000000000800803a       0x5c /home/einar/px4_firmware/src/Firmware/build_px4fmu-v2_default/px4io-v2/NuttX/nuttx-export/libs/libnuttx.a(drivers-serialirq.o)
                0x000000000800803a                uart_recvchars
 .text          0x0000000008008096        0x0 /home/einar/px4_firmware/src/Firmware/build_px4fmu-v2_default/px4io-v2/NuttX/nuttx-export/libs/libnuttx.a(drivers-serial.o)
 .text.uart_ioctl
                0x0000000008008096       0xca /home/einar/px4_firmware/src/Firmware/build_px4fmu-v2_default/px4io-v2/NuttX/nuttx-export/libs/libnuttx.a(drivers-serial.o)
 .text.uart_takesem
                0x0000000008008160       0x30 /home/einar/px4_firmware/src/Firmware/build_px4fmu-v2_default/px4io-v2/NuttX/nuttx-export/libs/libnuttx.a(drivers-serial.o)
 .text.uart_putxmitchar
                0x0000000008008190       0x7e /home/einar/px4_firmware/src/Firmware/build_px4fmu-v2_default/px4io-v2/NuttX/nuttx-export/libs/libnuttx.a(drivers-serial.o)
 .text.uart_write
                0x000000000800820e       0xe8 /home/einar/px4_firmware/src/Firmware/build_px4fmu-v2_default/px4io-v2/NuttX/nuttx-export/libs/libnuttx.a(drivers-serial.o)
 .text.uart_read
                0x00000000080082f6       0xf4 /home/einar/px4_firmware/src/Firmware/build_px4fmu-v2_default/px4io-v2/NuttX/nuttx-export/libs/libnuttx.a(drivers-serial.o)
 .text.uart_open
                0x00000000080083ea       0xa2 /home/einar/px4_firmware/src/Firmware/build_px4fmu-v2_default/px4io-v2/NuttX/nuttx-export/libs/libnuttx.a(drivers-serial.o)
 .text.uart_close
                0x000000000800848c       0x7e /home/einar/px4_firmware/src/Firmware/build_px4fmu-v2_default/px4io-v2/NuttX/nuttx-export/libs/libnuttx.a(drivers-serial.o)
 *fill*         0x000000000800850a        0x2 
 .text.uart_register
                0x000000000800850c       0x54 /home/einar/px4_firmware/src/Firmware/build_px4fmu-v2_default/px4io-v2/NuttX/nuttx-export/libs/libnuttx.a(drivers-serial.o)
                0x000000000800850c                uart_register
 .text.uart_datareceived
                0x0000000008008560       0x10 /home/einar/px4_firmware/src/Firmware/build_px4fmu-v2_default/px4io-v2/NuttX/nuttx-export/libs/libnuttx.a(drivers-serial.o)
                0x0000000008008560                uart_datareceived
 .text.uart_datasent
                0x0000000008008570       0x10 /home/einar/px4_firmware/src/Firmware/build_px4fmu-v2_default/px4io-v2/NuttX/nuttx-export/libs/libnuttx.a(drivers-serial.o)
                0x0000000008008570                uart_datasent
 .text.uart_numrxavail
                0x0000000008008580       0x2c /home/einar/px4_firmware/src/Firmware/build_px4fmu-v2_default/px4io-v2/NuttX/nuttx-export/libs/libnuttx.a(drivers-serial.o)
                0x0000000008008580                uart_numrxavail
 .text          0x00000000080085ac        0x0 /home/einar/px4_firmware/src/Firmware/build_px4fmu-v2_default/px4io-v2/NuttX/nuttx-export/libs/libnuttx.a(sched-errno_getptr.o)
 .text.get_errno_ptr
                0x00000000080085ac       0x24 /home/einar/px4_firmware/src/Firmware/build_px4fmu-v2_default/px4io-v2/NuttX/nuttx-export/libs/libnuttx.a(sched-errno_getptr.o)
                0x00000000080085ac                get_errno_ptr
 .text          0x00000000080085d0        0x0 /home/einar/px4_firmware/src/Firmware/build_px4fmu-v2_default/px4io-v2/NuttX/nuttx-export/libs/libnuttx.a(sched-exit.o)
 .text.exit     0x00000000080085d0       0x1c /home/einar/px4_firmware/src/Firmware/build_px4fmu-v2_default/px4io-v2/NuttX/nuttx-export/libs/libnuttx.a(sched-exit.o)
                0x00000000080085d0                exit
 .text          0x00000000080085ec        0x0 /home/einar/px4_firmware/src/Firmware/build_px4fmu-v2_default/px4io-v2/NuttX/nuttx-export/libs/libnuttx.a(sched-getpid.o)
 .text.getpid   0x00000000080085ec       0x10 /home/einar/px4_firmware/src/Firmware/build_px4fmu-v2_default/px4io-v2/NuttX/nuttx-export/libs/libnuttx.a(sched-getpid.o)
                0x00000000080085ec                getpid
 .text          0x00000000080085fc        0x0 /home/einar/px4_firmware/src/Firmware/build_px4fmu-v2_default/px4io-v2/NuttX/nuttx-export/libs/libnuttx.a(sched-os_start.o)
 .text.os_start
                0x00000000080085fc      0x12c /home/einar/px4_firmware/src/Firmware/build_px4fmu-v2_default/px4io-v2/NuttX/nuttx-export/libs/libnuttx.a(sched-os_start.o)
                0x00000000080085fc                os_start
 .text          0x0000000008008728        0x0 /home/einar/px4_firmware/src/Firmware/build_px4fmu-v2_default/px4io-v2/NuttX/nuttx-export/libs/libnuttx.a(sched-sched_garbage.o)
 .text.sched_garbagecollection
                0x0000000008008728       0x2c /home/einar/px4_firmware/src/Firmware/build_px4fmu-v2_default/px4io-v2/NuttX/nuttx-export/libs/libnuttx.a(sched-sched_garbage.o)
                0x0000000008008728                sched_garbagecollection
 .text          0x0000000008008754        0x0 /home/einar/px4_firmware/src/Firmware/build_px4fmu-v2_default/px4io-v2/NuttX/nuttx-export/libs/libnuttx.a(sched-sched_getfiles.o)
 .text.sched_getfiles
                0x0000000008008754       0x10 /home/einar/px4_firmware/src/Firmware/build_px4fmu-v2_default/px4io-v2/NuttX/nuttx-export/libs/libnuttx.a(sched-sched_getfiles.o)
                0x0000000008008754                sched_getfiles
 .text          0x0000000008008764        0x0 /home/einar/px4_firmware/src/Firmware/build_px4fmu-v2_default/px4io-v2/NuttX/nuttx-export/libs/libnuttx.a(sched-sem_post.o)
 .text.sem_post
                0x0000000008008764       0x58 /home/einar/px4_firmware/src/Firmware/build_px4fmu-v2_default/px4io-v2/NuttX/nuttx-export/libs/libnuttx.a(sched-sem_post.o)
                0x0000000008008764                sem_post
 .text          0x00000000080087bc        0x0 /home/einar/px4_firmware/src/Firmware/build_px4fmu-v2_default/px4io-v2/NuttX/nuttx-export/libs/libnuttx.a(sched-sem_trywait.o)
 .text.sem_trywait
                0x00000000080087bc       0x4c /home/einar/px4_firmware/src/Firmware/build_px4fmu-v2_default/px4io-v2/NuttX/nuttx-export/libs/libnuttx.a(sched-sem_trywait.o)
                0x00000000080087bc                sem_trywait
 .text          0x0000000008008808        0x0 /home/einar/px4_firmware/src/Firmware/build_px4fmu-v2_default/px4io-v2/NuttX/nuttx-export/libs/libnuttx.a(sched-sem_wait.o)
 .text.sem_wait
                0x0000000008008808       0x84 /home/einar/px4_firmware/src/Firmware/build_px4fmu-v2_default/px4io-v2/NuttX/nuttx-export/libs/libnuttx.a(sched-sem_wait.o)
                0x0000000008008808                sem_wait
 .text          0x000000000800888c        0x0 /home/einar/px4_firmware/src/Firmware/build_px4fmu-v2_default/px4io-v2/NuttX/nuttx-export/libs/libnuttx.a(sched-task_exithook.o)
 .text.task_exithook
                0x000000000800888c       0x1e /home/einar/px4_firmware/src/Firmware/build_px4fmu-v2_default/px4io-v2/NuttX/nuttx-export/libs/libnuttx.a(sched-task_exithook.o)
                0x000000000800888c                task_exithook
 .text          0x00000000080088aa        0x0 /home/einar/px4_firmware/src/Firmware/build_px4fmu-v2_default/px4io-v2/NuttX/nuttx-export/libs/libnuttx.a(sched-task_recover.o)
 .text.task_recover
                0x00000000080088aa       0x26 /home/einar/px4_firmware/src/Firmware/build_px4fmu-v2_default/px4io-v2/NuttX/nuttx-export/libs/libnuttx.a(sched-task_recover.o)
                0x00000000080088aa                task_recover
 .text          0x00000000080088d0        0x0 /home/einar/px4_firmware/src/Firmware/build_px4fmu-v2_default/px4io-v2/NuttX/nuttx-export/libs/libnuttx.a(sched-wd_cancel.o)
 .text.wd_cancel
                0x00000000080088d0       0x64 /home/einar/px4_firmware/src/Firmware/build_px4fmu-v2_default/px4io-v2/NuttX/nuttx-export/libs/libnuttx.a(sched-wd_cancel.o)
                0x00000000080088d0                wd_cancel
 .text          0x0000000008008934        0x0 /home/einar/px4_firmware/src/Firmware/build_px4fmu-v2_default/px4io-v2/NuttX/nuttx-export/libs/libnuttx.a(sched-wd_delete.o)
 .text.wd_delete
                0x0000000008008934       0x3c /home/einar/px4_firmware/src/Firmware/build_px4fmu-v2_default/px4io-v2/NuttX/nuttx-export/libs/libnuttx.a(sched-wd_delete.o)
                0x0000000008008934                wd_delete
 .text          0x0000000008008970        0x0 /home/einar/px4_firmware/src/Firmware/build_px4fmu-v2_default/px4io-v2/NuttX/nuttx-export/libs/libnuttx.a(sched-wd_initialize.o)
 .text.wd_initialize
                0x0000000008008970       0x44 /home/einar/px4_firmware/src/Firmware/build_px4fmu-v2_default/px4io-v2/NuttX/nuttx-export/libs/libnuttx.a(sched-wd_initialize.o)
                0x0000000008008970                wd_initialize
 .text          0x00000000080089b4        0x0 /home/einar/px4_firmware/src/Firmware/build_px4fmu-v2_default/px4io-v2/NuttX/nuttx-export/libs/libnuttx.a(c-dq_addfirst.o)
 .text.dq_addfirst
                0x00000000080089b4       0x18 /home/einar/px4_firmware/src/Firmware/build_px4fmu-v2_default/px4io-v2/NuttX/nuttx-export/libs/libnuttx.a(c-dq_addfirst.o)
                0x00000000080089b4                dq_addfirst
 .text          0x00000000080089cc        0x0 /home/einar/px4_firmware/src/Firmware/build_px4fmu-v2_default/px4io-v2/NuttX/nuttx-export/libs/libnuttx.a(c-lib_cfgetspeed.o)
 .text.cfgetspeed
                0x00000000080089cc        0x4 /home/einar/px4_firmware/src/Firmware/build_px4fmu-v2_default/px4io-v2/NuttX/nuttx-export/libs/libnuttx.a(c-lib_cfgetspeed.o)
                0x00000000080089cc                cfgetspeed
 .text          0x00000000080089d0        0x0 /home/einar/px4_firmware/src/Firmware/build_px4fmu-v2_default/px4io-v2/NuttX/nuttx-export/libs/libnuttx.a(c-lib_checkbase.o)
 .text.lib_checkbase
                0x00000000080089d0       0x52 /home/einar/px4_firmware/src/Firmware/build_px4fmu-v2_default/px4io-v2/NuttX/nuttx-export/libs/libnuttx.a(c-lib_checkbase.o)
                0x00000000080089d0                lib_checkbase
 .text          0x0000000008008a22        0x0 /home/einar/px4_firmware/src/Firmware/build_px4fmu-v2_default/px4io-v2/NuttX/nuttx-export/libs/libnuttx.a(c-lib_isbasedigit.o)
 .text.lib_isbasedigit
                0x0000000008008a22       0x4e /home/einar/px4_firmware/src/Firmware/build_px4fmu-v2_default/px4io-v2/NuttX/nuttx-export/libs/libnuttx.a(c-lib_isbasedigit.o)
                0x0000000008008a22                lib_isbasedigit
 .text          0x0000000008008a70        0x0 /home/einar/px4_firmware/src/Firmware/build_px4fmu-v2_default/px4io-v2/NuttX/nuttx-export/libs/libnuttx.a(c-lib_libvsprintf.o)
 .text.utodec   0x0000000008008a70       0x24 /home/einar/px4_firmware/src/Firmware/build_px4fmu-v2_default/px4io-v2/NuttX/nuttx-export/libs/libnuttx.a(c-lib_libvsprintf.o)
 .text.utooct   0x0000000008008a94       0x1e /home/einar/px4_firmware/src/Firmware/build_px4fmu-v2_default/px4io-v2/NuttX/nuttx-export/libs/libnuttx.a(c-lib_libvsprintf.o)
 .text.utobin   0x0000000008008ab2       0x1e /home/einar/px4_firmware/src/Firmware/build_px4fmu-v2_default/px4io-v2/NuttX/nuttx-export/libs/libnuttx.a(c-lib_libvsprintf.o)
 .text.llutodec
                0x0000000008008ad0       0x42 /home/einar/px4_firmware/src/Firmware/build_px4fmu-v2_default/px4io-v2/NuttX/nuttx-export/libs/libnuttx.a(c-lib_libvsprintf.o)
 .text.llutooct
                0x0000000008008b12       0x2e /home/einar/px4_firmware/src/Firmware/build_px4fmu-v2_default/px4io-v2/NuttX/nuttx-export/libs/libnuttx.a(c-lib_libvsprintf.o)
 .text.llutobin
                0x0000000008008b40       0x26 /home/einar/px4_firmware/src/Firmware/build_px4fmu-v2_default/px4io-v2/NuttX/nuttx-export/libs/libnuttx.a(c-lib_libvsprintf.o)
 .text.prejustify
                0x0000000008008b66       0x8a /home/einar/px4_firmware/src/Firmware/build_px4fmu-v2_default/px4io-v2/NuttX/nuttx-export/libs/libnuttx.a(c-lib_libvsprintf.o)
 .text.utohex   0x0000000008008bf0       0x4c /home/einar/px4_firmware/src/Firmware/build_px4fmu-v2_default/px4io-v2/NuttX/nuttx-export/libs/libnuttx.a(c-lib_libvsprintf.o)
 .text.utoascii
                0x0000000008008c3c       0x88 /home/einar/px4_firmware/src/Firmware/build_px4fmu-v2_default/px4io-v2/NuttX/nuttx-export/libs/libnuttx.a(c-lib_libvsprintf.o)
 .text.llutohex
                0x0000000008008cc4       0x5c /home/einar/px4_firmware/src/Firmware/build_px4fmu-v2_default/px4io-v2/NuttX/nuttx-export/libs/libnuttx.a(c-lib_libvsprintf.o)
 .text.llutoascii
                0x0000000008008d20       0x92 /home/einar/px4_firmware/src/Firmware/build_px4fmu-v2_default/px4io-v2/NuttX/nuttx-export/libs/libnuttx.a(c-lib_libvsprintf.o)
 .text.postjustify
                0x0000000008008db2       0x26 /home/einar/px4_firmware/src/Firmware/build_px4fmu-v2_default/px4io-v2/NuttX/nuttx-export/libs/libnuttx.a(c-lib_libvsprintf.o)
 .text.lib_vsprintf
                0x0000000008008dd8      0x2ac /home/einar/px4_firmware/src/Firmware/build_px4fmu-v2_default/px4io-v2/NuttX/nuttx-export/libs/libnuttx.a(c-lib_libvsprintf.o)
                0x0000000008008dd8                lib_vsprintf
 .text          0x0000000008009084        0x0 /home/einar/px4_firmware/src/Firmware/build_px4fmu-v2_default/px4io-v2/NuttX/nuttx-export/libs/libnuttx.a(c-lib_lowoutstream.o)
 .text.lowoutstream_putc
                0x0000000008009084       0x16 /home/einar/px4_firmware/src/Firmware/build_px4fmu-v2_default/px4io-v2/NuttX/nuttx-export/libs/libnuttx.a(c-lib_lowoutstream.o)
 *fill*         0x000000000800909a        0x2 
 .text.lib_lowoutstream
                0x000000000800909c       0x10 /home/einar/px4_firmware/src/Firmware/build_px4fmu-v2_default/px4io-v2/NuttX/nuttx-export/libs/libnuttx.a(c-lib_lowoutstream.o)
                0x000000000800909c                lib_lowoutstream
 .text          0x00000000080090ac        0x0 /home/einar/px4_firmware/src/Firmware/build_px4fmu-v2_default/px4io-v2/NuttX/nuttx-export/libs/libnuttx.a(c-lib_memoutstream.o)
 .text.memoutstream_putc
                0x00000000080090ac       0x1a /home/einar/px4_firmware/src/Firmware/build_px4fmu-v2_default/px4io-v2/NuttX/nuttx-export/libs/libnuttx.a(c-lib_memoutstream.o)
 *fill*         0x00000000080090c6        0x2 
 .text.lib_memoutstream
                0x00000000080090c8       0x18 /home/einar/px4_firmware/src/Firmware/build_px4fmu-v2_default/px4io-v2/NuttX/nuttx-export/libs/libnuttx.a(c-lib_memoutstream.o)
                0x00000000080090c8                lib_memoutstream
 .text          0x00000000080090e0        0x0 /home/einar/px4_firmware/src/Firmware/build_px4fmu-v2_default/px4io-v2/NuttX/nuttx-export/libs/libnuttx.a(c-lib_nulloutstream.o)
 .text.nulloutstream_putc
                0x00000000080090e0        0x8 /home/einar/px4_firmware/src/Firmware/build_px4fmu-v2_default/px4io-v2/NuttX/nuttx-export/libs/libnuttx.a(c-lib_nulloutstream.o)
 .text.lib_nulloutstream
                0x00000000080090e8       0x10 /home/einar/px4_firmware/src/Firmware/build_px4fmu-v2_default/px4io-v2/NuttX/nuttx-export/libs/libnuttx.a(c-lib_nulloutstream.o)
                0x00000000080090e8                lib_nulloutstream
 .text          0x00000000080090f8        0x0 /home/einar/px4_firmware/src/Firmware/build_px4fmu-v2_default/px4io-v2/NuttX/nuttx-export/libs/libnuttx.a(c-lib_rawoutstream.o)
 .text.rawoutstream_putc
                0x00000000080090f8       0x2e /home/einar/px4_firmware/src/Firmware/build_px4fmu-v2_default/px4io-v2/NuttX/nuttx-export/libs/libnuttx.a(c-lib_rawoutstream.o)
 *fill*         0x0000000008009126        0x2 
 .text.lib_rawoutstream
                0x0000000008009128       0x10 /home/einar/px4_firmware/src/Firmware/build_px4fmu-v2_default/px4io-v2/NuttX/nuttx-export/libs/libnuttx.a(c-lib_rawoutstream.o)
                0x0000000008009128                lib_rawoutstream
 .text          0x0000000008009138        0x0 /home/einar/px4_firmware/src/Firmware/build_px4fmu-v2_default/px4io-v2/NuttX/nuttx-export/libs/libnuttx.a(c-lib_skipspace.o)
 .text.lib_skipspace
                0x0000000008009138       0x16 /home/einar/px4_firmware/src/Firmware/build_px4fmu-v2_default/px4io-v2/NuttX/nuttx-export/libs/libnuttx.a(c-lib_skipspace.o)
                0x0000000008009138                lib_skipspace
 .text          0x000000000800914e        0x0 /home/einar/px4_firmware/src/Firmware/build_px4fmu-v2_default/px4io-v2/NuttX/nuttx-export/libs/libnuttx.a(c-lib_strcpy.o)
 .text.strcpy   0x000000000800914e       0x10 /home/einar/px4_firmware/src/Firmware/build_px4fmu-v2_default/px4io-v2/NuttX/nuttx-export/libs/libnuttx.a(c-lib_strcpy.o)
                0x000000000800914e                strcpy
 .text          0x000000000800915e        0x0 /home/einar/px4_firmware/src/Firmware/build_px4fmu-v2_default/px4io-v2/NuttX/nuttx-export/libs/libnuttx.a(c-lib_strlen.o)
 .text.strlen   0x000000000800915e       0x10 /home/einar/px4_firmware/src/Firmware/build_px4fmu-v2_default/px4io-v2/NuttX/nuttx-export/libs/libnuttx.a(c-lib_strlen.o)
                0x000000000800915e                strlen
 .text          0x000000000800916e        0x0 /home/einar/px4_firmware/src/Firmware/build_px4fmu-v2_default/px4io-v2/NuttX/nuttx-export/libs/libnuttx.a(c-sem_init.o)
 .text.sem_init
                0x000000000800916e       0x1e /home/einar/px4_firmware/src/Firmware/build_px4fmu-v2_default/px4io-v2/NuttX/nuttx-export/libs/libnuttx.a(c-sem_init.o)
                0x000000000800916e                sem_init
 .text          0x000000000800918c        0x0 /home/einar/px4_firmware/src/Firmware/build_px4fmu-v2_default/px4io-v2/NuttX/nuttx-export/libs/libnuttx.a(c-sq_remafter.o)
 .text.sq_remafter
                0x000000000800918c       0x22 /home/einar/px4_firmware/src/Firmware/build_px4fmu-v2_default/px4io-v2/NuttX/nuttx-export/libs/libnuttx.a(c-sq_remafter.o)
                0x000000000800918c                sq_remafter
 .text          0x00000000080091ae        0x0 /home/einar/px4_firmware/src/Firmware/build_px4fmu-v2_default/px4io-v2/NuttX/nuttx-export/libs/libnuttx.a(c-sq_remfirst.o)
 .text.sq_remfirst
                0x00000000080091ae       0x14 /home/einar/px4_firmware/src/Firmware/build_px4fmu-v2_default/px4io-v2/NuttX/nuttx-export/libs/libnuttx.a(c-sq_remfirst.o)
                0x00000000080091ae                sq_remfirst
 .text          0x00000000080091c2        0x0 /home/einar/px4_firmware/src/Firmware/build_px4fmu-v2_default/px4io-v2/NuttX/nuttx-export/libs/libnuttx.a(mm-mm_addfreechunk.o)
 .text.mm_addfreechunk
                0x00000000080091c2       0x36 /home/einar/px4_firmware/src/Firmware/build_px4fmu-v2_default/px4io-v2/NuttX/nuttx-export/libs/libnuttx.a(mm-mm_addfreechunk.o)
                0x00000000080091c2                mm_addfreechunk
 .text          0x00000000080091f8        0x0 /home/einar/px4_firmware/src/Firmware/build_px4fmu-v2_default/px4io-v2/NuttX/nuttx-export/libs/libnuttx.a(mm-mm_initialize.o)
 .text.mm_addregion
                0x00000000080091f8       0x50 /home/einar/px4_firmware/src/Firmware/build_px4fmu-v2_default/px4io-v2/NuttX/nuttx-export/libs/libnuttx.a(mm-mm_initialize.o)
                0x00000000080091f8                mm_addregion
 .text.mm_initialize
                0x0000000008009248       0x40 /home/einar/px4_firmware/src/Firmware/build_px4fmu-v2_default/px4io-v2/NuttX/nuttx-export/libs/libnuttx.a(mm-mm_initialize.o)
                0x0000000008009248                mm_initialize
 .text          0x0000000008009288        0x0 /home/einar/px4_firmware/src/Firmware/build_px4fmu-v2_default/px4io-v2/NuttX/nuttx-export/libs/libnuttx.a(arch-stm32_allocateheap.o)
 .text.up_allocate_heap
                0x0000000008009288       0x14 /home/einar/px4_firmware/src/Firmware/build_px4fmu-v2_default/px4io-v2/NuttX/nuttx-export/libs/libnuttx.a(arch-stm32_allocateheap.o)
                0x0000000008009288                up_allocate_heap
 .text          0x000000000800929c        0x0 /home/einar/px4_firmware/src/Firmware/build_px4fmu-v2_default/px4io-v2/NuttX/nuttx-export/libs/libnuttx.a(arch-stm32_idle.o)
 .text.up_idle  0x000000000800929c        0x4 /home/einar/px4_firmware/src/Firmware/build_px4fmu-v2_default/px4io-v2/NuttX/nuttx-export/libs/libnuttx.a(arch-stm32_idle.o)
                0x000000000800929c                up_idle
 .text          0x00000000080092a0        0x0 /home/einar/px4_firmware/src/Firmware/build_px4fmu-v2_default/px4io-v2/NuttX/nuttx-export/libs/libnuttx.a(arch-stm32_lowputc.o)
 .text.up_lowputc
                0x00000000080092a0       0x18 /home/einar/px4_firmware/src/Firmware/build_px4fmu-v2_default/px4io-v2/NuttX/nuttx-export/libs/libnuttx.a(arch-stm32_lowputc.o)
                0x00000000080092a0                up_lowputc
 .text.stm32_lowsetup
                0x00000000080092b8       0x6c /home/einar/px4_firmware/src/Firmware/build_px4fmu-v2_default/px4io-v2/NuttX/nuttx-export/libs/libnuttx.a(arch-stm32_lowputc.o)
                0x00000000080092b8                stm32_lowsetup
 .text          0x0000000008009324        0x0 /home/einar/px4_firmware/src/Firmware/build_px4fmu-v2_default/px4io-v2/NuttX/nuttx-export/libs/libnuttx.a(arch-stm32_rcc.o)
 .text.stm32_clockconfig
                0x0000000008009324       0xe8 /home/einar/px4_firmware/src/Firmware/build_px4fmu-v2_default/px4io-v2/NuttX/nuttx-export/libs/libnuttx.a(arch-stm32_rcc.o)
                0x0000000008009324                stm32_clockconfig
 .text          0x000000000800940c        0x0 /home/einar/px4_firmware/src/Firmware/build_px4fmu-v2_default/px4io-v2/NuttX/nuttx-export/libs/libnuttx.a(arch-stm32_vectors.o)
 .text          0x000000000800940c        0x0 /home/einar/px4_firmware/src/Firmware/build_px4fmu-v2_default/px4io-v2/NuttX/nuttx-export/libs/libnuttx.a(arch-up_blocktask.o)
 .text.up_block_task
                0x000000000800940c       0x74 /home/einar/px4_firmware/src/Firmware/build_px4fmu-v2_default/px4io-v2/NuttX/nuttx-export/libs/libnuttx.a(arch-up_blocktask.o)
                0x000000000800940c                up_block_task
 .text          0x0000000008009480        0x0 /home/einar/px4_firmware/src/Firmware/build_px4fmu-v2_default/px4io-v2/NuttX/nuttx-export/libs/libnuttx.a(arch-up_copystate.o)
 .text.up_copystate
                0x0000000008009480       0x16 /home/einar/px4_firmware/src/Firmware/build_px4fmu-v2_default/px4io-v2/NuttX/nuttx-export/libs/libnuttx.a(arch-up_copystate.o)
                0x0000000008009480                up_copystate
 .text          0x0000000008009496        0x0 /home/einar/px4_firmware/src/Firmware/build_px4fmu-v2_default/px4io-v2/NuttX/nuttx-export/libs/libnuttx.a(arch-up_doirq.o)
 *fill*         0x0000000008009496        0x2 
 .text.up_doirq
                0x0000000008009498       0x2c /home/einar/px4_firmware/src/Firmware/build_px4fmu-v2_default/px4io-v2/NuttX/nuttx-export/libs/libnuttx.a(arch-up_doirq.o)
                0x0000000008009498                up_doirq
 .text          0x00000000080094c4        0x0 /home/einar/px4_firmware/src/Firmware/build_px4fmu-v2_default/px4io-v2/NuttX/nuttx-export/libs/libnuttx.a(arch-up_exit.o)
 .text._exit    0x00000000080094c4       0x1c /home/einar/px4_firmware/src/Firmware/build_px4fmu-v2_default/px4io-v2/NuttX/nuttx-export/libs/libnuttx.a(arch-up_exit.o)
                0x00000000080094c4                _exit
 .text          0x00000000080094e0        0xa /home/einar/px4_firmware/src/Firmware/build_px4fmu-v2_default/px4io-v2/NuttX/nuttx-export/libs/libnuttx.a(arch-up_fullcontextrestore.o)
                0x00000000080094e0                up_fullcontextrestore
 .text          0x00000000080094ea        0x0 /home/einar/px4_firmware/src/Firmware/build_px4fmu-v2_default/px4io-v2/NuttX/nuttx-export/libs/libnuttx.a(arch-up_initialize.o)
 *fill*         0x00000000080094ea        0x2 
 .text.up_initialize
                0x00000000080094ec       0x2c /home/einar/px4_firmware/src/Firmware/build_px4fmu-v2_default/px4io-v2/NuttX/nuttx-export/libs/libnuttx.a(arch-up_initialize.o)
                0x00000000080094ec                up_initialize
 .text          0x0000000008009518        0x0 /home/einar/px4_firmware/src/Firmware/build_px4fmu-v2_default/px4io-v2/NuttX/nuttx-export/libs/libnuttx.a(arch-up_initialstate.o)
 .text.up_initial_state
                0x0000000008009518       0x34 /home/einar/px4_firmware/src/Firmware/build_px4fmu-v2_default/px4io-v2/NuttX/nuttx-export/libs/libnuttx.a(arch-up_initialstate.o)
                0x0000000008009518                up_initial_state
 .text          0x000000000800954c        0x0 /home/einar/px4_firmware/src/Firmware/build_px4fmu-v2_default/px4io-v2/NuttX/nuttx-export/libs/libnuttx.a(arch-up_interruptcontext.o)
 .text.up_interrupt_context
                0x000000000800954c       0x10 /home/einar/px4_firmware/src/Firmware/build_px4fmu-v2_default/px4io-v2/NuttX/nuttx-export/libs/libnuttx.a(arch-up_interruptcontext.o)
                0x000000000800954c                up_interrupt_context
 .text          0x000000000800955c        0x0 /home/einar/px4_firmware/src/Firmware/build_px4fmu-v2_default/px4io-v2/NuttX/nuttx-export/libs/libnuttx.a(arch-up_mdelay.o)
 .text.up_mdelay
                0x000000000800955c       0x28 /home/einar/px4_firmware/src/Firmware/build_px4fmu-v2_default/px4io-v2/NuttX/nuttx-export/libs/libnuttx.a(arch-up_mdelay.o)
                0x000000000800955c                up_mdelay
 .text          0x0000000008009584        0xc /home/einar/px4_firmware/src/Firmware/build_px4fmu-v2_default/px4io-v2/NuttX/nuttx-export/libs/libnuttx.a(arch-up_switchcontext.o)
                0x0000000008009584                up_switchcontext
 .text          0x0000000008009590        0x0 /home/einar/px4_firmware/src/Firmware/build_px4fmu-v2_default/px4io-v2/NuttX/nuttx-export/libs/libnuttx.a(arch-up_unblocktask.o)
 .text.up_unblock_task
                0x0000000008009590       0x54 /home/einar/px4_firmware/src/Firmware/build_px4fmu-v2_default/px4io-v2/NuttX/nuttx-export/libs/libnuttx.a(arch-up_unblocktask.o)
                0x0000000008009590                up_unblock_task
 .text          0x00000000080095e4        0x0 /home/einar/px4_firmware/src/Firmware/build_px4fmu-v2_default/px4io-v2/NuttX/nuttx-export/libs/libnuttx.a(fs-fs_files.o)
 .text._files_close
                0x00000000080095e4       0x2a /home/einar/px4_firmware/src/Firmware/build_px4fmu-v2_default/px4io-v2/NuttX/nuttx-export/libs/libnuttx.a(fs-fs_files.o)
 *fill*         0x000000000800960e        0x2 
 .text._files_semtake
                0x0000000008009610       0x24 /home/einar/px4_firmware/src/Firmware/build_px4fmu-v2_default/px4io-v2/NuttX/nuttx-export/libs/libnuttx.a(fs-fs_files.o)
 .text.files_initialize
                0x0000000008009634        0x2 /home/einar/px4_firmware/src/Firmware/build_px4fmu-v2_default/px4io-v2/NuttX/nuttx-export/libs/libnuttx.a(fs-fs_files.o)
                0x0000000008009634                files_initialize
 .text.files_initlist
                0x0000000008009636        0x8 /home/einar/px4_firmware/src/Firmware/build_px4fmu-v2_default/px4io-v2/NuttX/nuttx-export/libs/libnuttx.a(fs-fs_files.o)
                0x0000000008009636                files_initlist
 .text.files_releaselist
                0x000000000800963e       0x20 /home/einar/px4_firmware/src/Firmware/build_px4fmu-v2_default/px4io-v2/NuttX/nuttx-export/libs/libnuttx.a(fs-fs_files.o)
                0x000000000800963e                files_releaselist
 .text.files_dup
                0x000000000800965e       0x80 /home/einar/px4_firmware/src/Firmware/build_px4fmu-v2_default/px4io-v2/NuttX/nuttx-export/libs/libnuttx.a(fs-fs_files.o)
                0x000000000800965e                files_dup
 .text.files_allocate
                0x00000000080096de       0x56 /home/einar/px4_firmware/src/Firmware/build_px4fmu-v2_default/px4io-v2/NuttX/nuttx-export/libs/libnuttx.a(fs-fs_files.o)
                0x00000000080096de                files_allocate
 .text.files_close
                0x0000000008009734       0x3a /home/einar/px4_firmware/src/Firmware/build_px4fmu-v2_default/px4io-v2/NuttX/nuttx-export/libs/libnuttx.a(fs-fs_files.o)
                0x0000000008009734                files_close
 .text.files_release
                0x000000000800976e       0x2e /home/einar/px4_firmware/src/Firmware/build_px4fmu-v2_default/px4io-v2/NuttX/nuttx-export/libs/libnuttx.a(fs-fs_files.o)
                0x000000000800976e                files_release
 .text          0x000000000800979c        0x0 /home/einar/px4_firmware/src/Firmware/build_px4fmu-v2_default/px4io-v2/NuttX/nuttx-export/libs/libnuttx.a(fs-fs_inodeaddref.o)
 .text.inode_addref
                0x000000000800979c       0x1a /home/einar/px4_firmware/src/Firmware/build_px4fmu-v2_default/px4io-v2/NuttX/nuttx-export/libs/libnuttx.a(fs-fs_inodeaddref.o)
                0x000000000800979c                inode_addref
 .text          0x00000000080097b6        0x0 /home/einar/px4_firmware/src/Firmware/build_px4fmu-v2_default/px4io-v2/NuttX/nuttx-export/libs/libnuttx.a(fs-fs_inodefind.o)
 .text.inode_find
                0x00000000080097b6       0x34 /home/einar/px4_firmware/src/Firmware/build_px4fmu-v2_default/px4io-v2/NuttX/nuttx-export/libs/libnuttx.a(fs-fs_inodefind.o)
                0x00000000080097b6                inode_find
 .text          0x00000000080097ea        0x0 /home/einar/px4_firmware/src/Firmware/build_px4fmu-v2_default/px4io-v2/NuttX/nuttx-export/libs/libnuttx.a(fs-fs_inode.o)
 *fill*         0x00000000080097ea        0x2 
 .text.fs_initialize
                0x00000000080097ec       0x20 /home/einar/px4_firmware/src/Firmware/build_px4fmu-v2_default/px4io-v2/NuttX/nuttx-export/libs/libnuttx.a(fs-fs_inode.o)
                0x00000000080097ec                fs_initialize
 .text.inode_semtake
                0x000000000800980c       0x28 /home/einar/px4_firmware/src/Firmware/build_px4fmu-v2_default/px4io-v2/NuttX/nuttx-export/libs/libnuttx.a(fs-fs_inode.o)
                0x000000000800980c                inode_semtake
 .text.inode_semgive
                0x0000000008009834        0xc /home/einar/px4_firmware/src/Firmware/build_px4fmu-v2_default/px4io-v2/NuttX/nuttx-export/libs/libnuttx.a(fs-fs_inode.o)
                0x0000000008009834                inode_semgive
 .text.inode_free
                0x0000000008009840       0x1e /home/einar/px4_firmware/src/Firmware/build_px4fmu-v2_default/px4io-v2/NuttX/nuttx-export/libs/libnuttx.a(fs-fs_inode.o)
                0x0000000008009840                inode_free
 .text.inode_nextname
                0x000000000800985e       0x12 /home/einar/px4_firmware/src/Firmware/build_px4fmu-v2_default/px4io-v2/NuttX/nuttx-export/libs/libnuttx.a(fs-fs_inode.o)
                0x000000000800985e                inode_nextname
 .text.inode_search
                0x0000000008009870       0xa4 /home/einar/px4_firmware/src/Firmware/build_px4fmu-v2_default/px4io-v2/NuttX/nuttx-export/libs/libnuttx.a(fs-fs_inode.o)
                0x0000000008009870                inode_search
 .text          0x0000000008009914        0x0 /home/einar/px4_firmware/src/Firmware/build_px4fmu-v2_default/px4io-v2/NuttX/nuttx-export/libs/libnuttx.a(fs-fs_inoderelease.o)
 .text.inode_release
                0x0000000008009914       0x3e /home/einar/px4_firmware/src/Firmware/build_px4fmu-v2_default/px4io-v2/NuttX/nuttx-export/libs/libnuttx.a(fs-fs_inoderelease.o)
                0x0000000008009914                inode_release
 .text          0x0000000008009952        0x0 /home/einar/px4_firmware/src/Firmware/build_px4fmu-v2_default/px4io-v2/NuttX/nuttx-export/libs/libnuttx.a(fs-fs_registerdriver.o)
 .text.register_driver
                0x0000000008009952       0x32 /home/einar/px4_firmware/src/Firmware/build_px4fmu-v2_default/px4io-v2/NuttX/nuttx-export/libs/libnuttx.a(fs-fs_registerdriver.o)
                0x0000000008009952                register_driver
 .text          0x0000000008009984        0x0 /home/einar/px4_firmware/src/Firmware/build_px4fmu-v2_default/px4io-v2/NuttX/nuttx-export/libs/libnuttx.a(drivers-dev_null.o)
 .text.devnull_read
                0x0000000008009984        0x4 /home/einar/px4_firmware/src/Firmware/build_px4fmu-v2_default/px4io-v2/NuttX/nuttx-export/libs/libnuttx.a(drivers-dev_null.o)
 .text.devnull_write
                0x0000000008009988        0x4 /home/einar/px4_firmware/src/Firmware/build_px4fmu-v2_default/px4io-v2/NuttX/nuttx-export/libs/libnuttx.a(drivers-dev_null.o)
 .text.devnull_register
                0x000000000800998c       0x18 /home/einar/px4_firmware/src/Firmware/build_px4fmu-v2_default/px4io-v2/NuttX/nuttx-export/libs/libnuttx.a(drivers-dev_null.o)
                0x000000000800998c                devnull_register
 .text          0x00000000080099a4        0x0 /home/einar/px4_firmware/src/Firmware/build_px4fmu-v2_default/px4io-v2/NuttX/nuttx-export/libs/libnuttx.a(sched-group_create.o)
 .text.group_allocate
                0x00000000080099a4       0x18 /home/einar/px4_firmware/src/Firmware/build_px4fmu-v2_default/px4io-v2/NuttX/nuttx-export/libs/libnuttx.a(sched-group_create.o)
                0x00000000080099a4                group_allocate
 .text.group_initialize
                0x00000000080099bc        0xa /home/einar/px4_firmware/src/Firmware/build_px4fmu-v2_default/px4io-v2/NuttX/nuttx-export/libs/libnuttx.a(sched-group_create.o)
                0x00000000080099bc                group_initialize
 .text          0x00000000080099c6        0x0 /home/einar/px4_firmware/src/Firmware/build_px4fmu-v2_default/px4io-v2/NuttX/nuttx-export/libs/libnuttx.a(sched-group_leave.o)
 .text.group_leave
                0x00000000080099c6       0x26 /home/einar/px4_firmware/src/Firmware/build_px4fmu-v2_default/px4io-v2/NuttX/nuttx-export/libs/libnuttx.a(sched-group_leave.o)
                0x00000000080099c6                group_leave
 .text          0x00000000080099ec        0x0 /home/einar/px4_firmware/src/Firmware/build_px4fmu-v2_default/px4io-v2/NuttX/nuttx-export/libs/libnuttx.a(sched-group_setupidlefiles.o)
 .text.group_setupidlefiles
                0x00000000080099ec       0x38 /home/einar/px4_firmware/src/Firmware/build_px4fmu-v2_default/px4io-v2/NuttX/nuttx-export/libs/libnuttx.a(sched-group_setupidlefiles.o)
                0x00000000080099ec                group_setupidlefiles
 .text          0x0000000008009a24        0x0 /home/einar/px4_firmware/src/Firmware/build_px4fmu-v2_default/px4io-v2/NuttX/nuttx-export/libs/libnuttx.a(sched-irq_dispatch.o)
 .text.irq_dispatch
                0x0000000008009a24       0x20 /home/einar/px4_firmware/src/Firmware/build_px4fmu-v2_default/px4io-v2/NuttX/nuttx-export/libs/libnuttx.a(sched-irq_dispatch.o)
                0x0000000008009a24                irq_dispatch
 .text          0x0000000008009a44        0x0 /home/einar/px4_firmware/src/Firmware/build_px4fmu-v2_default/px4io-v2/NuttX/nuttx-export/libs/libnuttx.a(sched-os_bringup.o)
 .text.os_bringup
                0x0000000008009a44       0x34 /home/einar/px4_firmware/src/Firmware/build_px4fmu-v2_default/px4io-v2/NuttX/nuttx-export/libs/libnuttx.a(sched-os_bringup.o)
                0x0000000008009a44                os_bringup
 .text          0x0000000008009a78        0x0 /home/einar/px4_firmware/src/Firmware/build_px4fmu-v2_default/px4io-v2/NuttX/nuttx-export/libs/libnuttx.a(sched-sched_addblocked.o)
 .text.sched_addblocked
                0x0000000008009a78       0x38 /home/einar/px4_firmware/src/Firmware/build_px4fmu-v2_default/px4io-v2/NuttX/nuttx-export/libs/libnuttx.a(sched-sched_addblocked.o)
                0x0000000008009a78                sched_addblocked
 .text          0x0000000008009ab0        0x0 /home/einar/px4_firmware/src/Firmware/build_px4fmu-v2_default/px4io-v2/NuttX/nuttx-export/libs/libnuttx.a(sched-sched_addprioritized.o)
 .text.sched_addprioritized
                0x0000000008009ab0       0x54 /home/einar/px4_firmware/src/Firmware/build_px4fmu-v2_default/px4io-v2/NuttX/nuttx-export/libs/libnuttx.a(sched-sched_addprioritized.o)
                0x0000000008009ab0                sched_addprioritized
 .text          0x0000000008009b04        0x0 /home/einar/px4_firmware/src/Firmware/build_px4fmu-v2_default/px4io-v2/NuttX/nuttx-export/libs/libnuttx.a(sched-sched_addreadytorun.o)
 .text.sched_addreadytorun
                0x0000000008009b04       0x60 /home/einar/px4_firmware/src/Firmware/build_px4fmu-v2_default/px4io-v2/NuttX/nuttx-export/libs/libnuttx.a(sched-sched_addreadytorun.o)
                0x0000000008009b04                sched_addreadytorun
 .text          0x0000000008009b64        0x0 /home/einar/px4_firmware/src/Firmware/build_px4fmu-v2_default/px4io-v2/NuttX/nuttx-export/libs/libnuttx.a(sched-sched_free.o)
 .text.sched_ufree
                0x0000000008009b64       0x3c /home/einar/px4_firmware/src/Firmware/build_px4fmu-v2_default/px4io-v2/NuttX/nuttx-export/libs/libnuttx.a(sched-sched_free.o)
                0x0000000008009b64                sched_ufree
 .text          0x0000000008009ba0        0x0 /home/einar/px4_firmware/src/Firmware/build_px4fmu-v2_default/px4io-v2/NuttX/nuttx-export/libs/libnuttx.a(sched-sched_mergepending.o)
 .text.sched_mergepending
                0x0000000008009ba0       0x64 /home/einar/px4_firmware/src/Firmware/build_px4fmu-v2_default/px4io-v2/NuttX/nuttx-export/libs/libnuttx.a(sched-sched_mergepending.o)
                0x0000000008009ba0                sched_mergepending
 .text          0x0000000008009c04        0x0 /home/einar/px4_firmware/src/Firmware/build_px4fmu-v2_default/px4io-v2/NuttX/nuttx-export/libs/libnuttx.a(sched-sched_removeblocked.o)
 .text.sched_removeblocked
                0x0000000008009c04       0x2c /home/einar/px4_firmware/src/Firmware/build_px4fmu-v2_default/px4io-v2/NuttX/nuttx-export/libs/libnuttx.a(sched-sched_removeblocked.o)
                0x0000000008009c04                sched_removeblocked
 .text          0x0000000008009c30        0x0 /home/einar/px4_firmware/src/Firmware/build_px4fmu-v2_default/px4io-v2/NuttX/nuttx-export/libs/libnuttx.a(sched-sched_removereadytorun.o)
 .text.sched_removereadytorun
                0x0000000008009c30       0x38 /home/einar/px4_firmware/src/Firmware/build_px4fmu-v2_default/px4io-v2/NuttX/nuttx-export/libs/libnuttx.a(sched-sched_removereadytorun.o)
                0x0000000008009c30                sched_removereadytorun
 .text          0x0000000008009c68        0x0 /home/einar/px4_firmware/src/Firmware/build_px4fmu-v2_default/px4io-v2/NuttX/nuttx-export/libs/libnuttx.a(sched-sem_destroy.o)
 .text.sem_destroy
                0x0000000008009c68       0x26 /home/einar/px4_firmware/src/Firmware/build_px4fmu-v2_default/px4io-v2/NuttX/nuttx-export/libs/libnuttx.a(sched-sem_destroy.o)
                0x0000000008009c68                sem_destroy
 .text          0x0000000008009c8e        0x0 /home/einar/px4_firmware/src/Firmware/build_px4fmu-v2_default/px4io-v2/NuttX/nuttx-export/libs/libnuttx.a(sched-task_create.o)
 *fill*         0x0000000008009c8e        0x2 
 .text.thread_create
                0x0000000008009c90       0xa8 /home/einar/px4_firmware/src/Firmware/build_px4fmu-v2_default/px4io-v2/NuttX/nuttx-export/libs/libnuttx.a(sched-task_create.o)
 .text.task_create
                0x0000000008009d38       0x1a /home/einar/px4_firmware/src/Firmware/build_px4fmu-v2_default/px4io-v2/NuttX/nuttx-export/libs/libnuttx.a(sched-task_create.o)
                0x0000000008009d38                task_create
 .text.kernel_thread
                0x0000000008009d52       0x1a /home/einar/px4_firmware/src/Firmware/build_px4fmu-v2_default/px4io-v2/NuttX/nuttx-export/libs/libnuttx.a(sched-task_create.o)
                0x0000000008009d52                kernel_thread
 .text          0x0000000008009d6c        0x0 /home/einar/px4_firmware/src/Firmware/build_px4fmu-v2_default/px4io-v2/NuttX/nuttx-export/libs/libnuttx.a(sched-task_exit.o)
 .text.task_exit
                0x0000000008009d6c       0x4c /home/einar/px4_firmware/src/Firmware/build_px4fmu-v2_default/px4io-v2/NuttX/nuttx-export/libs/libnuttx.a(sched-task_exit.o)
                0x0000000008009d6c                task_exit
 .text          0x0000000008009db8        0x0 /home/einar/px4_firmware/src/Firmware/build_px4fmu-v2_default/px4io-v2/NuttX/nuttx-export/libs/libnuttx.a(sched-task_setup.o)
 .text.task_schedsetup
                0x0000000008009db8       0xa4 /home/einar/px4_firmware/src/Firmware/build_px4fmu-v2_default/px4io-v2/NuttX/nuttx-export/libs/libnuttx.a(sched-task_setup.o)
                0x0000000008009db8                task_schedsetup
 .text.task_argsetup
                0x0000000008009e5c       0x5c /home/einar/px4_firmware/src/Firmware/build_px4fmu-v2_default/px4io-v2/NuttX/nuttx-export/libs/libnuttx.a(sched-task_setup.o)
                0x0000000008009e5c                task_argsetup
 .text          0x0000000008009eb8        0x0 /home/einar/px4_firmware/src/Firmware/build_px4fmu-v2_default/px4io-v2/NuttX/nuttx-export/libs/libnuttx.a(sched-task_start.o)
 .text.task_start
                0x0000000008009eb8       0x28 /home/einar/px4_firmware/src/Firmware/build_px4fmu-v2_default/px4io-v2/NuttX/nuttx-export/libs/libnuttx.a(sched-task_start.o)
                0x0000000008009eb8                task_start
 .text          0x0000000008009ee0        0x0 /home/einar/px4_firmware/src/Firmware/build_px4fmu-v2_default/px4io-v2/NuttX/nuttx-export/libs/libnuttx.a(sched-task_terminate.o)
 .text.task_terminate
                0x0000000008009ee0       0x78 /home/einar/px4_firmware/src/Firmware/build_px4fmu-v2_default/px4io-v2/NuttX/nuttx-export/libs/libnuttx.a(sched-task_terminate.o)
                0x0000000008009ee0                task_terminate
 .text          0x0000000008009f58        0x0 /home/einar/px4_firmware/src/Firmware/build_px4fmu-v2_default/px4io-v2/NuttX/nuttx-export/libs/libnuttx.a(c-dq_addlast.o)
 .text.dq_addlast
                0x0000000008009f58       0x18 /home/einar/px4_firmware/src/Firmware/build_px4fmu-v2_default/px4io-v2/NuttX/nuttx-export/libs/libnuttx.a(c-dq_addlast.o)
                0x0000000008009f58                dq_addlast
 .text          0x0000000008009f70        0x0 /home/einar/px4_firmware/src/Firmware/build_px4fmu-v2_default/px4io-v2/NuttX/nuttx-export/libs/libnuttx.a(c-dq_rem.o)
 .text.dq_rem   0x0000000008009f70       0x1c /home/einar/px4_firmware/src/Firmware/build_px4fmu-v2_default/px4io-v2/NuttX/nuttx-export/libs/libnuttx.a(c-dq_rem.o)
                0x0000000008009f70                dq_rem
 .text          0x0000000008009f8c        0x0 /home/einar/px4_firmware/src/Firmware/build_px4fmu-v2_default/px4io-v2/NuttX/nuttx-export/libs/libnuttx.a(c-lib_strdup.o)
 .text.strdup   0x0000000008009f8c       0x1c /home/einar/px4_firmware/src/Firmware/build_px4fmu-v2_default/px4io-v2/NuttX/nuttx-export/libs/libnuttx.a(c-lib_strdup.o)
                0x0000000008009f8c                strdup
 .text          0x0000000008009fa8        0x0 /home/einar/px4_firmware/src/Firmware/build_px4fmu-v2_default/px4io-v2/NuttX/nuttx-export/libs/libnuttx.a(arch-stm32_timerisr.o)
 .text.up_timerisr
                0x0000000008009fa8        0xa /home/einar/px4_firmware/src/Firmware/build_px4fmu-v2_default/px4io-v2/NuttX/nuttx-export/libs/libnuttx.a(arch-stm32_timerisr.o)
                0x0000000008009fa8                up_timerisr
 *fill*         0x0000000008009fb2        0x2 
 .text.up_timerinit
                0x0000000008009fb4       0x40 /home/einar/px4_firmware/src/Firmware/build_px4fmu-v2_default/px4io-v2/NuttX/nuttx-export/libs/libnuttx.a(arch-stm32_timerisr.o)
                0x0000000008009fb4                up_timerinit
 .text          0x0000000008009ff4        0x0 /home/einar/px4_firmware/src/Firmware/build_px4fmu-v2_default/px4io-v2/NuttX/nuttx-export/libs/libnuttx.a(arch-up_createstack.o)
 .text.up_create_stack
                0x0000000008009ff4       0x42 /home/einar/px4_firmware/src/Firmware/build_px4fmu-v2_default/px4io-v2/NuttX/nuttx-export/libs/libnuttx.a(arch-up_createstack.o)
                0x0000000008009ff4                up_create_stack
 .text          0x000000000800a036        0x0 /home/einar/px4_firmware/src/Firmware/build_px4fmu-v2_default/px4io-v2/NuttX/nuttx-export/libs/libnuttx.a(arch-up_releasestack.o)
 .text.up_release_stack
                0x000000000800a036       0x16 /home/einar/px4_firmware/src/Firmware/build_px4fmu-v2_default/px4io-v2/NuttX/nuttx-export/libs/libnuttx.a(arch-up_releasestack.o)
                0x000000000800a036                up_release_stack
 .text          0x000000000800a04c        0x0 /home/einar/px4_firmware/src/Firmware/build_px4fmu-v2_default/px4io-v2/NuttX/nuttx-export/libs/libnuttx.a(fs-fs_close.o)
 .text.close    0x000000000800a04c       0x24 /home/einar/px4_firmware/src/Firmware/build_px4fmu-v2_default/px4io-v2/NuttX/nuttx-export/libs/libnuttx.a(fs-fs_close.o)
                0x000000000800a04c                close
 .text          0x000000000800a070        0x0 /home/einar/px4_firmware/src/Firmware/build_px4fmu-v2_default/px4io-v2/NuttX/nuttx-export/libs/libnuttx.a(fs-fs_filedup2.o)
 .text.dup2     0x000000000800a070       0x4a /home/einar/px4_firmware/src/Firmware/build_px4fmu-v2_default/px4io-v2/NuttX/nuttx-export/libs/libnuttx.a(fs-fs_filedup2.o)
                0x000000000800a070                dup2
 .text          0x000000000800a0ba        0x0 /home/einar/px4_firmware/src/Firmware/build_px4fmu-v2_default/px4io-v2/NuttX/nuttx-export/libs/libnuttx.a(fs-fs_inodereserve.o)
 .text.inode_alloc
                0x000000000800a0ba       0x3c /home/einar/px4_firmware/src/Firmware/build_px4fmu-v2_default/px4io-v2/NuttX/nuttx-export/libs/libnuttx.a(fs-fs_inodereserve.o)
 *fill*         0x000000000800a0f6        0x2 
 .text.inode_reserve
                0x000000000800a0f8       0xa4 /home/einar/px4_firmware/src/Firmware/build_px4fmu-v2_default/px4io-v2/NuttX/nuttx-export/libs/libnuttx.a(fs-fs_inodereserve.o)
                0x000000000800a0f8                inode_reserve
 .text          0x000000000800a19c        0x0 /home/einar/px4_firmware/src/Firmware/build_px4fmu-v2_default/px4io-v2/NuttX/nuttx-export/libs/libnuttx.a(sched-group_setuptaskfiles.o)
 .text.group_setuptaskfiles
                0x000000000800a19c        0xe /home/einar/px4_firmware/src/Firmware/build_px4fmu-v2_default/px4io-v2/NuttX/nuttx-export/libs/libnuttx.a(sched-group_setuptaskfiles.o)
                0x000000000800a19c                group_setuptaskfiles
 .text          0x000000000800a1aa        0x0 /home/einar/px4_firmware/src/Firmware/build_px4fmu-v2_default/px4io-v2/NuttX/nuttx-export/libs/libnuttx.a(sched-sched_gettcb.o)
 *fill*         0x000000000800a1aa        0x2 
 .text.sched_gettcb
                0x000000000800a1ac       0x24 /home/einar/px4_firmware/src/Firmware/build_px4fmu-v2_default/px4io-v2/NuttX/nuttx-export/libs/libnuttx.a(sched-sched_gettcb.o)
                0x000000000800a1ac                sched_gettcb
 .text          0x000000000800a1d0        0x0 /home/einar/px4_firmware/src/Firmware/build_px4fmu-v2_default/px4io-v2/NuttX/nuttx-export/libs/libnuttx.a(sched-sched_lock.o)
 .text.sched_lock
                0x000000000800a1d0       0x30 /home/einar/px4_firmware/src/Firmware/build_px4fmu-v2_default/px4io-v2/NuttX/nuttx-export/libs/libnuttx.a(sched-sched_lock.o)
                0x000000000800a1d0                sched_lock
 .text          0x000000000800a200        0x0 /home/einar/px4_firmware/src/Firmware/build_px4fmu-v2_default/px4io-v2/NuttX/nuttx-export/libs/libnuttx.a(sched-sched_processtimer.o)
 .text.sched_process_timer
                0x000000000800a200       0x1c /home/einar/px4_firmware/src/Firmware/build_px4fmu-v2_default/px4io-v2/NuttX/nuttx-export/libs/libnuttx.a(sched-sched_processtimer.o)
                0x000000000800a200                sched_process_timer
 .text          0x000000000800a21c        0x0 /home/einar/px4_firmware/src/Firmware/build_px4fmu-v2_default/px4io-v2/NuttX/nuttx-export/libs/libnuttx.a(sched-sched_releasetcb.o)
 .text.sched_releasetcb
                0x000000000800a21c       0x54 /home/einar/px4_firmware/src/Firmware/build_px4fmu-v2_default/px4io-v2/NuttX/nuttx-export/libs/libnuttx.a(sched-sched_releasetcb.o)
                0x000000000800a21c                sched_releasetcb
 .text          0x000000000800a270        0x0 /home/einar/px4_firmware/src/Firmware/build_px4fmu-v2_default/px4io-v2/NuttX/nuttx-export/libs/libnuttx.a(sched-sched_unlock.o)
 .text.sched_unlock
                0x000000000800a270       0x48 /home/einar/px4_firmware/src/Firmware/build_px4fmu-v2_default/px4io-v2/NuttX/nuttx-export/libs/libnuttx.a(sched-sched_unlock.o)
                0x000000000800a270                sched_unlock
 .text          0x000000000800a2b8        0x0 /home/einar/px4_firmware/src/Firmware/build_px4fmu-v2_default/px4io-v2/NuttX/nuttx-export/libs/libnuttx.a(sched-task_activate.o)
 .text.task_activate
                0x000000000800a2b8       0x18 /home/einar/px4_firmware/src/Firmware/build_px4fmu-v2_default/px4io-v2/NuttX/nuttx-export/libs/libnuttx.a(sched-task_activate.o)
                0x000000000800a2b8                task_activate
 .text          0x000000000800a2d0        0x0 /home/einar/px4_firmware/src/Firmware/build_px4fmu-v2_default/px4io-v2/NuttX/nuttx-export/libs/libnuttx.a(arch-up_releasepending.o)
 .text.up_release_pending
                0x000000000800a2d0       0x38 /home/einar/px4_firmware/src/Firmware/build_px4fmu-v2_default/px4io-v2/NuttX/nuttx-export/libs/libnuttx.a(arch-up_releasepending.o)
                0x000000000800a2d0                up_release_pending
 .text          0x000000000800a308        0x0 /usr/bin/../lib/gcc/arm-none-eabi/4.9.3/../../../../arm-none-eabi/lib/armv7-m/libm.a(lib_a-sf_fmin.o)
 .text.fminf    0x000000000800a308       0x28 /usr/bin/../lib/gcc/arm-none-eabi/4.9.3/../../../../arm-none-eabi/lib/armv7-m/libm.a(lib_a-sf_fmin.o)
                0x000000000800a308                fminf
 .text          0x000000000800a330        0x0 /usr/bin/../lib/gcc/arm-none-eabi/4.9.3/../../../../arm-none-eabi/lib/armv7-m/libm.a(lib_a-sf_fpclassify.o)
 .text.__fpclassifyf
                0x000000000800a330       0x34 /usr/bin/../lib/gcc/arm-none-eabi/4.9.3/../../../../arm-none-eabi/lib/armv7-m/libm.a(lib_a-sf_fpclassify.o)
                0x000000000800a330                __fpclassifyf
 .text          0x000000000800a364        0x0 /usr/bin/../lib/gcc/arm-none-eabi/4.9.3/../../../../arm-none-eabi/lib/armv7-m/libm.a(lib_a-wf_sqrt.o)
 .text.sqrtf    0x000000000800a364       0x9c /usr/bin/../lib/gcc/arm-none-eabi/4.9.3/../../../../arm-none-eabi/lib/armv7-m/libm.a(lib_a-wf_sqrt.o)
                0x000000000800a364                sqrtf
 .text          0x000000000800a400        0x0 /usr/bin/../lib/gcc/arm-none-eabi/4.9.3/../../../../arm-none-eabi/lib/armv7-m/libm.a(lib_a-ef_sqrt.o)
 .text.__ieee754_sqrtf
                0x000000000800a400       0xa8 /usr/bin/../lib/gcc/arm-none-eabi/4.9.3/../../../../arm-none-eabi/lib/armv7-m/libm.a(lib_a-ef_sqrt.o)
                0x000000000800a400                __ieee754_sqrtf
 .text          0x000000000800a4a8        0x0 /usr/bin/../lib/gcc/arm-none-eabi/4.9.3/../../../../arm-none-eabi/lib/armv7-m/libm.a(lib_a-s_lib_ver.o)
 .text          0x000000000800a4a8        0x0 /usr/bin/../lib/gcc/arm-none-eabi/4.9.3/../../../../arm-none-eabi/lib/armv7-m/libm.a(lib_a-s_matherr.o)
 .text.matherr  0x000000000800a4a8        0x4 /usr/bin/../lib/gcc/arm-none-eabi/4.9.3/../../../../arm-none-eabi/lib/armv7-m/libm.a(lib_a-s_matherr.o)
                0x000000000800a4a8                matherr
 .text          0x000000000800a4ac       0x18 /usr/bin/../lib/gcc/arm-none-eabi/4.9.3/armv7-m/libgcc.a(_lshrdi3.o)
                0x000000000800a4ac                __aeabi_llsr
                0x000000000800a4ac                __lshrdi3
 .text          0x000000000800a4c4      0x370 /usr/bin/../lib/gcc/arm-none-eabi/4.9.3/armv7-m/libgcc.a(_arm_addsubdf3.o)
                0x000000000800a4c4                __aeabi_drsub
                0x000000000800a4cc                __aeabi_dsub
                0x000000000800a4cc                __subdf3
                0x000000000800a4d0                __adddf3
                0x000000000800a4d0                __aeabi_dadd
                0x000000000800a748                __aeabi_ui2d
                0x000000000800a748                __floatunsidf
                0x000000000800a768                __floatsidf
                0x000000000800a768                __aeabi_i2d
                0x000000000800a78c                __extendsfdf2
                0x000000000800a78c                __aeabi_f2d
                0x000000000800a7c8                __aeabi_ul2d
                0x000000000800a7c8                __floatundidf
                0x000000000800a7d8                __floatdidf
                0x000000000800a7d8                __aeabi_l2d
 .text          0x000000000800a834      0x424 /usr/bin/../lib/gcc/arm-none-eabi/4.9.3/armv7-m/libgcc.a(_arm_muldivdf3.o)
                0x000000000800a834                __aeabi_dmul
                0x000000000800a834                __muldf3
                0x000000000800aa88                __aeabi_ddiv
                0x000000000800aa88                __divdf3
 .text          0x000000000800ac58       0xa0 /usr/bin/../lib/gcc/arm-none-eabi/4.9.3/armv7-m/libgcc.a(_arm_truncdfsf2.o)
                0x000000000800ac58                __aeabi_d2f
                0x000000000800ac58                __truncdfsf2
 .text          0x000000000800acf8      0x21c /usr/bin/../lib/gcc/arm-none-eabi/4.9.3/armv7-m/libgcc.a(_arm_addsubsf3.o)
                0x000000000800acf8                __aeabi_frsub
                0x000000000800ad00                __subsf3
                0x000000000800ad00                __aeabi_fsub
                0x000000000800ad04                __aeabi_fadd
                0x000000000800ad04                __addsf3
                0x000000000800ae64                __aeabi_ui2f
                0x000000000800ae64                __floatunsisf
                0x000000000800ae6c                __aeabi_i2f
                0x000000000800ae6c                __floatsisf
                0x000000000800ae88                __floatundisf
                0x000000000800ae88                __aeabi_ul2f
                0x000000000800ae98                __floatdisf
                0x000000000800ae98                __aeabi_l2f
 .text          0x000000000800af14      0x2a0 /usr/bin/../lib/gcc/arm-none-eabi/4.9.3/armv7-m/libgcc.a(_arm_muldivsf3.o)
                0x000000000800af14                __mulsf3
                0x000000000800af14                __aeabi_fmul
                0x000000000800b07c                __divsf3
                0x000000000800b07c                __aeabi_fdiv
 .text          0x000000000800b1b4       0xec /usr/bin/../lib/gcc/arm-none-eabi/4.9.3/armv7-m/libgcc.a(_arm_cmpsf2.o)
                0x000000000800b1b4                __gtsf2
                0x000000000800b1b4                __gesf2
                0x000000000800b1bc                __lesf2
                0x000000000800b1bc                __ltsf2
                0x000000000800b1c4                __nesf2
                0x000000000800b1c4                __eqsf2
                0x000000000800b1c4                __cmpsf2
                0x000000000800b224                __aeabi_cfrcmple
                0x000000000800b22c                __aeabi_cfcmple
                0x000000000800b22c                __aeabi_cfcmpeq
                0x000000000800b23c                __aeabi_fcmpeq
                0x000000000800b250                __aeabi_fcmplt
                0x000000000800b264                __aeabi_fcmple
                0x000000000800b278                __aeabi_fcmpge
                0x000000000800b28c                __aeabi_fcmpgt
 .text          0x000000000800b2a0       0x2c /usr/bin/../lib/gcc/arm-none-eabi/4.9.3/armv7-m/libgcc.a(_arm_unordsf2.o)
                0x000000000800b2a0                __aeabi_fcmpun
                0x000000000800b2a0                __unordsf2
 .text          0x000000000800b2cc       0x4c /usr/bin/../lib/gcc/arm-none-eabi/4.9.3/armv7-m/libgcc.a(_arm_fixsfsi.o)
                0x000000000800b2cc                __fixsfsi
                0x000000000800b2cc                __aeabi_f2iz
 .text          0x000000000800b318       0x40 /usr/bin/../lib/gcc/arm-none-eabi/4.9.3/armv7-m/libgcc.a(_arm_fixunssfsi.o)
                0x000000000800b318                __aeabi_f2uiz
                0x000000000800b318                __fixunssfsi
 .text          0x000000000800b358       0x30 /usr/bin/../lib/gcc/arm-none-eabi/4.9.3/armv7-m/libgcc.a(_aeabi_uldivmod.o)
                0x000000000800b358                __aeabi_uldivmod
 .text          0x000000000800b388       0x60 /usr/bin/../lib/gcc/arm-none-eabi/4.9.3/armv7-m/libgcc.a(bpabi.o)
                0x000000000800b388                __gnu_ldivmod_helper
                0x000000000800b3b8                __gnu_uldivmod_helper
 .text          0x000000000800b3e8        0x4 /usr/bin/../lib/gcc/arm-none-eabi/4.9.3/armv7-m/libgcc.a(_dvmd_tls.o)
                0x000000000800b3e8                __aeabi_ldiv0
                0x000000000800b3e8                __aeabi_idiv0
 .text          0x000000000800b3ec      0x2ac /usr/bin/../lib/gcc/arm-none-eabi/4.9.3/armv7-m/libgcc.a(_divdi3.o)
                0x000000000800b3ec                __divdi3
 .text          0x000000000800b698      0x270 /usr/bin/../lib/gcc/arm-none-eabi/4.9.3/armv7-m/libgcc.a(_udivdi3.o)
                0x000000000800b698                __udivdi3
 *(.fixup)
 *(.gnu.warning)
 *(.rodata .rodata.*)
 .rodata.str1.4
                0x000000000800b908        0x4 CMakeFiles/px4io-v2.dir/adc.c.obj
 .rodata.str1.4
                0x000000000800b90c       0x45 CMakeFiles/px4io-v2.dir/controls.c.obj
 *fill*         0x000000000800b951        0x3 
 .rodata.masks.6041
                0x000000000800b954       0x1c CMakeFiles/px4io-v2.dir/dsm.c.obj
 .rodata.str1.4
                0x000000000800b970       0x7f CMakeFiles/px4io-v2.dir/px4io.c.obj
 *fill*         0x000000000800b9ef        0x1 
 .rodata.r_page_config
                0x000000000800b9f0       0x12 CMakeFiles/px4io-v2.dir/registers.c.obj
 *fill*         0x000000000800ba02        0x2 
 .rodata.str1.4
                0x000000000800ba04       0x35 CMakeFiles/px4io-v2.dir/registers.c.obj
 *fill*         0x000000000800ba39        0x3 
 .rodata.sbus_decoder
                0x000000000800ba3c       0xc0 CMakeFiles/px4io-v2.dir/sbus.c.obj
 .rodata.str1.4
                0x000000000800bafc       0x24 CMakeFiles/px4io-v2.dir/sbus.c.obj
 .rodata.str1.4
                0x000000000800bb20       0xe1 CMakeFiles/px4io-v2.dir/__/systemlib/perf_counter.c.obj
 *fill*         0x000000000800bc01        0x3 
 .rodata.str1.4
                0x000000000800bc04       0x64 CMakeFiles/px4io-v2.dir/mixer.cpp.obj
 .rodata._ZTV5Mixer
                0x000000000800bc68       0x18 CMakeFiles/px4io-v2.dir/__/systemlib/mixer/mixer.cpp.obj
                0x000000000800bc68                vtable for Mixer
 .rodata._ZTV9NullMixer
                0x000000000800bc80       0x18 CMakeFiles/px4io-v2.dir/__/systemlib/mixer/mixer.cpp.obj
                0x000000000800bc80                vtable for NullMixer
 .rodata._ZTV10MixerGroup
                0x000000000800bc98       0x18 CMakeFiles/px4io-v2.dir/__/systemlib/mixer/mixer_group.cpp.obj
                0x000000000800bc98                vtable for MixerGroup
 .rodata._ZN12_GLOBAL__N_1L13_config_tri_yE
                0x000000000800bcb0       0x30 CMakeFiles/px4io-v2.dir/__/systemlib/mixer/mixer_multirotor.cpp.obj
 .rodata._ZN12_GLOBAL__N_1L19_config_twin_engineE
                0x000000000800bce0       0x20 CMakeFiles/px4io-v2.dir/__/systemlib/mixer/mixer_multirotor.cpp.obj
 .rodata._ZN12_GLOBAL__N_1L13_config_hex_xE
                0x000000000800bd00       0x60 CMakeFiles/px4io-v2.dir/__/systemlib/mixer/mixer_multirotor.cpp.obj
 .rodata._ZN12_GLOBAL__N_1L15_config_hex_coxE
                0x000000000800bd60       0x60 CMakeFiles/px4io-v2.dir/__/systemlib/mixer/mixer_multirotor.cpp.obj
 .rodata._ZN12_GLOBAL__N_1L14_config_octa_xE
                0x000000000800bdc0       0x80 CMakeFiles/px4io-v2.dir/__/systemlib/mixer/mixer_multirotor.cpp.obj
 .rodata._ZN12_GLOBAL__N_1L19_config_rotor_countE
                0x000000000800be40       0x34 CMakeFiles/px4io-v2.dir/__/systemlib/mixer/mixer_multirotor.cpp.obj
 .rodata._ZN12_GLOBAL__N_1L20_config_quad_deadcatE
                0x000000000800be74       0x40 CMakeFiles/px4io-v2.dir/__/systemlib/mixer/mixer_multirotor.cpp.obj
 .rodata.str1.4
                0x000000000800beb4       0x47 CMakeFiles/px4io-v2.dir/__/systemlib/mixer/mixer_multirotor.cpp.obj
 *fill*         0x000000000800befb        0x1 
 .rodata._ZN12_GLOBAL__N_1L16_config_hex_plusE
                0x000000000800befc       0x60 CMakeFiles/px4io-v2.dir/__/systemlib/mixer/mixer_multirotor.cpp.obj
 .rodata._ZN12_GLOBAL__N_1L17_config_octa_plusE
                0x000000000800bf5c       0x80 CMakeFiles/px4io-v2.dir/__/systemlib/mixer/mixer_multirotor.cpp.obj
 .rodata._ZN12_GLOBAL__N_1L17_config_quad_plusE
                0x000000000800bfdc       0x40 CMakeFiles/px4io-v2.dir/__/systemlib/mixer/mixer_multirotor.cpp.obj
 .rodata._ZN12_GLOBAL__N_113_config_indexE
                0x000000000800c01c       0x34 CMakeFiles/px4io-v2.dir/__/systemlib/mixer/mixer_multirotor.cpp.obj
 .rodata._ZN12_GLOBAL__N_1L17_config_quad_wideE
                0x000000000800c050       0x40 CMakeFiles/px4io-v2.dir/__/systemlib/mixer/mixer_multirotor.cpp.obj
 .rodata._ZN12_GLOBAL__N_1L16_config_octa_coxE
                0x000000000800c090       0x80 CMakeFiles/px4io-v2.dir/__/systemlib/mixer/mixer_multirotor.cpp.obj
 .rodata._ZN12_GLOBAL__N_1L14_config_quad_vE
                0x000000000800c110       0x40 CMakeFiles/px4io-v2.dir/__/systemlib/mixer/mixer_multirotor.cpp.obj
 .rodata._ZN12_GLOBAL__N_1L14_config_quad_xE
                0x000000000800c150       0x40 CMakeFiles/px4io-v2.dir/__/systemlib/mixer/mixer_multirotor.cpp.obj
 .rodata._ZTV15MultirotorMixer
                0x000000000800c190       0x18 CMakeFiles/px4io-v2.dir/__/systemlib/mixer/mixer_multirotor.cpp.obj
                0x000000000800c190                vtable for MultirotorMixer
 .rodata._ZTV11SimpleMixer
                0x000000000800c1a8       0x18 CMakeFiles/px4io-v2.dir/__/systemlib/mixer/mixer_simple.cpp.obj
                0x000000000800c1a8                vtable for SimpleMixer
 .rodata.str1.4
                0x000000000800c1c0       0x38 CMakeFiles/px4io-v2.dir/__/systemlib/mixer/mixer_simple.cpp.obj
 .rodata.str1.4
                0x000000000800c1f8       0x41 CMakeFiles/px4io-v2.dir/__/__/lib/rc/st24.c.obj
 *fill*         0x000000000800c239        0x3 
 .rodata.str1.4
                0x000000000800c23c      0x24a CMakeFiles/px4io-v2.dir/__/__/lib/rc/sumd.c.obj
 .rodata.latency_bucket_count
                0x000000000800c486        0x2 CMakeFiles/px4io-v2.dir/__/__/drivers/stm32/drv_hrt.c.obj
                0x000000000800c486                latency_bucket_count
 .rodata.latency_buckets
                0x000000000800c488       0x10 CMakeFiles/px4io-v2.dir/__/__/drivers/stm32/drv_hrt.c.obj
                0x000000000800c488                latency_buckets
 .rodata.pwm_channels
                0x000000000800c498       0x40 CMakeFiles/px4io-v2.dir/__/__/drivers/boards/px4io-v2/px4io_pwm_servo.c.obj
                0x000000000800c498                pwm_channels
 .rodata.pwm_timers
                0x000000000800c4d8       0x40 CMakeFiles/px4io-v2.dir/__/__/drivers/boards/px4io-v2/px4io_pwm_servo.c.obj
                0x000000000800c4d8                pwm_timers
 .rodata.crc8_tab
                0x000000000800c518      0x100 CMakeFiles/px4io-v2.dir/serial.c.obj
 .rodata.str1.4
                0x000000000800c618       0x47 CMakeFiles/px4io-v2.dir/serial.c.obj
 .rodata.str1.1
                0x000000000800c65f       0x14 /home/einar/px4_firmware/src/Firmware/build_px4fmu-v2_default/px4io-v2/NuttX/nuttx-export/libs/libnuttx.a(sched-irq_unexpectedisr.o)
 *fill*         0x000000000800c673        0x1 
 .rodata.crc32_tab
                0x000000000800c674      0x400 /home/einar/px4_firmware/src/Firmware/build_px4fmu-v2_default/px4io-v2/NuttX/nuttx-export/libs/libnuttx.a(c-lib_crc32.o)
 .rodata.str1.1
                0x000000000800ca74       0x14 /home/einar/px4_firmware/src/Firmware/build_px4fmu-v2_default/px4io-v2/NuttX/nuttx-export/libs/libnuttx.a(c-lib_sscanf.o)
 .rodata.spaces
                0x000000000800ca88        0x7 /home/einar/px4_firmware/src/Firmware/build_px4fmu-v2_default/px4io-v2/NuttX/nuttx-export/libs/libnuttx.a(c-lib_sscanf.o)
 .rodata.str1.1
                0x000000000800ca8f        0x9 /home/einar/px4_firmware/src/Firmware/build_px4fmu-v2_default/px4io-v2/NuttX/nuttx-export/libs/libnuttx.a(mm-mm_sem.o)
 .rodata.str1.1
                0x000000000800ca98       0x17 /home/einar/px4_firmware/src/Firmware/build_px4fmu-v2_default/px4io-v2/NuttX/nuttx-export/libs/libnuttx.a(arch-stm32_dma.o)
 *fill*         0x000000000800caaf        0x1 
 .rodata.g_gpiobase
                0x000000000800cab0       0x10 /home/einar/px4_firmware/src/Firmware/build_px4fmu-v2_default/px4io-v2/NuttX/nuttx-export/libs/libnuttx.a(arch-stm32_gpio.o)
                0x000000000800cab0                g_gpiobase
 .rodata.str1.1
                0x000000000800cac0       0x23 /home/einar/px4_firmware/src/Firmware/build_px4fmu-v2_default/px4io-v2/NuttX/nuttx-export/libs/libnuttx.a(arch-stm32_serial.o)
 *fill*         0x000000000800cae3        0x1 
 .rodata.uart_devs
                0x000000000800cae4        0xc /home/einar/px4_firmware/src/Firmware/build_px4fmu-v2_default/px4io-v2/NuttX/nuttx-export/libs/libnuttx.a(arch-stm32_serial.o)
 .rodata.g_uart_ops
                0x000000000800caf0       0x34 /home/einar/px4_firmware/src/Firmware/build_px4fmu-v2_default/px4io-v2/NuttX/nuttx-export/libs/libnuttx.a(arch-stm32_serial.o)
 .rodata.g_uart_dma_ops
                0x000000000800cb24       0x34 /home/einar/px4_firmware/src/Firmware/build_px4fmu-v2_default/px4io-v2/NuttX/nuttx-export/libs/libnuttx.a(arch-stm32_serial.o)
 .rodata.str1.1
                0x000000000800cb58      0x135 /home/einar/px4_firmware/src/Firmware/build_px4fmu-v2_default/px4io-v2/NuttX/nuttx-export/libs/libnuttx.a(arch-up_assert.o)
 .rodata.str1.1
                0x000000000800cc8d       0x17 /home/einar/px4_firmware/src/Firmware/build_px4fmu-v2_default/px4io-v2/NuttX/nuttx-export/libs/libnuttx.a(arch-up_hardfault.o)
 .rodata.str1.1
                0x000000000800cca4       0x19 /home/einar/px4_firmware/src/Firmware/build_px4fmu-v2_default/px4io-v2/NuttX/nuttx-export/libs/libnuttx.a(cxx-libxx_cxapurevirtual.o)
 .rodata.str1.1
                0x000000000800ccbd       0x10 /home/einar/px4_firmware/src/Firmware/build_px4fmu-v2_default/px4io-v2/NuttX/nuttx-export/libs/libnuttx.a(drivers-serial.o)
 *fill*         0x000000000800cccd        0x3 
 .rodata.g_serialops
                0x000000000800ccd0       0x18 /home/einar/px4_firmware/src/Firmware/build_px4fmu-v2_default/px4io-v2/NuttX/nuttx-export/libs/libnuttx.a(drivers-serial.o)
 .rodata.g_idlename
                0x000000000800cce8        0xa /home/einar/px4_firmware/src/Firmware/build_px4fmu-v2_default/px4io-v2/NuttX/nuttx-export/libs/libnuttx.a(sched-os_start.o)
 *fill*         0x000000000800ccf2        0x2 
 .rodata.g_tasklisttable
                0x000000000800ccf4       0x30 /home/einar/px4_firmware/src/Firmware/build_px4fmu-v2_default/px4io-v2/NuttX/nuttx-export/libs/libnuttx.a(sched-os_start.o)
                0x000000000800ccf4                g_tasklisttable
 .rodata.str1.1
                0x000000000800cd24        0xb /home/einar/px4_firmware/src/Firmware/build_px4fmu-v2_default/px4io-v2/NuttX/nuttx-export/libs/libnuttx.a(sched-sem_post.o)
 .rodata.str1.1
                0x000000000800cd2f        0xb /home/einar/px4_firmware/src/Firmware/build_px4fmu-v2_default/px4io-v2/NuttX/nuttx-export/libs/libnuttx.a(sched-sem_wait.o)
 .rodata.str1.1
                0x000000000800cd3a        0xc /home/einar/px4_firmware/src/Firmware/build_px4fmu-v2_default/px4io-v2/NuttX/nuttx-export/libs/libnuttx.a(sched-wd_cancel.o)
 .rodata.g_nullstring
                0x000000000800cd46        0x7 /home/einar/px4_firmware/src/Firmware/build_px4fmu-v2_default/px4io-v2/NuttX/nuttx-export/libs/libnuttx.a(c-lib_libvsprintf.o)
 .rodata.str1.1
                0x000000000800cd4d       0x1c /home/einar/px4_firmware/src/Firmware/build_px4fmu-v2_default/px4io-v2/NuttX/nuttx-export/libs/libnuttx.a(c-lib_libvsprintf.o)
 .rodata        0x000000000800cd69        0x4 /home/einar/px4_firmware/src/Firmware/build_px4fmu-v2_default/px4io-v2/NuttX/nuttx-export/libs/libnuttx.a(arch-stm32_vectors.o)
                0x000000000800cd69                g_idle_topstack
 .rodata.str1.1
                0x000000000800cd6d       0x17 /home/einar/px4_firmware/src/Firmware/build_px4fmu-v2_default/px4io-v2/NuttX/nuttx-export/libs/libnuttx.a(arch-up_blocktask.o)
 .rodata.str1.1
                0x000000000800cd84       0x19 /home/einar/px4_firmware/src/Firmware/build_px4fmu-v2_default/px4io-v2/NuttX/nuttx-export/libs/libnuttx.a(arch-up_unblocktask.o)
 .rodata.str1.1
                0x000000000800cd9d        0xb /home/einar/px4_firmware/src/Firmware/build_px4fmu-v2_default/px4io-v2/NuttX/nuttx-export/libs/libnuttx.a(fs-fs_files.o)
 .rodata.str1.1
                0x000000000800cda8        0xb /home/einar/px4_firmware/src/Firmware/build_px4fmu-v2_default/px4io-v2/NuttX/nuttx-export/libs/libnuttx.a(fs-fs_inode.o)
 *fill*         0x000000000800cdb3        0x1 
 .rodata.devnull_fops
                0x000000000800cdb4       0x18 /home/einar/px4_firmware/src/Firmware/build_px4fmu-v2_default/px4io-v2/NuttX/nuttx-export/libs/libnuttx.a(drivers-dev_null.o)
 .rodata.str1.1
                0x000000000800cdcc        0xa /home/einar/px4_firmware/src/Firmware/build_px4fmu-v2_default/px4io-v2/NuttX/nuttx-export/libs/libnuttx.a(drivers-dev_null.o)
 .rodata.str1.1
                0x0000000000000000        0xd /home/einar/px4_firmware/src/Firmware/build_px4fmu-v2_default/px4io-v2/NuttX/nuttx-export/libs/libnuttx.a(sched-group_setupidlefiles.o)
 .rodata.str1.1
                0x000000000800cdd6       0x12 /home/einar/px4_firmware/src/Firmware/build_px4fmu-v2_default/px4io-v2/NuttX/nuttx-export/libs/libnuttx.a(sched-os_bringup.o)
 .rodata.str1.1
                0x000000000800cde8       0x13 /home/einar/px4_firmware/src/Firmware/build_px4fmu-v2_default/px4io-v2/NuttX/nuttx-export/libs/libnuttx.a(sched-sched_addblocked.o)
 .rodata.str1.1
                0x000000000800cdfb       0x17 /home/einar/px4_firmware/src/Firmware/build_px4fmu-v2_default/px4io-v2/NuttX/nuttx-export/libs/libnuttx.a(sched-sched_addprioritized.o)
 .rodata.str1.1
                0x000000000800ce12       0x16 /home/einar/px4_firmware/src/Firmware/build_px4fmu-v2_default/px4io-v2/NuttX/nuttx-export/libs/libnuttx.a(sched-sched_addreadytorun.o)
 .rodata.str1.1
                0x000000000800ce28       0x15 /home/einar/px4_firmware/src/Firmware/build_px4fmu-v2_default/px4io-v2/NuttX/nuttx-export/libs/libnuttx.a(sched-sched_mergepending.o)
 .rodata.str1.1
                0x000000000800ce3d       0x16 /home/einar/px4_firmware/src/Firmware/build_px4fmu-v2_default/px4io-v2/NuttX/nuttx-export/libs/libnuttx.a(sched-sched_removeblocked.o)
 .rodata.str1.1
                0x000000000800ce53       0x19 /home/einar/px4_firmware/src/Firmware/build_px4fmu-v2_default/px4io-v2/NuttX/nuttx-export/libs/libnuttx.a(sched-sched_removereadytorun.o)
 .rodata.g_noname
                0x000000000800ce6c        0x9 /home/einar/px4_firmware/src/Firmware/build_px4fmu-v2_default/px4io-v2/NuttX/nuttx-export/libs/libnuttx.a(sched-task_setup.o)
 .rodata.str1.1
                0x000000000800ce75       0x11 /home/einar/px4_firmware/src/Firmware/build_px4fmu-v2_default/px4io-v2/NuttX/nuttx-export/libs/libnuttx.a(sched-task_terminate.o)
 .rodata.str1.1
                0x000000000800ce86        0xd /home/einar/px4_firmware/src/Firmware/build_px4fmu-v2_default/px4io-v2/NuttX/nuttx-export/libs/libnuttx.a(sched-sched_lock.o)
 *fill*         0x000000000800ce93        0x1 
 .rodata.str1.4
                0x000000000800ce94        0x8 /usr/bin/../lib/gcc/arm-none-eabi/4.9.3/../../../../arm-none-eabi/lib/armv7-m/libm.a(lib_a-wf_sqrt.o)
                                          0x6 (size before relaxing)
 *(.gnu.linkonce.t.*)
 *(.glue_7)
 .glue_7        0x0000000000000000        0x0 linker stubs
 *(.glue_7t)
 .glue_7t       0x0000000000000000        0x0 linker stubs
 *(.got)
 *(.gcc_except_table)
 *(.gnu.linkonce.r.*)
                0x000000000800ce9c                _etext = ABSOLUTE (.)
                0x00000000080085ac                __errno = get_errno_ptr

.vfp11_veneer   0x000000000800ce9c        0x0
 .vfp11_veneer  0x0000000000000000        0x0 linker stubs

.v4_bx          0x000000000800ce9c        0x0
 .v4_bx         0x0000000000000000        0x0 linker stubs

.iplt           0x000000000800ce9c        0x0
 .iplt          0x0000000000000000        0x0 CMakeFiles/px4io-v2.dir/adc.c.obj

.init_section   0x000000000800ce9c        0x4
                0x000000000800ce9c                _sinit = ABSOLUTE (.)
 *(.init_array .init_array.*)
 .init_array    0x000000000800ce9c        0x4 CMakeFiles/px4io-v2.dir/mixer.cpp.obj
                0x000000000800cea0                _einit = ABSOLUTE (.)

.ARM.extab      0x000000000800cea0        0x0
 *(.ARM.extab*)
 .ARM.extab     0x000000000800cea0        0x0 /usr/bin/../lib/gcc/arm-none-eabi/4.9.3/armv7-m/libgcc.a(_divdi3.o)
 .ARM.extab     0x000000000800cea0        0x0 /usr/bin/../lib/gcc/arm-none-eabi/4.9.3/armv7-m/libgcc.a(_udivdi3.o)
                0x000000000800cea0                __exidx_start = ABSOLUTE (.)

.ARM.exidx      0x000000000800cea0        0x8
 *(.ARM.exidx*)
 .ARM.exidx     0x000000000800cea0        0x8 /usr/bin/../lib/gcc/arm-none-eabi/4.9.3/armv7-m/libgcc.a(_divdi3.o)
 .ARM.exidx     0x000000000800cea8        0x0 /usr/bin/../lib/gcc/arm-none-eabi/4.9.3/armv7-m/libgcc.a(_udivdi3.o)
                                          0x8 (size before relaxing)
                0x000000000800cea8                __exidx_end = ABSOLUTE (.)
                0x000000000800cea8                _eronly = ABSOLUTE (.)

.rel.dyn        0x000000000800cea8        0x0
 .rel.iplt      0x0000000000000000        0x0 CMakeFiles/px4io-v2.dir/adc.c.obj

.data           0x0000000020000000      0x228 load address 0x000000000800cea8
                0x0000000020000000                _sdata = ABSOLUTE (.)
 *(.data .data.*)
 .data          0x0000000020000000        0x0 CMakeFiles/px4io-v2.dir/adc.c.obj
 .data          0x0000000020000000        0x0 CMakeFiles/px4io-v2.dir/controls.c.obj
 .data          0x0000000020000000        0x0 CMakeFiles/px4io-v2.dir/dsm.c.obj
 .data.dsm_fd   0x0000000020000000        0x4 CMakeFiles/px4io-v2.dir/dsm.c.obj
 .data          0x0000000020000004        0x0 CMakeFiles/px4io-v2.dir/px4io.c.obj
 .data.brightness.6677
                0x0000000020000004        0x4 CMakeFiles/px4io-v2.dir/px4io.c.obj
 .data          0x0000000020000008        0x0 CMakeFiles/px4io-v2.dir/registers.c.obj
 .data.r_page_servo_control_min
                0x0000000020000008       0x10 CMakeFiles/px4io-v2.dir/registers.c.obj
                0x0000000020000008                r_page_servo_control_min
 .data.r_page_servo_control_max
                0x0000000020000018       0x10 CMakeFiles/px4io-v2.dir/registers.c.obj
                0x0000000020000018                r_page_servo_control_max
 .data.r_page_setup
                0x0000000020000028       0x26 CMakeFiles/px4io-v2.dir/registers.c.obj
                0x0000000020000028                r_page_setup
 .data          0x000000002000004e        0x0 CMakeFiles/px4io-v2.dir/safety.c.obj
 .data          0x000000002000004e        0x0 CMakeFiles/px4io-v2.dir/sbus.c.obj
 *fill*         0x000000002000004e        0x2 
 .data.sbus_fd  0x0000000020000050        0x4 CMakeFiles/px4io-v2.dir/sbus.c.obj
 .data          0x0000000020000054        0x0 CMakeFiles/px4io-v2.dir/__/systemlib/up_cxxinitialize.c.obj
 .data          0x0000000020000054        0x0 CMakeFiles/px4io-v2.dir/__/systemlib/perf_counter.c.obj
 .data          0x0000000020000054        0x0 CMakeFiles/px4io-v2.dir/mixer.cpp.obj
 .data          0x0000000020000054        0x0 CMakeFiles/px4io-v2.dir/__/systemlib/mixer/mixer.cpp.obj
 .data          0x0000000020000054        0x0 CMakeFiles/px4io-v2.dir/__/systemlib/mixer/mixer_group.cpp.obj
 .data          0x0000000020000054        0x0 CMakeFiles/px4io-v2.dir/__/systemlib/mixer/mixer_multirotor.cpp.obj
 .data          0x0000000020000054        0x0 CMakeFiles/px4io-v2.dir/__/systemlib/mixer/mixer_simple.cpp.obj
 .data          0x0000000020000054        0x0 CMakeFiles/px4io-v2.dir/__/systemlib/pwm_limit/pwm_limit.c.obj
 .data          0x0000000020000054        0x0 CMakeFiles/px4io-v2.dir/__/__/lib/rc/st24.c.obj
 .data.decode_states
                0x0000000020000054       0x18 CMakeFiles/px4io-v2.dir/__/__/lib/rc/st24.c.obj
                0x0000000020000054                decode_states
 .data          0x000000002000006c        0x0 CMakeFiles/px4io-v2.dir/__/__/lib/rc/sumd.c.obj
 .data._sumd    0x000000002000006c        0x1 CMakeFiles/px4io-v2.dir/__/__/lib/rc/sumd.c.obj
                0x000000002000006c                _sumd
 .data          0x000000002000006d        0x0 CMakeFiles/px4io-v2.dir/__/__/drivers/stm32/drv_hrt.c.obj
 .data          0x000000002000006d        0x0 CMakeFiles/px4io-v2.dir/__/__/drivers/stm32/drv_pwm_servo.c.obj
 .data          0x000000002000006d        0x0 CMakeFiles/px4io-v2.dir/__/__/drivers/boards/px4io-v2/px4io_init.c.obj
 .data          0x000000002000006d        0x0 CMakeFiles/px4io-v2.dir/__/__/drivers/boards/px4io-v2/px4io_pwm_servo.c.obj
 .data          0x000000002000006d        0x0 CMakeFiles/px4io-v2.dir/serial.c.obj
 .data          0x000000002000006d        0x0 CMakeFiles/px4io-v2.dir/__/systemlib/hx_stream.c.obj
 .data          0x000000002000006d        0x0 /home/einar/px4_firmware/src/Firmware/build_px4fmu-v2_default/px4io-v2/NuttX/nuttx-export/libs/libnuttx.a(sched-irq_attach.o)
 .data          0x000000002000006d        0x0 /home/einar/px4_firmware/src/Firmware/build_px4fmu-v2_default/px4io-v2/NuttX/nuttx-export/libs/libnuttx.a(sched-irq_initialize.o)
 .data          0x000000002000006d        0x0 /home/einar/px4_firmware/src/Firmware/build_px4fmu-v2_default/px4io-v2/NuttX/nuttx-export/libs/libnuttx.a(sched-irq_unexpectedisr.o)
 .data          0x000000002000006d        0x0 /home/einar/px4_firmware/src/Firmware/build_px4fmu-v2_default/px4io-v2/NuttX/nuttx-export/libs/libnuttx.a(c-lib_abort.o)
 .data          0x000000002000006d        0x0 /home/einar/px4_firmware/src/Firmware/build_px4fmu-v2_default/px4io-v2/NuttX/nuttx-export/libs/libnuttx.a(c-lib_cfsetspeed.o)
 .data          0x000000002000006d        0x0 /home/einar/px4_firmware/src/Firmware/build_px4fmu-v2_default/px4io-v2/NuttX/nuttx-export/libs/libnuttx.a(c-lib_crc32.o)
 .data          0x000000002000006d        0x0 /home/einar/px4_firmware/src/Firmware/build_px4fmu-v2_default/px4io-v2/NuttX/nuttx-export/libs/libnuttx.a(c-lib_dprintf.o)
 .data          0x000000002000006d        0x0 /home/einar/px4_firmware/src/Firmware/build_px4fmu-v2_default/px4io-v2/NuttX/nuttx-export/libs/libnuttx.a(c-lib_lowsyslog.o)
 .data          0x000000002000006d        0x0 /home/einar/px4_firmware/src/Firmware/build_px4fmu-v2_default/px4io-v2/NuttX/nuttx-export/libs/libnuttx.a(c-lib_memchr.o)
 .data          0x000000002000006d        0x0 /home/einar/px4_firmware/src/Firmware/build_px4fmu-v2_default/px4io-v2/NuttX/nuttx-export/libs/libnuttx.a(c-lib_memcpy.o)
 .data          0x000000002000006d        0x0 /home/einar/px4_firmware/src/Firmware/build_px4fmu-v2_default/px4io-v2/NuttX/nuttx-export/libs/libnuttx.a(c-lib_memset.o)
 .data          0x000000002000006d        0x0 /home/einar/px4_firmware/src/Firmware/build_px4fmu-v2_default/px4io-v2/NuttX/nuttx-export/libs/libnuttx.a(c-lib_printf.o)
 .data          0x000000002000006d        0x0 /home/einar/px4_firmware/src/Firmware/build_px4fmu-v2_default/px4io-v2/NuttX/nuttx-export/libs/libnuttx.a(c-lib_sscanf.o)
 .data          0x000000002000006d        0x0 /home/einar/px4_firmware/src/Firmware/build_px4fmu-v2_default/px4io-v2/NuttX/nuttx-export/libs/libnuttx.a(c-lib_strchr.o)
 .data          0x000000002000006d        0x0 /home/einar/px4_firmware/src/Firmware/build_px4fmu-v2_default/px4io-v2/NuttX/nuttx-export/libs/libnuttx.a(c-lib_strcmp.o)
 .data          0x000000002000006d        0x0 /home/einar/px4_firmware/src/Firmware/build_px4fmu-v2_default/px4io-v2/NuttX/nuttx-export/libs/libnuttx.a(c-lib_strcspn.o)
 .data          0x000000002000006d        0x0 /home/einar/px4_firmware/src/Firmware/build_px4fmu-v2_default/px4io-v2/NuttX/nuttx-export/libs/libnuttx.a(c-lib_strncpy.o)
 .data          0x000000002000006d        0x0 /home/einar/px4_firmware/src/Firmware/build_px4fmu-v2_default/px4io-v2/NuttX/nuttx-export/libs/libnuttx.a(c-lib_strtol.o)
 .data          0x000000002000006d        0x0 /home/einar/px4_firmware/src/Firmware/build_px4fmu-v2_default/px4io-v2/NuttX/nuttx-export/libs/libnuttx.a(c-lib_strtoul.o)
 .data          0x000000002000006d        0x0 /home/einar/px4_firmware/src/Firmware/build_px4fmu-v2_default/px4io-v2/NuttX/nuttx-export/libs/libnuttx.a(c-lib_syslog.o)
 .data          0x000000002000006d        0x0 /home/einar/px4_firmware/src/Firmware/build_px4fmu-v2_default/px4io-v2/NuttX/nuttx-export/libs/libnuttx.a(c-lib_tcgetattr.o)
 .data          0x000000002000006d        0x0 /home/einar/px4_firmware/src/Firmware/build_px4fmu-v2_default/px4io-v2/NuttX/nuttx-export/libs/libnuttx.a(c-lib_tcsetattr.o)
 .data          0x000000002000006d        0x0 /home/einar/px4_firmware/src/Firmware/build_px4fmu-v2_default/px4io-v2/NuttX/nuttx-export/libs/libnuttx.a(c-lib_vdprintf.o)
 .data          0x000000002000006d        0x0 /home/einar/px4_firmware/src/Firmware/build_px4fmu-v2_default/px4io-v2/NuttX/nuttx-export/libs/libnuttx.a(c-lib_vsnprintf.o)
 .data          0x000000002000006d        0x0 /home/einar/px4_firmware/src/Firmware/build_px4fmu-v2_default/px4io-v2/NuttX/nuttx-export/libs/libnuttx.a(c-sq_addafter.o)
 .data          0x000000002000006d        0x0 /home/einar/px4_firmware/src/Firmware/build_px4fmu-v2_default/px4io-v2/NuttX/nuttx-export/libs/libnuttx.a(c-sq_addfirst.o)
 .data          0x000000002000006d        0x0 /home/einar/px4_firmware/src/Firmware/build_px4fmu-v2_default/px4io-v2/NuttX/nuttx-export/libs/libnuttx.a(c-sq_addlast.o)
 .data          0x000000002000006d        0x0 /home/einar/px4_firmware/src/Firmware/build_px4fmu-v2_default/px4io-v2/NuttX/nuttx-export/libs/libnuttx.a(c-sq_rem.o)
 .data          0x000000002000006d        0x0 /home/einar/px4_firmware/src/Firmware/build_px4fmu-v2_default/px4io-v2/NuttX/nuttx-export/libs/libnuttx.a(mm-mm_calloc.o)
 .data          0x000000002000006d        0x0 /home/einar/px4_firmware/src/Firmware/build_px4fmu-v2_default/px4io-v2/NuttX/nuttx-export/libs/libnuttx.a(mm-mm_free.o)
 .data          0x000000002000006d        0x0 /home/einar/px4_firmware/src/Firmware/build_px4fmu-v2_default/px4io-v2/NuttX/nuttx-export/libs/libnuttx.a(mm-mm_mallinfo.o)
 .data          0x000000002000006d        0x0 /home/einar/px4_firmware/src/Firmware/build_px4fmu-v2_default/px4io-v2/NuttX/nuttx-export/libs/libnuttx.a(mm-mm_malloc.o)
 .data          0x000000002000006d        0x0 /home/einar/px4_firmware/src/Firmware/build_px4fmu-v2_default/px4io-v2/NuttX/nuttx-export/libs/libnuttx.a(mm-mm_sem.o)
 .data          0x000000002000006d        0x0 /home/einar/px4_firmware/src/Firmware/build_px4fmu-v2_default/px4io-v2/NuttX/nuttx-export/libs/libnuttx.a(mm-mm_size2ndx.o)
 .data          0x000000002000006d        0x0 /home/einar/px4_firmware/src/Firmware/build_px4fmu-v2_default/px4io-v2/NuttX/nuttx-export/libs/libnuttx.a(mm-mm_user.o)
 .data          0x000000002000006d        0x0 /home/einar/px4_firmware/src/Firmware/build_px4fmu-v2_default/px4io-v2/NuttX/nuttx-export/libs/libnuttx.a(mm-mm_zalloc.o)
 .data          0x000000002000006d        0x0 /home/einar/px4_firmware/src/Firmware/build_px4fmu-v2_default/px4io-v2/NuttX/nuttx-export/libs/libnuttx.a(arch-stm32_dma.o)
 *fill*         0x000000002000006d        0x3 
 .data.g_dma    0x0000000020000070       0x70 /home/einar/px4_firmware/src/Firmware/build_px4fmu-v2_default/px4io-v2/NuttX/nuttx-export/libs/libnuttx.a(arch-stm32_dma.o)
 .data          0x00000000200000e0        0x0 /home/einar/px4_firmware/src/Firmware/build_px4fmu-v2_default/px4io-v2/NuttX/nuttx-export/libs/libnuttx.a(arch-stm32_gpio.o)
 .data          0x00000000200000e0        0x0 /home/einar/px4_firmware/src/Firmware/build_px4fmu-v2_default/px4io-v2/NuttX/nuttx-export/libs/libnuttx.a(arch-stm32_irq.o)
 .data          0x00000000200000e0        0x0 /home/einar/px4_firmware/src/Firmware/build_px4fmu-v2_default/px4io-v2/NuttX/nuttx-export/libs/libnuttx.a(arch-stm32_serial.o)
 .data.g_usart1priv
                0x00000000200000e0       0x6c /home/einar/px4_firmware/src/Firmware/build_px4fmu-v2_default/px4io-v2/NuttX/nuttx-export/libs/libnuttx.a(arch-stm32_serial.o)
 .data.g_usart2priv
                0x000000002000014c       0x6c /home/einar/px4_firmware/src/Firmware/build_px4fmu-v2_default/px4io-v2/NuttX/nuttx-export/libs/libnuttx.a(arch-stm32_serial.o)
 .data.g_usart3priv
                0x00000000200001b8       0x6c /home/einar/px4_firmware/src/Firmware/build_px4fmu-v2_default/px4io-v2/NuttX/nuttx-export/libs/libnuttx.a(arch-stm32_serial.o)
 .data          0x0000000020000224        0x0 /home/einar/px4_firmware/src/Firmware/build_px4fmu-v2_default/px4io-v2/NuttX/nuttx-export/libs/libnuttx.a(arch-stm32_start.o)
 .data          0x0000000020000224        0x0 /home/einar/px4_firmware/src/Firmware/build_px4fmu-v2_default/px4io-v2/NuttX/nuttx-export/libs/libnuttx.a(arch-up_assert.o)
 .data          0x0000000020000224        0x0 /home/einar/px4_firmware/src/Firmware/build_px4fmu-v2_default/px4io-v2/NuttX/nuttx-export/libs/libnuttx.a(arch-up_exception.o)
 .data          0x0000000020000224        0x0 /home/einar/px4_firmware/src/Firmware/build_px4fmu-v2_default/px4io-v2/NuttX/nuttx-export/libs/libnuttx.a(arch-up_hardfault.o)
 .data          0x0000000020000224        0x0 /home/einar/px4_firmware/src/Firmware/build_px4fmu-v2_default/px4io-v2/NuttX/nuttx-export/libs/libnuttx.a(arch-up_modifyreg32.o)
 .data          0x0000000020000224        0x0 /home/einar/px4_firmware/src/Firmware/build_px4fmu-v2_default/px4io-v2/NuttX/nuttx-export/libs/libnuttx.a(arch-up_svcall.o)
 .data          0x0000000020000224        0x0 /home/einar/px4_firmware/src/Firmware/build_px4fmu-v2_default/px4io-v2/NuttX/nuttx-export/libs/libnuttx.a(arch-up_systemreset.o)
 .data          0x0000000020000224        0x0 /home/einar/px4_firmware/src/Firmware/build_px4fmu-v2_default/px4io-v2/NuttX/nuttx-export/libs/libnuttx.a(arch-up_udelay.o)
 .data          0x0000000020000224        0x0 /home/einar/px4_firmware/src/Firmware/build_px4fmu-v2_default/px4io-v2/NuttX/nuttx-export/libs/libnuttx.a(arch-up_vectors.o)
 .data          0x0000000020000224        0x0 /home/einar/px4_firmware/src/Firmware/build_px4fmu-v2_default/px4io-v2/NuttX/nuttx-export/libs/libnuttx.a(cxx-libxx_cxa_atexit.o)
 .data          0x0000000020000224        0x0 /home/einar/px4_firmware/src/Firmware/build_px4fmu-v2_default/px4io-v2/NuttX/nuttx-export/libs/libnuttx.a(cxx-libxx_cxapurevirtual.o)
 .data          0x0000000020000224        0x0 /home/einar/px4_firmware/src/Firmware/build_px4fmu-v2_default/px4io-v2/NuttX/nuttx-export/libs/libnuttx.a(cxx-libxx_delete.o)
 .data          0x0000000020000224        0x0 /home/einar/px4_firmware/src/Firmware/build_px4fmu-v2_default/px4io-v2/NuttX/nuttx-export/libs/libnuttx.a(cxx-libxx_eabi_atexit.o)
 .data          0x0000000020000224        0x0 /home/einar/px4_firmware/src/Firmware/build_px4fmu-v2_default/px4io-v2/NuttX/nuttx-export/libs/libnuttx.a(cxx-libxx_new.o)
 .data          0x0000000020000224        0x0 /home/einar/px4_firmware/src/Firmware/build_px4fmu-v2_default/px4io-v2/NuttX/nuttx-export/libs/libnuttx.a(fs-fs_ioctl.o)
 .data          0x0000000020000224        0x0 /home/einar/px4_firmware/src/Firmware/build_px4fmu-v2_default/px4io-v2/NuttX/nuttx-export/libs/libnuttx.a(fs-fs_open.o)
 .data          0x0000000020000224        0x0 /home/einar/px4_firmware/src/Firmware/build_px4fmu-v2_default/px4io-v2/NuttX/nuttx-export/libs/libnuttx.a(fs-fs_read.o)
 .data          0x0000000020000224        0x0 /home/einar/px4_firmware/src/Firmware/build_px4fmu-v2_default/px4io-v2/NuttX/nuttx-export/libs/libnuttx.a(fs-fs_write.o)
 .data          0x0000000020000224        0x0 /home/einar/px4_firmware/src/Firmware/build_px4fmu-v2_default/px4io-v2/NuttX/nuttx-export/libs/libnuttx.a(drivers-serialirq.o)
 .data          0x0000000020000224        0x0 /home/einar/px4_firmware/src/Firmware/build_px4fmu-v2_default/px4io-v2/NuttX/nuttx-export/libs/libnuttx.a(drivers-serial.o)
 .data          0x0000000020000224        0x0 /home/einar/px4_firmware/src/Firmware/build_px4fmu-v2_default/px4io-v2/NuttX/nuttx-export/libs/libnuttx.a(sched-errno_getptr.o)
 .data          0x0000000020000224        0x0 /home/einar/px4_firmware/src/Firmware/build_px4fmu-v2_default/px4io-v2/NuttX/nuttx-export/libs/libnuttx.a(sched-exit.o)
 .data          0x0000000020000224        0x0 /home/einar/px4_firmware/src/Firmware/build_px4fmu-v2_default/px4io-v2/NuttX/nuttx-export/libs/libnuttx.a(sched-getpid.o)
 .data          0x0000000020000224        0x0 /home/einar/px4_firmware/src/Firmware/build_px4fmu-v2_default/px4io-v2/NuttX/nuttx-export/libs/libnuttx.a(sched-os_start.o)
 .data          0x0000000020000224        0x0 /home/einar/px4_firmware/src/Firmware/build_px4fmu-v2_default/px4io-v2/NuttX/nuttx-export/libs/libnuttx.a(sched-sched_garbage.o)
 .data          0x0000000020000224        0x0 /home/einar/px4_firmware/src/Firmware/build_px4fmu-v2_default/px4io-v2/NuttX/nuttx-export/libs/libnuttx.a(sched-sched_getfiles.o)
 .data          0x0000000020000224        0x0 /home/einar/px4_firmware/src/Firmware/build_px4fmu-v2_default/px4io-v2/NuttX/nuttx-export/libs/libnuttx.a(sched-sem_post.o)
 .data          0x0000000020000224        0x0 /home/einar/px4_firmware/src/Firmware/build_px4fmu-v2_default/px4io-v2/NuttX/nuttx-export/libs/libnuttx.a(sched-sem_trywait.o)
 .data          0x0000000020000224        0x0 /home/einar/px4_firmware/src/Firmware/build_px4fmu-v2_default/px4io-v2/NuttX/nuttx-export/libs/libnuttx.a(sched-sem_wait.o)
 .data          0x0000000020000224        0x0 /home/einar/px4_firmware/src/Firmware/build_px4fmu-v2_default/px4io-v2/NuttX/nuttx-export/libs/libnuttx.a(sched-task_exithook.o)
 .data          0x0000000020000224        0x0 /home/einar/px4_firmware/src/Firmware/build_px4fmu-v2_default/px4io-v2/NuttX/nuttx-export/libs/libnuttx.a(sched-task_recover.o)
 .data          0x0000000020000224        0x0 /home/einar/px4_firmware/src/Firmware/build_px4fmu-v2_default/px4io-v2/NuttX/nuttx-export/libs/libnuttx.a(sched-wd_cancel.o)
 .data          0x0000000020000224        0x0 /home/einar/px4_firmware/src/Firmware/build_px4fmu-v2_default/px4io-v2/NuttX/nuttx-export/libs/libnuttx.a(sched-wd_delete.o)
 .data          0x0000000020000224        0x0 /home/einar/px4_firmware/src/Firmware/build_px4fmu-v2_default/px4io-v2/NuttX/nuttx-export/libs/libnuttx.a(sched-wd_initialize.o)
 .data          0x0000000020000224        0x0 /home/einar/px4_firmware/src/Firmware/build_px4fmu-v2_default/px4io-v2/NuttX/nuttx-export/libs/libnuttx.a(c-dq_addfirst.o)
 .data          0x0000000020000224        0x0 /home/einar/px4_firmware/src/Firmware/build_px4fmu-v2_default/px4io-v2/NuttX/nuttx-export/libs/libnuttx.a(c-lib_cfgetspeed.o)
 .data          0x0000000020000224        0x0 /home/einar/px4_firmware/src/Firmware/build_px4fmu-v2_default/px4io-v2/NuttX/nuttx-export/libs/libnuttx.a(c-lib_checkbase.o)
 .data          0x0000000020000224        0x0 /home/einar/px4_firmware/src/Firmware/build_px4fmu-v2_default/px4io-v2/NuttX/nuttx-export/libs/libnuttx.a(c-lib_isbasedigit.o)
 .data          0x0000000020000224        0x0 /home/einar/px4_firmware/src/Firmware/build_px4fmu-v2_default/px4io-v2/NuttX/nuttx-export/libs/libnuttx.a(c-lib_libvsprintf.o)
 .data          0x0000000020000224        0x0 /home/einar/px4_firmware/src/Firmware/build_px4fmu-v2_default/px4io-v2/NuttX/nuttx-export/libs/libnuttx.a(c-lib_lowoutstream.o)
 .data          0x0000000020000224        0x0 /home/einar/px4_firmware/src/Firmware/build_px4fmu-v2_default/px4io-v2/NuttX/nuttx-export/libs/libnuttx.a(c-lib_memoutstream.o)
 .data          0x0000000020000224        0x0 /home/einar/px4_firmware/src/Firmware/build_px4fmu-v2_default/px4io-v2/NuttX/nuttx-export/libs/libnuttx.a(c-lib_nulloutstream.o)
 .data          0x0000000020000224        0x0 /home/einar/px4_firmware/src/Firmware/build_px4fmu-v2_default/px4io-v2/NuttX/nuttx-export/libs/libnuttx.a(c-lib_rawoutstream.o)
 .data          0x0000000020000224        0x0 /home/einar/px4_firmware/src/Firmware/build_px4fmu-v2_default/px4io-v2/NuttX/nuttx-export/libs/libnuttx.a(c-lib_skipspace.o)
 .data          0x0000000020000224        0x0 /home/einar/px4_firmware/src/Firmware/build_px4fmu-v2_default/px4io-v2/NuttX/nuttx-export/libs/libnuttx.a(c-lib_strcpy.o)
 .data          0x0000000020000224        0x0 /home/einar/px4_firmware/src/Firmware/build_px4fmu-v2_default/px4io-v2/NuttX/nuttx-export/libs/libnuttx.a(c-lib_strlen.o)
 .data          0x0000000020000224        0x0 /home/einar/px4_firmware/src/Firmware/build_px4fmu-v2_default/px4io-v2/NuttX/nuttx-export/libs/libnuttx.a(c-sem_init.o)
 .data          0x0000000020000224        0x0 /home/einar/px4_firmware/src/Firmware/build_px4fmu-v2_default/px4io-v2/NuttX/nuttx-export/libs/libnuttx.a(c-sq_remafter.o)
 .data          0x0000000020000224        0x0 /home/einar/px4_firmware/src/Firmware/build_px4fmu-v2_default/px4io-v2/NuttX/nuttx-export/libs/libnuttx.a(c-sq_remfirst.o)
 .data          0x0000000020000224        0x0 /home/einar/px4_firmware/src/Firmware/build_px4fmu-v2_default/px4io-v2/NuttX/nuttx-export/libs/libnuttx.a(mm-mm_addfreechunk.o)
 .data          0x0000000020000224        0x0 /home/einar/px4_firmware/src/Firmware/build_px4fmu-v2_default/px4io-v2/NuttX/nuttx-export/libs/libnuttx.a(mm-mm_initialize.o)
 .data          0x0000000020000224        0x0 /home/einar/px4_firmware/src/Firmware/build_px4fmu-v2_default/px4io-v2/NuttX/nuttx-export/libs/libnuttx.a(arch-stm32_allocateheap.o)
 .data          0x0000000020000224        0x0 /home/einar/px4_firmware/src/Firmware/build_px4fmu-v2_default/px4io-v2/NuttX/nuttx-export/libs/libnuttx.a(arch-stm32_idle.o)
 .data          0x0000000020000224        0x0 /home/einar/px4_firmware/src/Firmware/build_px4fmu-v2_default/px4io-v2/NuttX/nuttx-export/libs/libnuttx.a(arch-stm32_lowputc.o)
 .data          0x0000000020000224        0x0 /home/einar/px4_firmware/src/Firmware/build_px4fmu-v2_default/px4io-v2/NuttX/nuttx-export/libs/libnuttx.a(arch-stm32_rcc.o)
 .data          0x0000000020000224        0x0 /home/einar/px4_firmware/src/Firmware/build_px4fmu-v2_default/px4io-v2/NuttX/nuttx-export/libs/libnuttx.a(arch-stm32_vectors.o)
 .data          0x0000000020000224        0x0 /home/einar/px4_firmware/src/Firmware/build_px4fmu-v2_default/px4io-v2/NuttX/nuttx-export/libs/libnuttx.a(arch-up_blocktask.o)
 .data          0x0000000020000224        0x0 /home/einar/px4_firmware/src/Firmware/build_px4fmu-v2_default/px4io-v2/NuttX/nuttx-export/libs/libnuttx.a(arch-up_copystate.o)
 .data          0x0000000020000224        0x0 /home/einar/px4_firmware/src/Firmware/build_px4fmu-v2_default/px4io-v2/NuttX/nuttx-export/libs/libnuttx.a(arch-up_doirq.o)
 .data          0x0000000020000224        0x0 /home/einar/px4_firmware/src/Firmware/build_px4fmu-v2_default/px4io-v2/NuttX/nuttx-export/libs/libnuttx.a(arch-up_exit.o)
 .data          0x0000000020000224        0x0 /home/einar/px4_firmware/src/Firmware/build_px4fmu-v2_default/px4io-v2/NuttX/nuttx-export/libs/libnuttx.a(arch-up_fullcontextrestore.o)
 .data          0x0000000020000224        0x0 /home/einar/px4_firmware/src/Firmware/build_px4fmu-v2_default/px4io-v2/NuttX/nuttx-export/libs/libnuttx.a(arch-up_initialize.o)
 .data          0x0000000020000224        0x0 /home/einar/px4_firmware/src/Firmware/build_px4fmu-v2_default/px4io-v2/NuttX/nuttx-export/libs/libnuttx.a(arch-up_initialstate.o)
 .data          0x0000000020000224        0x0 /home/einar/px4_firmware/src/Firmware/build_px4fmu-v2_default/px4io-v2/NuttX/nuttx-export/libs/libnuttx.a(arch-up_interruptcontext.o)
 .data          0x0000000020000224        0x0 /home/einar/px4_firmware/src/Firmware/build_px4fmu-v2_default/px4io-v2/NuttX/nuttx-export/libs/libnuttx.a(arch-up_mdelay.o)
 .data          0x0000000020000224        0x0 /home/einar/px4_firmware/src/Firmware/build_px4fmu-v2_default/px4io-v2/NuttX/nuttx-export/libs/libnuttx.a(arch-up_switchcontext.o)
 .data          0x0000000020000224        0x0 /home/einar/px4_firmware/src/Firmware/build_px4fmu-v2_default/px4io-v2/NuttX/nuttx-export/libs/libnuttx.a(arch-up_unblocktask.o)
 .data          0x0000000020000224        0x0 /home/einar/px4_firmware/src/Firmware/build_px4fmu-v2_default/px4io-v2/NuttX/nuttx-export/libs/libnuttx.a(fs-fs_files.o)
 .data          0x0000000020000224        0x0 /home/einar/px4_firmware/src/Firmware/build_px4fmu-v2_default/px4io-v2/NuttX/nuttx-export/libs/libnuttx.a(fs-fs_inodeaddref.o)
 .data          0x0000000020000224        0x0 /home/einar/px4_firmware/src/Firmware/build_px4fmu-v2_default/px4io-v2/NuttX/nuttx-export/libs/libnuttx.a(fs-fs_inodefind.o)
 .data          0x0000000020000224        0x0 /home/einar/px4_firmware/src/Firmware/build_px4fmu-v2_default/px4io-v2/NuttX/nuttx-export/libs/libnuttx.a(fs-fs_inode.o)
 .data          0x0000000020000224        0x0 /home/einar/px4_firmware/src/Firmware/build_px4fmu-v2_default/px4io-v2/NuttX/nuttx-export/libs/libnuttx.a(fs-fs_inoderelease.o)
 .data          0x0000000020000224        0x0 /home/einar/px4_firmware/src/Firmware/build_px4fmu-v2_default/px4io-v2/NuttX/nuttx-export/libs/libnuttx.a(fs-fs_registerdriver.o)
 .data          0x0000000020000224        0x0 /home/einar/px4_firmware/src/Firmware/build_px4fmu-v2_default/px4io-v2/NuttX/nuttx-export/libs/libnuttx.a(drivers-dev_null.o)
 .data          0x0000000020000224        0x0 /home/einar/px4_firmware/src/Firmware/build_px4fmu-v2_default/px4io-v2/NuttX/nuttx-export/libs/libnuttx.a(sched-group_create.o)
 .data          0x0000000020000224        0x0 /home/einar/px4_firmware/src/Firmware/build_px4fmu-v2_default/px4io-v2/NuttX/nuttx-export/libs/libnuttx.a(sched-group_leave.o)
 .data          0x0000000020000224        0x0 /home/einar/px4_firmware/src/Firmware/build_px4fmu-v2_default/px4io-v2/NuttX/nuttx-export/libs/libnuttx.a(sched-group_setupidlefiles.o)
 .data          0x0000000020000224        0x0 /home/einar/px4_firmware/src/Firmware/build_px4fmu-v2_default/px4io-v2/NuttX/nuttx-export/libs/libnuttx.a(sched-irq_dispatch.o)
 .data          0x0000000020000224        0x0 /home/einar/px4_firmware/src/Firmware/build_px4fmu-v2_default/px4io-v2/NuttX/nuttx-export/libs/libnuttx.a(sched-os_bringup.o)
 .data          0x0000000020000224        0x0 /home/einar/px4_firmware/src/Firmware/build_px4fmu-v2_default/px4io-v2/NuttX/nuttx-export/libs/libnuttx.a(sched-sched_addblocked.o)
 .data          0x0000000020000224        0x0 /home/einar/px4_firmware/src/Firmware/build_px4fmu-v2_default/px4io-v2/NuttX/nuttx-export/libs/libnuttx.a(sched-sched_addprioritized.o)
 .data          0x0000000020000224        0x0 /home/einar/px4_firmware/src/Firmware/build_px4fmu-v2_default/px4io-v2/NuttX/nuttx-export/libs/libnuttx.a(sched-sched_addreadytorun.o)
 .data          0x0000000020000224        0x0 /home/einar/px4_firmware/src/Firmware/build_px4fmu-v2_default/px4io-v2/NuttX/nuttx-export/libs/libnuttx.a(sched-sched_free.o)
 .data          0x0000000020000224        0x0 /home/einar/px4_firmware/src/Firmware/build_px4fmu-v2_default/px4io-v2/NuttX/nuttx-export/libs/libnuttx.a(sched-sched_mergepending.o)
 .data          0x0000000020000224        0x0 /home/einar/px4_firmware/src/Firmware/build_px4fmu-v2_default/px4io-v2/NuttX/nuttx-export/libs/libnuttx.a(sched-sched_removeblocked.o)
 .data          0x0000000020000224        0x0 /home/einar/px4_firmware/src/Firmware/build_px4fmu-v2_default/px4io-v2/NuttX/nuttx-export/libs/libnuttx.a(sched-sched_removereadytorun.o)
 .data          0x0000000020000224        0x0 /home/einar/px4_firmware/src/Firmware/build_px4fmu-v2_default/px4io-v2/NuttX/nuttx-export/libs/libnuttx.a(sched-sem_destroy.o)
 .data          0x0000000020000224        0x0 /home/einar/px4_firmware/src/Firmware/build_px4fmu-v2_default/px4io-v2/NuttX/nuttx-export/libs/libnuttx.a(sched-task_create.o)
 .data          0x0000000020000224        0x0 /home/einar/px4_firmware/src/Firmware/build_px4fmu-v2_default/px4io-v2/NuttX/nuttx-export/libs/libnuttx.a(sched-task_exit.o)
 .data          0x0000000020000224        0x0 /home/einar/px4_firmware/src/Firmware/build_px4fmu-v2_default/px4io-v2/NuttX/nuttx-export/libs/libnuttx.a(sched-task_setup.o)
 .data          0x0000000020000224        0x0 /home/einar/px4_firmware/src/Firmware/build_px4fmu-v2_default/px4io-v2/NuttX/nuttx-export/libs/libnuttx.a(sched-task_start.o)
 .data          0x0000000020000224        0x0 /home/einar/px4_firmware/src/Firmware/build_px4fmu-v2_default/px4io-v2/NuttX/nuttx-export/libs/libnuttx.a(sched-task_terminate.o)
 .data          0x0000000020000224        0x0 /home/einar/px4_firmware/src/Firmware/build_px4fmu-v2_default/px4io-v2/NuttX/nuttx-export/libs/libnuttx.a(c-dq_addlast.o)
 .data          0x0000000020000224        0x0 /home/einar/px4_firmware/src/Firmware/build_px4fmu-v2_default/px4io-v2/NuttX/nuttx-export/libs/libnuttx.a(c-dq_rem.o)
 .data          0x0000000020000224        0x0 /home/einar/px4_firmware/src/Firmware/build_px4fmu-v2_default/px4io-v2/NuttX/nuttx-export/libs/libnuttx.a(c-lib_strdup.o)
 .data          0x0000000020000224        0x0 /home/einar/px4_firmware/src/Firmware/build_px4fmu-v2_default/px4io-v2/NuttX/nuttx-export/libs/libnuttx.a(arch-stm32_timerisr.o)
 .data          0x0000000020000224        0x0 /home/einar/px4_firmware/src/Firmware/build_px4fmu-v2_default/px4io-v2/NuttX/nuttx-export/libs/libnuttx.a(arch-up_createstack.o)
 .data          0x0000000020000224        0x0 /home/einar/px4_firmware/src/Firmware/build_px4fmu-v2_default/px4io-v2/NuttX/nuttx-export/libs/libnuttx.a(arch-up_releasestack.o)
 .data          0x0000000020000224        0x0 /home/einar/px4_firmware/src/Firmware/build_px4fmu-v2_default/px4io-v2/NuttX/nuttx-export/libs/libnuttx.a(fs-fs_close.o)
 .data          0x0000000020000224        0x0 /home/einar/px4_firmware/src/Firmware/build_px4fmu-v2_default/px4io-v2/NuttX/nuttx-export/libs/libnuttx.a(fs-fs_filedup2.o)
 .data          0x0000000020000224        0x0 /home/einar/px4_firmware/src/Firmware/build_px4fmu-v2_default/px4io-v2/NuttX/nuttx-export/libs/libnuttx.a(fs-fs_inodereserve.o)
 .data          0x0000000020000224        0x0 /home/einar/px4_firmware/src/Firmware/build_px4fmu-v2_default/px4io-v2/NuttX/nuttx-export/libs/libnuttx.a(sched-group_setuptaskfiles.o)
 .data          0x0000000020000224        0x0 /home/einar/px4_firmware/src/Firmware/build_px4fmu-v2_default/px4io-v2/NuttX/nuttx-export/libs/libnuttx.a(sched-sched_gettcb.o)
 .data          0x0000000020000224        0x0 /home/einar/px4_firmware/src/Firmware/build_px4fmu-v2_default/px4io-v2/NuttX/nuttx-export/libs/libnuttx.a(sched-sched_lock.o)
 .data          0x0000000020000224        0x0 /home/einar/px4_firmware/src/Firmware/build_px4fmu-v2_default/px4io-v2/NuttX/nuttx-export/libs/libnuttx.a(sched-sched_processtimer.o)
 .data          0x0000000020000224        0x0 /home/einar/px4_firmware/src/Firmware/build_px4fmu-v2_default/px4io-v2/NuttX/nuttx-export/libs/libnuttx.a(sched-sched_releasetcb.o)
 .data          0x0000000020000224        0x0 /home/einar/px4_firmware/src/Firmware/build_px4fmu-v2_default/px4io-v2/NuttX/nuttx-export/libs/libnuttx.a(sched-sched_unlock.o)
 .data          0x0000000020000224        0x0 /home/einar/px4_firmware/src/Firmware/build_px4fmu-v2_default/px4io-v2/NuttX/nuttx-export/libs/libnuttx.a(sched-task_activate.o)
 .data          0x0000000020000224        0x0 /home/einar/px4_firmware/src/Firmware/build_px4fmu-v2_default/px4io-v2/NuttX/nuttx-export/libs/libnuttx.a(arch-up_releasepending.o)
 .data          0x0000000020000224        0x0 /usr/bin/../lib/gcc/arm-none-eabi/4.9.3/../../../../arm-none-eabi/lib/armv7-m/libm.a(lib_a-sf_fmin.o)
 .data          0x0000000020000224        0x0 /usr/bin/../lib/gcc/arm-none-eabi/4.9.3/../../../../arm-none-eabi/lib/armv7-m/libm.a(lib_a-sf_fpclassify.o)
 .data          0x0000000020000224        0x0 /usr/bin/../lib/gcc/arm-none-eabi/4.9.3/../../../../arm-none-eabi/lib/armv7-m/libm.a(lib_a-wf_sqrt.o)
 .data          0x0000000020000224        0x0 /usr/bin/../lib/gcc/arm-none-eabi/4.9.3/../../../../arm-none-eabi/lib/armv7-m/libm.a(lib_a-ef_sqrt.o)
 .data          0x0000000020000224        0x0 /usr/bin/../lib/gcc/arm-none-eabi/4.9.3/../../../../arm-none-eabi/lib/armv7-m/libm.a(lib_a-s_lib_ver.o)
 .data.__fdlib_version
                0x0000000020000224        0x1 /usr/bin/../lib/gcc/arm-none-eabi/4.9.3/../../../../arm-none-eabi/lib/armv7-m/libm.a(lib_a-s_lib_ver.o)
                0x0000000020000224                __fdlib_version
 .data          0x0000000020000225        0x0 /usr/bin/../lib/gcc/arm-none-eabi/4.9.3/../../../../arm-none-eabi/lib/armv7-m/libm.a(lib_a-s_matherr.o)
 .data          0x0000000020000225        0x0 /usr/bin/../lib/gcc/arm-none-eabi/4.9.3/armv7-m/libgcc.a(_lshrdi3.o)
 .data          0x0000000020000225        0x0 /usr/bin/../lib/gcc/arm-none-eabi/4.9.3/armv7-m/libgcc.a(_arm_addsubdf3.o)
 .data          0x0000000020000225        0x0 /usr/bin/../lib/gcc/arm-none-eabi/4.9.3/armv7-m/libgcc.a(_arm_muldivdf3.o)
 .data          0x0000000020000225        0x0 /usr/bin/../lib/gcc/arm-none-eabi/4.9.3/armv7-m/libgcc.a(_arm_truncdfsf2.o)
 .data          0x0000000020000225        0x0 /usr/bin/../lib/gcc/arm-none-eabi/4.9.3/armv7-m/libgcc.a(_arm_addsubsf3.o)
 .data          0x0000000020000225        0x0 /usr/bin/../lib/gcc/arm-none-eabi/4.9.3/armv7-m/libgcc.a(_arm_muldivsf3.o)
 .data          0x0000000020000225        0x0 /usr/bin/../lib/gcc/arm-none-eabi/4.9.3/armv7-m/libgcc.a(_arm_cmpsf2.o)
 .data          0x0000000020000225        0x0 /usr/bin/../lib/gcc/arm-none-eabi/4.9.3/armv7-m/libgcc.a(_arm_unordsf2.o)
 .data          0x0000000020000225        0x0 /usr/bin/../lib/gcc/arm-none-eabi/4.9.3/armv7-m/libgcc.a(_arm_fixsfsi.o)
 .data          0x0000000020000225        0x0 /usr/bin/../lib/gcc/arm-none-eabi/4.9.3/armv7-m/libgcc.a(_arm_fixunssfsi.o)
 .data          0x0000000020000225        0x0 /usr/bin/../lib/gcc/arm-none-eabi/4.9.3/armv7-m/libgcc.a(_aeabi_uldivmod.o)
 .data          0x0000000020000225        0x0 /usr/bin/../lib/gcc/arm-none-eabi/4.9.3/armv7-m/libgcc.a(bpabi.o)
 .data          0x0000000020000225        0x0 /usr/bin/../lib/gcc/arm-none-eabi/4.9.3/armv7-m/libgcc.a(_dvmd_tls.o)
 .data          0x0000000020000225        0x0 /usr/bin/../lib/gcc/arm-none-eabi/4.9.3/armv7-m/libgcc.a(_divdi3.o)
 .data          0x0000000020000225        0x0 /usr/bin/../lib/gcc/arm-none-eabi/4.9.3/armv7-m/libgcc.a(_udivdi3.o)
 *(.gnu.linkonce.d.*)
                0x0000000020000225                _edata = ABSOLUTE (.)
                0x0000000020000228                . = ALIGN (0x4)
 *fill*         0x0000000020000225        0x3 

.igot.plt       0x0000000020000228        0x0 load address 0x000000000800d0d0
 .igot.plt      0x0000000000000000        0x0 CMakeFiles/px4io-v2.dir/adc.c.obj

.bss            0x0000000020000230      0xd26 load address 0x000000000800d0d0
                0x0000000020000230                _sbss = ABSOLUTE (.)
 *(.bss .bss.*)
 .bss           0x0000000020000230        0x0 CMakeFiles/px4io-v2.dir/adc.c.obj
 .bss.adc_perf  0x0000000020000230        0x4 CMakeFiles/px4io-v2.dir/adc.c.obj
                0x0000000020000230                adc_perf
 .bss           0x0000000020000234        0x0 CMakeFiles/px4io-v2.dir/controls.c.obj
 .bss.c_gather_dsm
                0x0000000020000234        0x4 CMakeFiles/px4io-v2.dir/controls.c.obj
 .bss._rssi_adc_counts
                0x0000000020000238        0x4 CMakeFiles/px4io-v2.dir/controls.c.obj
 .bss.c_gather_ppm
                0x000000002000023c        0x4 CMakeFiles/px4io-v2.dir/controls.c.obj
 .bss.rc_value_override
                0x0000000020000240        0x2 CMakeFiles/px4io-v2.dir/controls.c.obj
 *fill*         0x0000000020000242        0x2 
 .bss._dsm_fd   0x0000000020000244        0x4 CMakeFiles/px4io-v2.dir/controls.c.obj
 .bss.c_gather_sbus
                0x0000000020000248        0x4 CMakeFiles/px4io-v2.dir/controls.c.obj
 .bss           0x000000002000024c        0x0 CMakeFiles/px4io-v2.dir/dsm.c.obj
 *fill*         0x000000002000024c        0x4 
 .bss.dsm_last_frame_time
                0x0000000020000250        0x8 CMakeFiles/px4io-v2.dir/dsm.c.obj
 .bss.dsm_partial_frame_count
                0x0000000020000258        0x4 CMakeFiles/px4io-v2.dir/dsm.c.obj
 *fill*         0x000000002000025c        0x4 
 .bss.dsm_last_rx_time
                0x0000000020000260        0x8 CMakeFiles/px4io-v2.dir/dsm.c.obj
 .bss.cs11.6031
                0x0000000020000268        0x4 CMakeFiles/px4io-v2.dir/dsm.c.obj
 .bss.dsm_frame
                0x000000002000026c       0x10 CMakeFiles/px4io-v2.dir/dsm.c.obj
 .bss.samples.6032
                0x000000002000027c        0x4 CMakeFiles/px4io-v2.dir/dsm.c.obj
 .bss.dsm_frame_drops
                0x0000000020000280        0x4 CMakeFiles/px4io-v2.dir/dsm.c.obj
 .bss.cs10.6030
                0x0000000020000284        0x4 CMakeFiles/px4io-v2.dir/dsm.c.obj
 .bss.dsm_channel_shift
                0x0000000020000288        0x4 CMakeFiles/px4io-v2.dir/dsm.c.obj
 .bss           0x000000002000028c        0x0 CMakeFiles/px4io-v2.dir/px4io.c.obj
 .bss.last_msg_counter
                0x000000002000028c        0x4 CMakeFiles/px4io-v2.dir/px4io.c.obj
 .bss.system_state
                0x0000000020000290       0x18 CMakeFiles/px4io-v2.dir/px4io.c.obj
                0x0000000020000290                system_state
 .bss.brightness_counter.6678
                0x00000000200002a8        0x4 CMakeFiles/px4io-v2.dir/px4io.c.obj
 *fill*         0x00000000200002ac        0x4 
 .bss.serial_dma_call
                0x00000000200002b0       0x20 CMakeFiles/px4io-v2.dir/px4io.c.obj
 .bss.on_counter.6679
                0x00000000200002d0        0x4 CMakeFiles/px4io-v2.dir/px4io.c.obj
 .bss.msg_counter
                0x00000000200002d4        0x4 CMakeFiles/px4io-v2.dir/px4io.c.obj
 .bss.msg       0x00000000200002d8       0x50 CMakeFiles/px4io-v2.dir/px4io.c.obj
 .bss.msg_next_in
                0x0000000020000328        0x1 CMakeFiles/px4io-v2.dir/px4io.c.obj
 .bss.msg_next_out
                0x0000000020000329        0x1 CMakeFiles/px4io-v2.dir/px4io.c.obj
 *fill*         0x000000002000032a        0x6 
 .bss.pwm_limit
                0x0000000020000330       0x10 CMakeFiles/px4io-v2.dir/px4io.c.obj
                0x0000000020000330                pwm_limit
 .bss.counter.6676
                0x0000000020000340        0x4 CMakeFiles/px4io-v2.dir/px4io.c.obj
 .bss.heartbeat.6671
                0x0000000020000344        0x1 CMakeFiles/px4io-v2.dir/px4io.c.obj
 *fill*         0x0000000020000345        0x3 
 .bss.reboot_time
                0x0000000020000348        0x8 CMakeFiles/px4io-v2.dir/px4io.c.obj
 .bss           0x0000000020000350        0x0 CMakeFiles/px4io-v2.dir/registers.c.obj
 .bss.r_page_rc_input
                0x0000000020000350       0x14 CMakeFiles/px4io-v2.dir/registers.c.obj
                0x0000000020000350                r_page_rc_input
 .bss.r_page_scratch
                0x0000000020000364       0x40 CMakeFiles/px4io-v2.dir/registers.c.obj
                0x0000000020000364                r_page_scratch
 .bss.r_page_servos
                0x00000000200003a4       0x10 CMakeFiles/px4io-v2.dir/registers.c.obj
                0x00000000200003a4                r_page_servos
 .bss.last_offset
                0x00000000200003b4        0x1 CMakeFiles/px4io-v2.dir/registers.c.obj
                0x00000000200003b4                last_offset
 *fill*         0x00000000200003b5        0x3 
 .bss.r_page_status
                0x00000000200003b8       0x14 CMakeFiles/px4io-v2.dir/registers.c.obj
                0x00000000200003b8                r_page_status
 .bss.r_page_rc_input_config
                0x00000000200003cc       0xd8 CMakeFiles/px4io-v2.dir/registers.c.obj
                0x00000000200003cc                r_page_rc_input_config
 .bss.r_page_servo_disarmed
                0x00000000200004a4       0x10 CMakeFiles/px4io-v2.dir/registers.c.obj
                0x00000000200004a4                r_page_servo_disarmed
 .bss.r_page_controls
                0x00000000200004b4       0x40 CMakeFiles/px4io-v2.dir/registers.c.obj
                0x00000000200004b4                r_page_controls
 .bss.r_page_servo_failsafe
                0x00000000200004f4       0x10 CMakeFiles/px4io-v2.dir/registers.c.obj
                0x00000000200004f4                r_page_servo_failsafe
 .bss.r_page_raw_rc_input
                0x0000000020000504       0x32 CMakeFiles/px4io-v2.dir/registers.c.obj
                0x0000000020000504                r_page_raw_rc_input
 .bss.last_page
                0x0000000020000536        0x1 CMakeFiles/px4io-v2.dir/registers.c.obj
                0x0000000020000536                last_page
 *fill*         0x0000000020000537        0x1 
 .bss.r_page_actuators
                0x0000000020000538       0x10 CMakeFiles/px4io-v2.dir/registers.c.obj
                0x0000000020000538                r_page_actuators
 .bss           0x0000000020000548        0x0 CMakeFiles/px4io-v2.dir/safety.c.obj
 .bss.failsafe.5478
                0x0000000020000548        0x1 CMakeFiles/px4io-v2.dir/safety.c.obj
 *fill*         0x0000000020000549        0x7 
 .bss.arming_call
                0x0000000020000550       0x20 CMakeFiles/px4io-v2.dir/safety.c.obj
 .bss.blink_counter
                0x0000000020000570        0x4 CMakeFiles/px4io-v2.dir/safety.c.obj
 .bss.safety_button_pressed
                0x0000000020000574        0x1 CMakeFiles/px4io-v2.dir/safety.c.obj
 *fill*         0x0000000020000575        0x3 
 .bss.failsafe_call
                0x0000000020000578       0x20 CMakeFiles/px4io-v2.dir/safety.c.obj
 .bss.counter   0x0000000020000598        0x4 CMakeFiles/px4io-v2.dir/safety.c.obj
 .bss           0x000000002000059c        0x0 CMakeFiles/px4io-v2.dir/sbus.c.obj
 .bss.frame     0x000000002000059c       0x19 CMakeFiles/px4io-v2.dir/sbus.c.obj
 *fill*         0x00000000200005b5        0x3 
 .bss.last_frame_time
                0x00000000200005b8        0x8 CMakeFiles/px4io-v2.dir/sbus.c.obj
 .bss.partial_frame_count
                0x00000000200005c0        0x4 CMakeFiles/px4io-v2.dir/sbus.c.obj
 *fill*         0x00000000200005c4        0x4 
 .bss.last_txframe_time
                0x00000000200005c8        0x8 CMakeFiles/px4io-v2.dir/sbus.c.obj
 .bss.last_rx_time
                0x00000000200005d0        0x8 CMakeFiles/px4io-v2.dir/sbus.c.obj
 .bss.sbus_frame_drops
                0x00000000200005d8        0x4 CMakeFiles/px4io-v2.dir/sbus.c.obj
                0x00000000200005d8                sbus_frame_drops
 .bss           0x00000000200005dc        0x0 CMakeFiles/px4io-v2.dir/__/systemlib/up_cxxinitialize.c.obj
 .bss           0x00000000200005dc        0x0 CMakeFiles/px4io-v2.dir/__/systemlib/perf_counter.c.obj
 .bss.perf_counters
                0x00000000200005dc        0x8 CMakeFiles/px4io-v2.dir/__/systemlib/perf_counter.c.obj
 .bss           0x00000000200005e4        0x0 CMakeFiles/px4io-v2.dir/mixer.cpp.obj
 .bss._ZL11mixer_group
                0x00000000200005e4       0x14 CMakeFiles/px4io-v2.dir/mixer.cpp.obj
 .bss._ZL17mixer_text_length
                0x00000000200005f8        0x4 CMakeFiles/px4io-v2.dir/mixer.cpp.obj
 .bss._ZL10should_arm
                0x00000000200005fc        0x1 CMakeFiles/px4io-v2.dir/mixer.cpp.obj
 .bss._ZL21should_arm_nothrottle
                0x00000000200005fd        0x1 CMakeFiles/px4io-v2.dir/mixer.cpp.obj
 .bss._ZL18mixer_servos_armed
                0x00000000200005fe        0x1 CMakeFiles/px4io-v2.dir/mixer.cpp.obj
 .bss._ZL24should_always_enable_pwm
                0x00000000200005ff        0x1 CMakeFiles/px4io-v2.dir/mixer.cpp.obj
 .bss._ZL10mixer_text
                0x0000000020000600      0x100 CMakeFiles/px4io-v2.dir/mixer.cpp.obj
 .bss._ZL8in_mixer
                0x0000000020000700        0x1 CMakeFiles/px4io-v2.dir/mixer.cpp.obj
 .bss._ZL6source
                0x0000000020000701        0x1 CMakeFiles/px4io-v2.dir/mixer.cpp.obj
 .bss           0x0000000020000702        0x0 CMakeFiles/px4io-v2.dir/__/systemlib/mixer/mixer.cpp.obj
 .bss           0x0000000020000702        0x0 CMakeFiles/px4io-v2.dir/__/systemlib/mixer/mixer_group.cpp.obj
 .bss           0x0000000020000702        0x0 CMakeFiles/px4io-v2.dir/__/systemlib/mixer/mixer_multirotor.cpp.obj
 .bss           0x0000000020000702        0x0 CMakeFiles/px4io-v2.dir/__/systemlib/mixer/mixer_simple.cpp.obj
 .bss           0x0000000020000702        0x0 CMakeFiles/px4io-v2.dir/__/systemlib/pwm_limit/pwm_limit.c.obj
 .bss           0x0000000020000702        0x0 CMakeFiles/px4io-v2.dir/__/__/lib/rc/st24.c.obj
 *fill*         0x0000000020000702        0x2 
 .bss._rxpacket
                0x0000000020000704       0x45 CMakeFiles/px4io-v2.dir/__/__/lib/rc/st24.c.obj
 .bss._decode_state
                0x0000000020000749        0x1 CMakeFiles/px4io-v2.dir/__/__/lib/rc/st24.c.obj
 .bss._rxlen    0x000000002000074a        0x1 CMakeFiles/px4io-v2.dir/__/__/lib/rc/st24.c.obj
 .bss           0x000000002000074b        0x0 CMakeFiles/px4io-v2.dir/__/__/lib/rc/sumd.c.obj
 *fill*         0x000000002000074b        0x1 
 .bss._crc16    0x000000002000074c        0x2 CMakeFiles/px4io-v2.dir/__/__/lib/rc/sumd.c.obj
                0x000000002000074c                _crc16
 .bss._crc8     0x000000002000074e        0x1 CMakeFiles/px4io-v2.dir/__/__/lib/rc/sumd.c.obj
                0x000000002000074e                _crc8
 .bss._debug    0x000000002000074f        0x1 CMakeFiles/px4io-v2.dir/__/__/lib/rc/sumd.c.obj
                0x000000002000074f                _debug
 .bss._crcOK    0x0000000020000750        0x1 CMakeFiles/px4io-v2.dir/__/__/lib/rc/sumd.c.obj
                0x0000000020000750                _crcOK
 *fill*         0x0000000020000751        0x3 
 .bss._rxpacket
                0x0000000020000754       0x47 CMakeFiles/px4io-v2.dir/__/__/lib/rc/sumd.c.obj
 .bss._decode_state
                0x000000002000079b        0x1 CMakeFiles/px4io-v2.dir/__/__/lib/rc/sumd.c.obj
 .bss._rxlen    0x000000002000079c        0x1 CMakeFiles/px4io-v2.dir/__/__/lib/rc/sumd.c.obj
 .bss           0x000000002000079d        0x0 CMakeFiles/px4io-v2.dir/__/__/drivers/stm32/drv_hrt.c.obj
 *fill*         0x000000002000079d        0x3 
 .bss.callout_queue
                0x00000000200007a0        0x8 CMakeFiles/px4io-v2.dir/__/__/drivers/stm32/drv_hrt.c.obj
 .bss.latency_counters
                0x00000000200007a8       0x24 CMakeFiles/px4io-v2.dir/__/__/drivers/stm32/drv_hrt.c.obj
                0x00000000200007a8                latency_counters
 .bss.ppm_frame_length
                0x00000000200007cc        0x2 CMakeFiles/px4io-v2.dir/__/__/drivers/stm32/drv_hrt.c.obj
                0x00000000200007cc                ppm_frame_length
 *fill*         0x00000000200007ce        0x2 
 .bss.ppm_decoded_channels
                0x00000000200007d0        0x4 CMakeFiles/px4io-v2.dir/__/__/drivers/stm32/drv_hrt.c.obj
                0x00000000200007d0                ppm_decoded_channels
 .bss.new_channel_holdoff.6000
                0x00000000200007d4        0x4 CMakeFiles/px4io-v2.dir/__/__/drivers/stm32/drv_hrt.c.obj
 .bss.base_time.6020
                0x00000000200007d8        0x8 CMakeFiles/px4io-v2.dir/__/__/drivers/stm32/drv_hrt.c.obj
 .bss.last_count.6021
                0x00000000200007e0        0x4 CMakeFiles/px4io-v2.dir/__/__/drivers/stm32/drv_hrt.c.obj
 .bss.latency_baseline
                0x00000000200007e4        0x2 CMakeFiles/px4io-v2.dir/__/__/drivers/stm32/drv_hrt.c.obj
 *fill*         0x00000000200007e6        0x2 
 .bss.ppm       0x00000000200007e8       0x10 CMakeFiles/px4io-v2.dir/__/__/drivers/stm32/drv_hrt.c.obj
                0x00000000200007e8                ppm
 .bss.ppm_temp_buffer
                0x00000000200007f8       0x28 CMakeFiles/px4io-v2.dir/__/__/drivers/stm32/drv_hrt.c.obj
 .bss.ppm_last_valid_decode
                0x0000000020000820        0x8 CMakeFiles/px4io-v2.dir/__/__/drivers/stm32/drv_hrt.c.obj
                0x0000000020000820                ppm_last_valid_decode
 .bss.latency_actual
                0x0000000020000828        0x2 CMakeFiles/px4io-v2.dir/__/__/drivers/stm32/drv_hrt.c.obj
 *fill*         0x000000002000082a        0x2 
 .bss.ppm_buffer
                0x000000002000082c       0x28 CMakeFiles/px4io-v2.dir/__/__/drivers/stm32/drv_hrt.c.obj
                0x000000002000082c                ppm_buffer
 .bss.new_channel_count.5999
                0x0000000020000854        0x4 CMakeFiles/px4io-v2.dir/__/__/drivers/stm32/drv_hrt.c.obj
 .bss           0x0000000020000858        0x0 CMakeFiles/px4io-v2.dir/__/__/drivers/stm32/drv_pwm_servo.c.obj
 .bss           0x0000000020000858        0x0 CMakeFiles/px4io-v2.dir/__/__/drivers/boards/px4io-v2/px4io_init.c.obj
 .bss           0x0000000020000858        0x0 CMakeFiles/px4io-v2.dir/__/__/drivers/boards/px4io-v2/px4io_pwm_servo.c.obj
 .bss           0x0000000020000858        0x0 CMakeFiles/px4io-v2.dir/serial.c.obj
 .bss.pc_badidle
                0x0000000020000858        0x4 CMakeFiles/px4io-v2.dir/serial.c.obj
 .bss.rx_dma    0x000000002000085c        0x4 CMakeFiles/px4io-v2.dir/serial.c.obj
 .bss.pc_txns   0x0000000020000860        0x4 CMakeFiles/px4io-v2.dir/serial.c.obj
 .bss.pc_crcerr
                0x0000000020000864        0x4 CMakeFiles/px4io-v2.dir/serial.c.obj
 .bss.abort_on_idle.6533
                0x0000000020000868        0x1 CMakeFiles/px4io-v2.dir/serial.c.obj
 *fill*         0x0000000020000869        0x3 
 .bss.pc_errors
                0x000000002000086c        0x4 CMakeFiles/px4io-v2.dir/serial.c.obj
 .bss.pc_fe     0x0000000020000870        0x4 CMakeFiles/px4io-v2.dir/serial.c.obj
 .bss.dma_packet
                0x0000000020000874       0x44 CMakeFiles/px4io-v2.dir/serial.c.obj
 .bss.tx_dma    0x00000000200008b8        0x4 CMakeFiles/px4io-v2.dir/serial.c.obj
 .bss.pc_ne     0x00000000200008bc        0x4 CMakeFiles/px4io-v2.dir/serial.c.obj
 .bss.pc_regerr
                0x00000000200008c0        0x4 CMakeFiles/px4io-v2.dir/serial.c.obj
 .bss.pc_ore    0x00000000200008c4        0x4 CMakeFiles/px4io-v2.dir/serial.c.obj
 .bss.pc_idle   0x00000000200008c8        0x4 CMakeFiles/px4io-v2.dir/serial.c.obj
 .bss           0x00000000200008cc        0x0 CMakeFiles/px4io-v2.dir/__/systemlib/hx_stream.c.obj
 .bss           0x00000000200008cc        0x0 /home/einar/px4_firmware/src/Firmware/build_px4fmu-v2_default/px4io-v2/NuttX/nuttx-export/libs/libnuttx.a(sched-irq_attach.o)
 .bss           0x00000000200008cc        0x0 /home/einar/px4_firmware/src/Firmware/build_px4fmu-v2_default/px4io-v2/NuttX/nuttx-export/libs/libnuttx.a(sched-irq_initialize.o)
 .bss.g_irqvector
                0x00000000200008cc      0x138 /home/einar/px4_firmware/src/Firmware/build_px4fmu-v2_default/px4io-v2/NuttX/nuttx-export/libs/libnuttx.a(sched-irq_initialize.o)
                0x00000000200008cc                g_irqvector
 .bss           0x0000000020000a04        0x0 /home/einar/px4_firmware/src/Firmware/build_px4fmu-v2_default/px4io-v2/NuttX/nuttx-export/libs/libnuttx.a(sched-irq_unexpectedisr.o)
 .bss           0x0000000020000a04        0x0 /home/einar/px4_firmware/src/Firmware/build_px4fmu-v2_default/px4io-v2/NuttX/nuttx-export/libs/libnuttx.a(c-lib_abort.o)
 .bss           0x0000000020000a04        0x0 /home/einar/px4_firmware/src/Firmware/build_px4fmu-v2_default/px4io-v2/NuttX/nuttx-export/libs/libnuttx.a(c-lib_cfsetspeed.o)
 .bss           0x0000000020000a04        0x0 /home/einar/px4_firmware/src/Firmware/build_px4fmu-v2_default/px4io-v2/NuttX/nuttx-export/libs/libnuttx.a(c-lib_crc32.o)
 .bss           0x0000000020000a04        0x0 /home/einar/px4_firmware/src/Firmware/build_px4fmu-v2_default/px4io-v2/NuttX/nuttx-export/libs/libnuttx.a(c-lib_dprintf.o)
 .bss           0x0000000020000a04        0x0 /home/einar/px4_firmware/src/Firmware/build_px4fmu-v2_default/px4io-v2/NuttX/nuttx-export/libs/libnuttx.a(c-lib_lowsyslog.o)
 .bss           0x0000000020000a04        0x0 /home/einar/px4_firmware/src/Firmware/build_px4fmu-v2_default/px4io-v2/NuttX/nuttx-export/libs/libnuttx.a(c-lib_memchr.o)
 .bss           0x0000000020000a04        0x0 /home/einar/px4_firmware/src/Firmware/build_px4fmu-v2_default/px4io-v2/NuttX/nuttx-export/libs/libnuttx.a(c-lib_memcpy.o)
 .bss           0x0000000020000a04        0x0 /home/einar/px4_firmware/src/Firmware/build_px4fmu-v2_default/px4io-v2/NuttX/nuttx-export/libs/libnuttx.a(c-lib_memset.o)
 .bss           0x0000000020000a04        0x0 /home/einar/px4_firmware/src/Firmware/build_px4fmu-v2_default/px4io-v2/NuttX/nuttx-export/libs/libnuttx.a(c-lib_printf.o)
 .bss           0x0000000020000a04        0x0 /home/einar/px4_firmware/src/Firmware/build_px4fmu-v2_default/px4io-v2/NuttX/nuttx-export/libs/libnuttx.a(c-lib_sscanf.o)
 .bss           0x0000000020000a04        0x0 /home/einar/px4_firmware/src/Firmware/build_px4fmu-v2_default/px4io-v2/NuttX/nuttx-export/libs/libnuttx.a(c-lib_strchr.o)
 .bss           0x0000000020000a04        0x0 /home/einar/px4_firmware/src/Firmware/build_px4fmu-v2_default/px4io-v2/NuttX/nuttx-export/libs/libnuttx.a(c-lib_strcmp.o)
 .bss           0x0000000020000a04        0x0 /home/einar/px4_firmware/src/Firmware/build_px4fmu-v2_default/px4io-v2/NuttX/nuttx-export/libs/libnuttx.a(c-lib_strcspn.o)
 .bss           0x0000000020000a04        0x0 /home/einar/px4_firmware/src/Firmware/build_px4fmu-v2_default/px4io-v2/NuttX/nuttx-export/libs/libnuttx.a(c-lib_strncpy.o)
 .bss           0x0000000020000a04        0x0 /home/einar/px4_firmware/src/Firmware/build_px4fmu-v2_default/px4io-v2/NuttX/nuttx-export/libs/libnuttx.a(c-lib_strtol.o)
 .bss           0x0000000020000a04        0x0 /home/einar/px4_firmware/src/Firmware/build_px4fmu-v2_default/px4io-v2/NuttX/nuttx-export/libs/libnuttx.a(c-lib_strtoul.o)
 .bss           0x0000000020000a04        0x0 /home/einar/px4_firmware/src/Firmware/build_px4fmu-v2_default/px4io-v2/NuttX/nuttx-export/libs/libnuttx.a(c-lib_syslog.o)
 .bss           0x0000000020000a04        0x0 /home/einar/px4_firmware/src/Firmware/build_px4fmu-v2_default/px4io-v2/NuttX/nuttx-export/libs/libnuttx.a(c-lib_tcgetattr.o)
 .bss           0x0000000020000a04        0x0 /home/einar/px4_firmware/src/Firmware/build_px4fmu-v2_default/px4io-v2/NuttX/nuttx-export/libs/libnuttx.a(c-lib_tcsetattr.o)
 .bss           0x0000000020000a04        0x0 /home/einar/px4_firmware/src/Firmware/build_px4fmu-v2_default/px4io-v2/NuttX/nuttx-export/libs/libnuttx.a(c-lib_vdprintf.o)
 .bss           0x0000000020000a04        0x0 /home/einar/px4_firmware/src/Firmware/build_px4fmu-v2_default/px4io-v2/NuttX/nuttx-export/libs/libnuttx.a(c-lib_vsnprintf.o)
 .bss           0x0000000020000a04        0x0 /home/einar/px4_firmware/src/Firmware/build_px4fmu-v2_default/px4io-v2/NuttX/nuttx-export/libs/libnuttx.a(c-sq_addafter.o)
 .bss           0x0000000020000a04        0x0 /home/einar/px4_firmware/src/Firmware/build_px4fmu-v2_default/px4io-v2/NuttX/nuttx-export/libs/libnuttx.a(c-sq_addfirst.o)
 .bss           0x0000000020000a04        0x0 /home/einar/px4_firmware/src/Firmware/build_px4fmu-v2_default/px4io-v2/NuttX/nuttx-export/libs/libnuttx.a(c-sq_addlast.o)
 .bss           0x0000000020000a04        0x0 /home/einar/px4_firmware/src/Firmware/build_px4fmu-v2_default/px4io-v2/NuttX/nuttx-export/libs/libnuttx.a(c-sq_rem.o)
 .bss           0x0000000020000a04        0x0 /home/einar/px4_firmware/src/Firmware/build_px4fmu-v2_default/px4io-v2/NuttX/nuttx-export/libs/libnuttx.a(mm-mm_calloc.o)
 .bss           0x0000000020000a04        0x0 /home/einar/px4_firmware/src/Firmware/build_px4fmu-v2_default/px4io-v2/NuttX/nuttx-export/libs/libnuttx.a(mm-mm_free.o)
 .bss           0x0000000020000a04        0x0 /home/einar/px4_firmware/src/Firmware/build_px4fmu-v2_default/px4io-v2/NuttX/nuttx-export/libs/libnuttx.a(mm-mm_mallinfo.o)
 .bss           0x0000000020000a04        0x0 /home/einar/px4_firmware/src/Firmware/build_px4fmu-v2_default/px4io-v2/NuttX/nuttx-export/libs/libnuttx.a(mm-mm_malloc.o)
 .bss           0x0000000020000a04        0x0 /home/einar/px4_firmware/src/Firmware/build_px4fmu-v2_default/px4io-v2/NuttX/nuttx-export/libs/libnuttx.a(mm-mm_sem.o)
 .bss           0x0000000020000a04        0x0 /home/einar/px4_firmware/src/Firmware/build_px4fmu-v2_default/px4io-v2/NuttX/nuttx-export/libs/libnuttx.a(mm-mm_size2ndx.o)
 .bss           0x0000000020000a04        0x0 /home/einar/px4_firmware/src/Firmware/build_px4fmu-v2_default/px4io-v2/NuttX/nuttx-export/libs/libnuttx.a(mm-mm_user.o)
 .bss.g_mmheap  0x0000000020000a04       0xa4 /home/einar/px4_firmware/src/Firmware/build_px4fmu-v2_default/px4io-v2/NuttX/nuttx-export/libs/libnuttx.a(mm-mm_user.o)
                0x0000000020000a04                g_mmheap
 .bss           0x0000000020000aa8        0x0 /home/einar/px4_firmware/src/Firmware/build_px4fmu-v2_default/px4io-v2/NuttX/nuttx-export/libs/libnuttx.a(mm-mm_zalloc.o)
 .bss           0x0000000020000aa8        0x0 /home/einar/px4_firmware/src/Firmware/build_px4fmu-v2_default/px4io-v2/NuttX/nuttx-export/libs/libnuttx.a(arch-stm32_dma.o)
 .bss           0x0000000020000aa8        0x0 /home/einar/px4_firmware/src/Firmware/build_px4fmu-v2_default/px4io-v2/NuttX/nuttx-export/libs/libnuttx.a(arch-stm32_gpio.o)
 .bss           0x0000000020000aa8        0x0 /home/einar/px4_firmware/src/Firmware/build_px4fmu-v2_default/px4io-v2/NuttX/nuttx-export/libs/libnuttx.a(arch-stm32_irq.o)
 .bss.current_regs
                0x0000000020000aa8        0x4 /home/einar/px4_firmware/src/Firmware/build_px4fmu-v2_default/px4io-v2/NuttX/nuttx-export/libs/libnuttx.a(arch-stm32_irq.o)
                0x0000000020000aa8                current_regs
 .bss           0x0000000020000aac        0x0 /home/einar/px4_firmware/src/Firmware/build_px4fmu-v2_default/px4io-v2/NuttX/nuttx-export/libs/libnuttx.a(arch-stm32_serial.o)
 .bss.g_usart1txbuffer
                0x0000000020000aac       0x40 /home/einar/px4_firmware/src/Firmware/build_px4fmu-v2_default/px4io-v2/NuttX/nuttx-export/libs/libnuttx.a(arch-stm32_serial.o)
 .bss.g_usart2rxbuffer
                0x0000000020000aec       0x40 /home/einar/px4_firmware/src/Firmware/build_px4fmu-v2_default/px4io-v2/NuttX/nuttx-export/libs/libnuttx.a(arch-stm32_serial.o)
 .bss.g_usart2txbuffer
                0x0000000020000b2c       0x40 /home/einar/px4_firmware/src/Firmware/build_px4fmu-v2_default/px4io-v2/NuttX/nuttx-export/libs/libnuttx.a(arch-stm32_serial.o)
 .bss.g_usart3rxbuffer
                0x0000000020000b6c       0x40 /home/einar/px4_firmware/src/Firmware/build_px4fmu-v2_default/px4io-v2/NuttX/nuttx-export/libs/libnuttx.a(arch-stm32_serial.o)
 .bss.g_usart1rxbuffer
                0x0000000020000bac       0x40 /home/einar/px4_firmware/src/Firmware/build_px4fmu-v2_default/px4io-v2/NuttX/nuttx-export/libs/libnuttx.a(arch-stm32_serial.o)
 .bss.g_usart3rxfifo
                0x0000000020000bec       0x20 /home/einar/px4_firmware/src/Firmware/build_px4fmu-v2_default/px4io-v2/NuttX/nuttx-export/libs/libnuttx.a(arch-stm32_serial.o)
 .bss.g_usart3txbuffer
                0x0000000020000c0c       0x40 /home/einar/px4_firmware/src/Firmware/build_px4fmu-v2_default/px4io-v2/NuttX/nuttx-export/libs/libnuttx.a(arch-stm32_serial.o)
 .bss           0x0000000020000c4c        0x0 /home/einar/px4_firmware/src/Firmware/build_px4fmu-v2_default/px4io-v2/NuttX/nuttx-export/libs/libnuttx.a(arch-stm32_start.o)
 .bss           0x0000000020000c4c        0x0 /home/einar/px4_firmware/src/Firmware/build_px4fmu-v2_default/px4io-v2/NuttX/nuttx-export/libs/libnuttx.a(arch-up_assert.o)
 *fill*         0x0000000020000c4c        0x4 
 .bss           0x0000000020000c50      0x1f4 /home/einar/px4_firmware/src/Firmware/build_px4fmu-v2_default/px4io-v2/NuttX/nuttx-export/libs/libnuttx.a(arch-up_exception.o)
                0x0000000020000e44                g_intstackbase
 .bss           0x0000000020000e44        0x0 /home/einar/px4_firmware/src/Firmware/build_px4fmu-v2_default/px4io-v2/NuttX/nuttx-export/libs/libnuttx.a(arch-up_hardfault.o)
 .bss           0x0000000020000e44        0x0 /home/einar/px4_firmware/src/Firmware/build_px4fmu-v2_default/px4io-v2/NuttX/nuttx-export/libs/libnuttx.a(arch-up_modifyreg32.o)
 .bss           0x0000000020000e44        0x0 /home/einar/px4_firmware/src/Firmware/build_px4fmu-v2_default/px4io-v2/NuttX/nuttx-export/libs/libnuttx.a(arch-up_svcall.o)
 .bss           0x0000000020000e44        0x0 /home/einar/px4_firmware/src/Firmware/build_px4fmu-v2_default/px4io-v2/NuttX/nuttx-export/libs/libnuttx.a(arch-up_systemreset.o)
 .bss           0x0000000020000e44        0x0 /home/einar/px4_firmware/src/Firmware/build_px4fmu-v2_default/px4io-v2/NuttX/nuttx-export/libs/libnuttx.a(arch-up_udelay.o)
 .bss           0x0000000020000e44        0x0 /home/einar/px4_firmware/src/Firmware/build_px4fmu-v2_default/px4io-v2/NuttX/nuttx-export/libs/libnuttx.a(arch-up_vectors.o)
 .bss           0x0000000020000e44        0x0 /home/einar/px4_firmware/src/Firmware/build_px4fmu-v2_default/px4io-v2/NuttX/nuttx-export/libs/libnuttx.a(cxx-libxx_cxa_atexit.o)
 .bss.__dso_handle
                0x0000000020000e44        0x4 /home/einar/px4_firmware/src/Firmware/build_px4fmu-v2_default/px4io-v2/NuttX/nuttx-export/libs/libnuttx.a(cxx-libxx_cxa_atexit.o)
                0x0000000020000e44                __dso_handle
 .bss           0x0000000020000e48        0x0 /home/einar/px4_firmware/src/Firmware/build_px4fmu-v2_default/px4io-v2/NuttX/nuttx-export/libs/libnuttx.a(cxx-libxx_cxapurevirtual.o)
 .bss           0x0000000020000e48        0x0 /home/einar/px4_firmware/src/Firmware/build_px4fmu-v2_default/px4io-v2/NuttX/nuttx-export/libs/libnuttx.a(cxx-libxx_delete.o)
 .bss           0x0000000020000e48        0x0 /home/einar/px4_firmware/src/Firmware/build_px4fmu-v2_default/px4io-v2/NuttX/nuttx-export/libs/libnuttx.a(cxx-libxx_eabi_atexit.o)
 .bss           0x0000000020000e48        0x0 /home/einar/px4_firmware/src/Firmware/build_px4fmu-v2_default/px4io-v2/NuttX/nuttx-export/libs/libnuttx.a(cxx-libxx_new.o)
 .bss           0x0000000020000e48        0x0 /home/einar/px4_firmware/src/Firmware/build_px4fmu-v2_default/px4io-v2/NuttX/nuttx-export/libs/libnuttx.a(fs-fs_ioctl.o)
 .bss           0x0000000020000e48        0x0 /home/einar/px4_firmware/src/Firmware/build_px4fmu-v2_default/px4io-v2/NuttX/nuttx-export/libs/libnuttx.a(fs-fs_open.o)
 .bss           0x0000000020000e48        0x0 /home/einar/px4_firmware/src/Firmware/build_px4fmu-v2_default/px4io-v2/NuttX/nuttx-export/libs/libnuttx.a(fs-fs_read.o)
 .bss           0x0000000020000e48        0x0 /home/einar/px4_firmware/src/Firmware/build_px4fmu-v2_default/px4io-v2/NuttX/nuttx-export/libs/libnuttx.a(fs-fs_write.o)
 .bss           0x0000000020000e48        0x0 /home/einar/px4_firmware/src/Firmware/build_px4fmu-v2_default/px4io-v2/NuttX/nuttx-export/libs/libnuttx.a(drivers-serialirq.o)
 .bss           0x0000000020000e48        0x0 /home/einar/px4_firmware/src/Firmware/build_px4fmu-v2_default/px4io-v2/NuttX/nuttx-export/libs/libnuttx.a(drivers-serial.o)
 .bss           0x0000000020000e48        0x0 /home/einar/px4_firmware/src/Firmware/build_px4fmu-v2_default/px4io-v2/NuttX/nuttx-export/libs/libnuttx.a(sched-errno_getptr.o)
 .bss.g_irqerrno
                0x0000000020000e48        0x4 /home/einar/px4_firmware/src/Firmware/build_px4fmu-v2_default/px4io-v2/NuttX/nuttx-export/libs/libnuttx.a(sched-errno_getptr.o)
 .bss           0x0000000020000e4c        0x0 /home/einar/px4_firmware/src/Firmware/build_px4fmu-v2_default/px4io-v2/NuttX/nuttx-export/libs/libnuttx.a(sched-exit.o)
 .bss           0x0000000020000e4c        0x0 /home/einar/px4_firmware/src/Firmware/build_px4fmu-v2_default/px4io-v2/NuttX/nuttx-export/libs/libnuttx.a(sched-getpid.o)
 .bss           0x0000000020000e4c        0x0 /home/einar/px4_firmware/src/Firmware/build_px4fmu-v2_default/px4io-v2/NuttX/nuttx-export/libs/libnuttx.a(sched-os_start.o)
 .bss.g_pendingtasks
                0x0000000020000e4c        0x8 /home/einar/px4_firmware/src/Firmware/build_px4fmu-v2_default/px4io-v2/NuttX/nuttx-export/libs/libnuttx.a(sched-os_start.o)
                0x0000000020000e4c                g_pendingtasks
 .bss.g_delayed_kufree
                0x0000000020000e54        0x8 /home/einar/px4_firmware/src/Firmware/build_px4fmu-v2_default/px4io-v2/NuttX/nuttx-export/libs/libnuttx.a(sched-os_start.o)
                0x0000000020000e54                g_delayed_kufree
 .bss.g_waitingforsemaphore
                0x0000000020000e5c        0x8 /home/einar/px4_firmware/src/Firmware/build_px4fmu-v2_default/px4io-v2/NuttX/nuttx-export/libs/libnuttx.a(sched-os_start.o)
                0x0000000020000e5c                g_waitingforsemaphore
 .bss.g_pidhash
                0x0000000020000e64       0x20 /home/einar/px4_firmware/src/Firmware/build_px4fmu-v2_default/px4io-v2/NuttX/nuttx-export/libs/libnuttx.a(sched-os_start.o)
                0x0000000020000e64                g_pidhash
 .bss.g_lastpid
                0x0000000020000e84        0x2 /home/einar/px4_firmware/src/Firmware/build_px4fmu-v2_default/px4io-v2/NuttX/nuttx-export/libs/libnuttx.a(sched-os_start.o)
                0x0000000020000e84                g_lastpid
 *fill*         0x0000000020000e86        0x2 
 .bss.g_readytorun
                0x0000000020000e88        0x8 /home/einar/px4_firmware/src/Firmware/build_px4fmu-v2_default/px4io-v2/NuttX/nuttx-export/libs/libnuttx.a(sched-os_start.o)
                0x0000000020000e88                g_readytorun
 .bss.g_inactivetasks
                0x0000000020000e90        0x8 /home/einar/px4_firmware/src/Firmware/build_px4fmu-v2_default/px4io-v2/NuttX/nuttx-export/libs/libnuttx.a(sched-os_start.o)
                0x0000000020000e90                g_inactivetasks
 .bss.g_idletcb
                0x0000000020000e98       0xa4 /home/einar/px4_firmware/src/Firmware/build_px4fmu-v2_default/px4io-v2/NuttX/nuttx-export/libs/libnuttx.a(sched-os_start.o)
 .bss           0x0000000020000f3c        0x0 /home/einar/px4_firmware/src/Firmware/build_px4fmu-v2_default/px4io-v2/NuttX/nuttx-export/libs/libnuttx.a(sched-sched_garbage.o)
 .bss           0x0000000020000f3c        0x0 /home/einar/px4_firmware/src/Firmware/build_px4fmu-v2_default/px4io-v2/NuttX/nuttx-export/libs/libnuttx.a(sched-sched_getfiles.o)
 .bss           0x0000000020000f3c        0x0 /home/einar/px4_firmware/src/Firmware/build_px4fmu-v2_default/px4io-v2/NuttX/nuttx-export/libs/libnuttx.a(sched-sem_post.o)
 .bss           0x0000000020000f3c        0x0 /home/einar/px4_firmware/src/Firmware/build_px4fmu-v2_default/px4io-v2/NuttX/nuttx-export/libs/libnuttx.a(sched-sem_trywait.o)
 .bss           0x0000000020000f3c        0x0 /home/einar/px4_firmware/src/Firmware/build_px4fmu-v2_default/px4io-v2/NuttX/nuttx-export/libs/libnuttx.a(sched-sem_wait.o)
 .bss           0x0000000020000f3c        0x0 /home/einar/px4_firmware/src/Firmware/build_px4fmu-v2_default/px4io-v2/NuttX/nuttx-export/libs/libnuttx.a(sched-task_exithook.o)
 .bss           0x0000000020000f3c        0x0 /home/einar/px4_firmware/src/Firmware/build_px4fmu-v2_default/px4io-v2/NuttX/nuttx-export/libs/libnuttx.a(sched-task_recover.o)
 .bss           0x0000000020000f3c        0x0 /home/einar/px4_firmware/src/Firmware/build_px4fmu-v2_default/px4io-v2/NuttX/nuttx-export/libs/libnuttx.a(sched-wd_cancel.o)
 .bss           0x0000000020000f3c        0x0 /home/einar/px4_firmware/src/Firmware/build_px4fmu-v2_default/px4io-v2/NuttX/nuttx-export/libs/libnuttx.a(sched-wd_delete.o)
 .bss           0x0000000020000f3c        0x0 /home/einar/px4_firmware/src/Firmware/build_px4fmu-v2_default/px4io-v2/NuttX/nuttx-export/libs/libnuttx.a(sched-wd_initialize.o)
 .bss.g_wdfreelist
                0x0000000020000f3c        0x8 /home/einar/px4_firmware/src/Firmware/build_px4fmu-v2_default/px4io-v2/NuttX/nuttx-export/libs/libnuttx.a(sched-wd_initialize.o)
                0x0000000020000f3c                g_wdfreelist
 .bss.g_wdpool  0x0000000020000f44        0x4 /home/einar/px4_firmware/src/Firmware/build_px4fmu-v2_default/px4io-v2/NuttX/nuttx-export/libs/libnuttx.a(sched-wd_initialize.o)
                0x0000000020000f44                g_wdpool
 .bss.g_wdactivelist
                0x0000000020000f48        0x8 /home/einar/px4_firmware/src/Firmware/build_px4fmu-v2_default/px4io-v2/NuttX/nuttx-export/libs/libnuttx.a(sched-wd_initialize.o)
                0x0000000020000f48                g_wdactivelist
 .bss           0x0000000020000f50        0x0 /home/einar/px4_firmware/src/Firmware/build_px4fmu-v2_default/px4io-v2/NuttX/nuttx-export/libs/libnuttx.a(c-dq_addfirst.o)
 .bss           0x0000000020000f50        0x0 /home/einar/px4_firmware/src/Firmware/build_px4fmu-v2_default/px4io-v2/NuttX/nuttx-export/libs/libnuttx.a(c-lib_cfgetspeed.o)
 .bss           0x0000000020000f50        0x0 /home/einar/px4_firmware/src/Firmware/build_px4fmu-v2_default/px4io-v2/NuttX/nuttx-export/libs/libnuttx.a(c-lib_checkbase.o)
 .bss           0x0000000020000f50        0x0 /home/einar/px4_firmware/src/Firmware/build_px4fmu-v2_default/px4io-v2/NuttX/nuttx-export/libs/libnuttx.a(c-lib_isbasedigit.o)
 .bss           0x0000000020000f50        0x0 /home/einar/px4_firmware/src/Firmware/build_px4fmu-v2_default/px4io-v2/NuttX/nuttx-export/libs/libnuttx.a(c-lib_libvsprintf.o)
 .bss           0x0000000020000f50        0x0 /home/einar/px4_firmware/src/Firmware/build_px4fmu-v2_default/px4io-v2/NuttX/nuttx-export/libs/libnuttx.a(c-lib_lowoutstream.o)
 .bss           0x0000000020000f50        0x0 /home/einar/px4_firmware/src/Firmware/build_px4fmu-v2_default/px4io-v2/NuttX/nuttx-export/libs/libnuttx.a(c-lib_memoutstream.o)
 .bss           0x0000000020000f50        0x0 /home/einar/px4_firmware/src/Firmware/build_px4fmu-v2_default/px4io-v2/NuttX/nuttx-export/libs/libnuttx.a(c-lib_nulloutstream.o)
 .bss           0x0000000020000f50        0x0 /home/einar/px4_firmware/src/Firmware/build_px4fmu-v2_default/px4io-v2/NuttX/nuttx-export/libs/libnuttx.a(c-lib_rawoutstream.o)
 .bss           0x0000000020000f50        0x0 /home/einar/px4_firmware/src/Firmware/build_px4fmu-v2_default/px4io-v2/NuttX/nuttx-export/libs/libnuttx.a(c-lib_skipspace.o)
 .bss           0x0000000020000f50        0x0 /home/einar/px4_firmware/src/Firmware/build_px4fmu-v2_default/px4io-v2/NuttX/nuttx-export/libs/libnuttx.a(c-lib_strcpy.o)
 .bss           0x0000000020000f50        0x0 /home/einar/px4_firmware/src/Firmware/build_px4fmu-v2_default/px4io-v2/NuttX/nuttx-export/libs/libnuttx.a(c-lib_strlen.o)
 .bss           0x0000000020000f50        0x0 /home/einar/px4_firmware/src/Firmware/build_px4fmu-v2_default/px4io-v2/NuttX/nuttx-export/libs/libnuttx.a(c-sem_init.o)
 .bss           0x0000000020000f50        0x0 /home/einar/px4_firmware/src/Firmware/build_px4fmu-v2_default/px4io-v2/NuttX/nuttx-export/libs/libnuttx.a(c-sq_remafter.o)
 .bss           0x0000000020000f50        0x0 /home/einar/px4_firmware/src/Firmware/build_px4fmu-v2_default/px4io-v2/NuttX/nuttx-export/libs/libnuttx.a(c-sq_remfirst.o)
 .bss           0x0000000020000f50        0x0 /home/einar/px4_firmware/src/Firmware/build_px4fmu-v2_default/px4io-v2/NuttX/nuttx-export/libs/libnuttx.a(mm-mm_addfreechunk.o)
 .bss           0x0000000020000f50        0x0 /home/einar/px4_firmware/src/Firmware/build_px4fmu-v2_default/px4io-v2/NuttX/nuttx-export/libs/libnuttx.a(mm-mm_initialize.o)
 .bss           0x0000000020000f50        0x0 /home/einar/px4_firmware/src/Firmware/build_px4fmu-v2_default/px4io-v2/NuttX/nuttx-export/libs/libnuttx.a(arch-stm32_allocateheap.o)
 .bss           0x0000000020000f50        0x0 /home/einar/px4_firmware/src/Firmware/build_px4fmu-v2_default/px4io-v2/NuttX/nuttx-export/libs/libnuttx.a(arch-stm32_idle.o)
 .bss           0x0000000020000f50        0x0 /home/einar/px4_firmware/src/Firmware/build_px4fmu-v2_default/px4io-v2/NuttX/nuttx-export/libs/libnuttx.a(arch-stm32_lowputc.o)
 .bss           0x0000000020000f50        0x0 /home/einar/px4_firmware/src/Firmware/build_px4fmu-v2_default/px4io-v2/NuttX/nuttx-export/libs/libnuttx.a(arch-stm32_rcc.o)
 .bss           0x0000000020000f50        0x0 /home/einar/px4_firmware/src/Firmware/build_px4fmu-v2_default/px4io-v2/NuttX/nuttx-export/libs/libnuttx.a(arch-stm32_vectors.o)
 .bss           0x0000000020000f50        0x0 /home/einar/px4_firmware/src/Firmware/build_px4fmu-v2_default/px4io-v2/NuttX/nuttx-export/libs/libnuttx.a(arch-up_blocktask.o)
 .bss           0x0000000020000f50        0x0 /home/einar/px4_firmware/src/Firmware/build_px4fmu-v2_default/px4io-v2/NuttX/nuttx-export/libs/libnuttx.a(arch-up_copystate.o)
 .bss           0x0000000020000f50        0x0 /home/einar/px4_firmware/src/Firmware/build_px4fmu-v2_default/px4io-v2/NuttX/nuttx-export/libs/libnuttx.a(arch-up_doirq.o)
 .bss           0x0000000020000f50        0x0 /home/einar/px4_firmware/src/Firmware/build_px4fmu-v2_default/px4io-v2/NuttX/nuttx-export/libs/libnuttx.a(arch-up_exit.o)
 .bss           0x0000000020000f50        0x0 /home/einar/px4_firmware/src/Firmware/build_px4fmu-v2_default/px4io-v2/NuttX/nuttx-export/libs/libnuttx.a(arch-up_fullcontextrestore.o)
 .bss           0x0000000020000f50        0x0 /home/einar/px4_firmware/src/Firmware/build_px4fmu-v2_default/px4io-v2/NuttX/nuttx-export/libs/libnuttx.a(arch-up_initialize.o)
 .bss           0x0000000020000f50        0x0 /home/einar/px4_firmware/src/Firmware/build_px4fmu-v2_default/px4io-v2/NuttX/nuttx-export/libs/libnuttx.a(arch-up_initialstate.o)
 .bss           0x0000000020000f50        0x0 /home/einar/px4_firmware/src/Firmware/build_px4fmu-v2_default/px4io-v2/NuttX/nuttx-export/libs/libnuttx.a(arch-up_interruptcontext.o)
 .bss           0x0000000020000f50        0x0 /home/einar/px4_firmware/src/Firmware/build_px4fmu-v2_default/px4io-v2/NuttX/nuttx-export/libs/libnuttx.a(arch-up_mdelay.o)
 .bss           0x0000000020000f50        0x0 /home/einar/px4_firmware/src/Firmware/build_px4fmu-v2_default/px4io-v2/NuttX/nuttx-export/libs/libnuttx.a(arch-up_switchcontext.o)
 .bss           0x0000000020000f50        0x0 /home/einar/px4_firmware/src/Firmware/build_px4fmu-v2_default/px4io-v2/NuttX/nuttx-export/libs/libnuttx.a(arch-up_unblocktask.o)
 .bss           0x0000000020000f50        0x0 /home/einar/px4_firmware/src/Firmware/build_px4fmu-v2_default/px4io-v2/NuttX/nuttx-export/libs/libnuttx.a(fs-fs_files.o)
 .bss           0x0000000020000f50        0x0 /home/einar/px4_firmware/src/Firmware/build_px4fmu-v2_default/px4io-v2/NuttX/nuttx-export/libs/libnuttx.a(fs-fs_inodeaddref.o)
 .bss           0x0000000020000f50        0x0 /home/einar/px4_firmware/src/Firmware/build_px4fmu-v2_default/px4io-v2/NuttX/nuttx-export/libs/libnuttx.a(fs-fs_inodefind.o)
 .bss           0x0000000020000f50        0x0 /home/einar/px4_firmware/src/Firmware/build_px4fmu-v2_default/px4io-v2/NuttX/nuttx-export/libs/libnuttx.a(fs-fs_inode.o)
 .bss.root_inode
                0x0000000020000f50        0x4 /home/einar/px4_firmware/src/Firmware/build_px4fmu-v2_default/px4io-v2/NuttX/nuttx-export/libs/libnuttx.a(fs-fs_inode.o)
                0x0000000020000f50                root_inode
 .bss.tree_sem  0x0000000020000f54        0x2 /home/einar/px4_firmware/src/Firmware/build_px4fmu-v2_default/px4io-v2/NuttX/nuttx-export/libs/libnuttx.a(fs-fs_inode.o)
 .bss           0x0000000020000f56        0x0 /home/einar/px4_firmware/src/Firmware/build_px4fmu-v2_default/px4io-v2/NuttX/nuttx-export/libs/libnuttx.a(fs-fs_inoderelease.o)
 .bss           0x0000000020000f56        0x0 /home/einar/px4_firmware/src/Firmware/build_px4fmu-v2_default/px4io-v2/NuttX/nuttx-export/libs/libnuttx.a(fs-fs_registerdriver.o)
 .bss           0x0000000020000f56        0x0 /home/einar/px4_firmware/src/Firmware/build_px4fmu-v2_default/px4io-v2/NuttX/nuttx-export/libs/libnuttx.a(drivers-dev_null.o)
 .bss           0x0000000020000f56        0x0 /home/einar/px4_firmware/src/Firmware/build_px4fmu-v2_default/px4io-v2/NuttX/nuttx-export/libs/libnuttx.a(sched-group_create.o)
 .bss           0x0000000020000f56        0x0 /home/einar/px4_firmware/src/Firmware/build_px4fmu-v2_default/px4io-v2/NuttX/nuttx-export/libs/libnuttx.a(sched-group_leave.o)
 .bss           0x0000000020000f56        0x0 /home/einar/px4_firmware/src/Firmware/build_px4fmu-v2_default/px4io-v2/NuttX/nuttx-export/libs/libnuttx.a(sched-group_setupidlefiles.o)
 .bss           0x0000000020000f56        0x0 /home/einar/px4_firmware/src/Firmware/build_px4fmu-v2_default/px4io-v2/NuttX/nuttx-export/libs/libnuttx.a(sched-irq_dispatch.o)
 .bss           0x0000000020000f56        0x0 /home/einar/px4_firmware/src/Firmware/build_px4fmu-v2_default/px4io-v2/NuttX/nuttx-export/libs/libnuttx.a(sched-os_bringup.o)
 .bss           0x0000000020000f56        0x0 /home/einar/px4_firmware/src/Firmware/build_px4fmu-v2_default/px4io-v2/NuttX/nuttx-export/libs/libnuttx.a(sched-sched_addblocked.o)
 .bss           0x0000000020000f56        0x0 /home/einar/px4_firmware/src/Firmware/build_px4fmu-v2_default/px4io-v2/NuttX/nuttx-export/libs/libnuttx.a(sched-sched_addprioritized.o)
 .bss           0x0000000020000f56        0x0 /home/einar/px4_firmware/src/Firmware/build_px4fmu-v2_default/px4io-v2/NuttX/nuttx-export/libs/libnuttx.a(sched-sched_addreadytorun.o)
 .bss           0x0000000020000f56        0x0 /home/einar/px4_firmware/src/Firmware/build_px4fmu-v2_default/px4io-v2/NuttX/nuttx-export/libs/libnuttx.a(sched-sched_free.o)
 .bss           0x0000000020000f56        0x0 /home/einar/px4_firmware/src/Firmware/build_px4fmu-v2_default/px4io-v2/NuttX/nuttx-export/libs/libnuttx.a(sched-sched_mergepending.o)
 .bss           0x0000000020000f56        0x0 /home/einar/px4_firmware/src/Firmware/build_px4fmu-v2_default/px4io-v2/NuttX/nuttx-export/libs/libnuttx.a(sched-sched_removeblocked.o)
 .bss           0x0000000020000f56        0x0 /home/einar/px4_firmware/src/Firmware/build_px4fmu-v2_default/px4io-v2/NuttX/nuttx-export/libs/libnuttx.a(sched-sched_removereadytorun.o)
 .bss           0x0000000020000f56        0x0 /home/einar/px4_firmware/src/Firmware/build_px4fmu-v2_default/px4io-v2/NuttX/nuttx-export/libs/libnuttx.a(sched-sem_destroy.o)
 .bss           0x0000000020000f56        0x0 /home/einar/px4_firmware/src/Firmware/build_px4fmu-v2_default/px4io-v2/NuttX/nuttx-export/libs/libnuttx.a(sched-task_create.o)
 .bss           0x0000000020000f56        0x0 /home/einar/px4_firmware/src/Firmware/build_px4fmu-v2_default/px4io-v2/NuttX/nuttx-export/libs/libnuttx.a(sched-task_exit.o)
 .bss           0x0000000020000f56        0x0 /home/einar/px4_firmware/src/Firmware/build_px4fmu-v2_default/px4io-v2/NuttX/nuttx-export/libs/libnuttx.a(sched-task_setup.o)
 .bss           0x0000000020000f56        0x0 /home/einar/px4_firmware/src/Firmware/build_px4fmu-v2_default/px4io-v2/NuttX/nuttx-export/libs/libnuttx.a(sched-task_start.o)
 .bss           0x0000000020000f56        0x0 /home/einar/px4_firmware/src/Firmware/build_px4fmu-v2_default/px4io-v2/NuttX/nuttx-export/libs/libnuttx.a(sched-task_terminate.o)
 .bss           0x0000000020000f56        0x0 /home/einar/px4_firmware/src/Firmware/build_px4fmu-v2_default/px4io-v2/NuttX/nuttx-export/libs/libnuttx.a(c-dq_addlast.o)
 .bss           0x0000000020000f56        0x0 /home/einar/px4_firmware/src/Firmware/build_px4fmu-v2_default/px4io-v2/NuttX/nuttx-export/libs/libnuttx.a(c-dq_rem.o)
 .bss           0x0000000020000f56        0x0 /home/einar/px4_firmware/src/Firmware/build_px4fmu-v2_default/px4io-v2/NuttX/nuttx-export/libs/libnuttx.a(c-lib_strdup.o)
 .bss           0x0000000020000f56        0x0 /home/einar/px4_firmware/src/Firmware/build_px4fmu-v2_default/px4io-v2/NuttX/nuttx-export/libs/libnuttx.a(arch-stm32_timerisr.o)
 .bss           0x0000000020000f56        0x0 /home/einar/px4_firmware/src/Firmware/build_px4fmu-v2_default/px4io-v2/NuttX/nuttx-export/libs/libnuttx.a(arch-up_createstack.o)
 .bss           0x0000000020000f56        0x0 /home/einar/px4_firmware/src/Firmware/build_px4fmu-v2_default/px4io-v2/NuttX/nuttx-export/libs/libnuttx.a(arch-up_releasestack.o)
 .bss           0x0000000020000f56        0x0 /home/einar/px4_firmware/src/Firmware/build_px4fmu-v2_default/px4io-v2/NuttX/nuttx-export/libs/libnuttx.a(fs-fs_close.o)
 .bss           0x0000000020000f56        0x0 /home/einar/px4_firmware/src/Firmware/build_px4fmu-v2_default/px4io-v2/NuttX/nuttx-export/libs/libnuttx.a(fs-fs_filedup2.o)
 .bss           0x0000000020000f56        0x0 /home/einar/px4_firmware/src/Firmware/build_px4fmu-v2_default/px4io-v2/NuttX/nuttx-export/libs/libnuttx.a(fs-fs_inodereserve.o)
 .bss           0x0000000020000f56        0x0 /home/einar/px4_firmware/src/Firmware/build_px4fmu-v2_default/px4io-v2/NuttX/nuttx-export/libs/libnuttx.a(sched-group_setuptaskfiles.o)
 .bss           0x0000000020000f56        0x0 /home/einar/px4_firmware/src/Firmware/build_px4fmu-v2_default/px4io-v2/NuttX/nuttx-export/libs/libnuttx.a(sched-sched_gettcb.o)
 .bss           0x0000000020000f56        0x0 /home/einar/px4_firmware/src/Firmware/build_px4fmu-v2_default/px4io-v2/NuttX/nuttx-export/libs/libnuttx.a(sched-sched_lock.o)
 .bss           0x0000000020000f56        0x0 /home/einar/px4_firmware/src/Firmware/build_px4fmu-v2_default/px4io-v2/NuttX/nuttx-export/libs/libnuttx.a(sched-sched_processtimer.o)
 .bss           0x0000000020000f56        0x0 /home/einar/px4_firmware/src/Firmware/build_px4fmu-v2_default/px4io-v2/NuttX/nuttx-export/libs/libnuttx.a(sched-sched_releasetcb.o)
 .bss           0x0000000020000f56        0x0 /home/einar/px4_firmware/src/Firmware/build_px4fmu-v2_default/px4io-v2/NuttX/nuttx-export/libs/libnuttx.a(sched-sched_unlock.o)
 .bss           0x0000000020000f56        0x0 /home/einar/px4_firmware/src/Firmware/build_px4fmu-v2_default/px4io-v2/NuttX/nuttx-export/libs/libnuttx.a(sched-task_activate.o)
 .bss           0x0000000020000f56        0x0 /home/einar/px4_firmware/src/Firmware/build_px4fmu-v2_default/px4io-v2/NuttX/nuttx-export/libs/libnuttx.a(arch-up_releasepending.o)
 .bss           0x0000000020000f56        0x0 /usr/bin/../lib/gcc/arm-none-eabi/4.9.3/../../../../arm-none-eabi/lib/armv7-m/libm.a(lib_a-sf_fmin.o)
 .bss           0x0000000020000f56        0x0 /usr/bin/../lib/gcc/arm-none-eabi/4.9.3/../../../../arm-none-eabi/lib/armv7-m/libm.a(lib_a-sf_fpclassify.o)
 .bss           0x0000000020000f56        0x0 /usr/bin/../lib/gcc/arm-none-eabi/4.9.3/../../../../arm-none-eabi/lib/armv7-m/libm.a(lib_a-wf_sqrt.o)
 .bss           0x0000000020000f56        0x0 /usr/bin/../lib/gcc/arm-none-eabi/4.9.3/../../../../arm-none-eabi/lib/armv7-m/libm.a(lib_a-ef_sqrt.o)
 .bss           0x0000000020000f56        0x0 /usr/bin/../lib/gcc/arm-none-eabi/4.9.3/../../../../arm-none-eabi/lib/armv7-m/libm.a(lib_a-s_lib_ver.o)
 .bss           0x0000000020000f56        0x0 /usr/bin/../lib/gcc/arm-none-eabi/4.9.3/../../../../arm-none-eabi/lib/armv7-m/libm.a(lib_a-s_matherr.o)
 .bss           0x0000000020000f56        0x0 /usr/bin/../lib/gcc/arm-none-eabi/4.9.3/armv7-m/libgcc.a(_lshrdi3.o)
 .bss           0x0000000020000f56        0x0 /usr/bin/../lib/gcc/arm-none-eabi/4.9.3/armv7-m/libgcc.a(_arm_addsubdf3.o)
 .bss           0x0000000020000f56        0x0 /usr/bin/../lib/gcc/arm-none-eabi/4.9.3/armv7-m/libgcc.a(_arm_muldivdf3.o)
 .bss           0x0000000020000f56        0x0 /usr/bin/../lib/gcc/arm-none-eabi/4.9.3/armv7-m/libgcc.a(_arm_truncdfsf2.o)
 .bss           0x0000000020000f56        0x0 /usr/bin/../lib/gcc/arm-none-eabi/4.9.3/armv7-m/libgcc.a(_arm_addsubsf3.o)
 .bss           0x0000000020000f56        0x0 /usr/bin/../lib/gcc/arm-none-eabi/4.9.3/armv7-m/libgcc.a(_arm_muldivsf3.o)
 .bss           0x0000000020000f56        0x0 /usr/bin/../lib/gcc/arm-none-eabi/4.9.3/armv7-m/libgcc.a(_arm_cmpsf2.o)
 .bss           0x0000000020000f56        0x0 /usr/bin/../lib/gcc/arm-none-eabi/4.9.3/armv7-m/libgcc.a(_arm_unordsf2.o)
 .bss           0x0000000020000f56        0x0 /usr/bin/../lib/gcc/arm-none-eabi/4.9.3/armv7-m/libgcc.a(_arm_fixsfsi.o)
 .bss           0x0000000020000f56        0x0 /usr/bin/../lib/gcc/arm-none-eabi/4.9.3/armv7-m/libgcc.a(_arm_fixunssfsi.o)
 .bss           0x0000000020000f56        0x0 /usr/bin/../lib/gcc/arm-none-eabi/4.9.3/armv7-m/libgcc.a(_aeabi_uldivmod.o)
 .bss           0x0000000020000f56        0x0 /usr/bin/../lib/gcc/arm-none-eabi/4.9.3/armv7-m/libgcc.a(bpabi.o)
 .bss           0x0000000020000f56        0x0 /usr/bin/../lib/gcc/arm-none-eabi/4.9.3/armv7-m/libgcc.a(_dvmd_tls.o)
 .bss           0x0000000020000f56        0x0 /usr/bin/../lib/gcc/arm-none-eabi/4.9.3/armv7-m/libgcc.a(_divdi3.o)
 .bss           0x0000000020000f56        0x0 /usr/bin/../lib/gcc/arm-none-eabi/4.9.3/armv7-m/libgcc.a(_udivdi3.o)
 *(.gnu.linkonce.b.*)
 *(COMMON)
                0x0000000020000f56                _ebss = ABSOLUTE (.)

.stab
 *(.stab)

.stabstr
 *(.stabstr)

.stab.excl
 *(.stab.excl)

.stab.exclstr
 *(.stab.exclstr)

.stab.index
 *(.stab.index)

.stab.indexstr
 *(.stab.indexstr)

.comment        0x0000000000000000       0x70
 *(.comment)
 .comment       0x0000000000000000       0x70 CMakeFiles/px4io-v2.dir/adc.c.obj
                                         0x71 (size before relaxing)
 .comment       0x0000000000000000       0x71 CMakeFiles/px4io-v2.dir/controls.c.obj
 .comment       0x0000000000000000       0x71 CMakeFiles/px4io-v2.dir/dsm.c.obj
 .comment       0x0000000000000000       0x71 CMakeFiles/px4io-v2.dir/px4io.c.obj
 .comment       0x0000000000000000       0x71 CMakeFiles/px4io-v2.dir/registers.c.obj
 .comment       0x0000000000000000       0x71 CMakeFiles/px4io-v2.dir/safety.c.obj
 .comment       0x0000000000000000       0x71 CMakeFiles/px4io-v2.dir/sbus.c.obj
 .comment       0x0000000000000000       0x71 CMakeFiles/px4io-v2.dir/__/systemlib/up_cxxinitialize.c.obj
 .comment       0x0000000000000000       0x71 CMakeFiles/px4io-v2.dir/__/systemlib/perf_counter.c.obj
 .comment       0x0000000000000000       0x71 CMakeFiles/px4io-v2.dir/mixer.cpp.obj
 .comment       0x0000000000000000       0x71 CMakeFiles/px4io-v2.dir/__/systemlib/mixer/mixer.cpp.obj
 .comment       0x0000000000000000       0x71 CMakeFiles/px4io-v2.dir/__/systemlib/mixer/mixer_group.cpp.obj
 .comment       0x0000000000000000       0x71 CMakeFiles/px4io-v2.dir/__/systemlib/mixer/mixer_multirotor.cpp.obj
 .comment       0x0000000000000000       0x71 CMakeFiles/px4io-v2.dir/__/systemlib/mixer/mixer_simple.cpp.obj
 .comment       0x0000000000000000       0x71 CMakeFiles/px4io-v2.dir/__/systemlib/pwm_limit/pwm_limit.c.obj
 .comment       0x0000000000000000       0x71 CMakeFiles/px4io-v2.dir/__/__/lib/rc/st24.c.obj
 .comment       0x0000000000000000       0x71 CMakeFiles/px4io-v2.dir/__/__/lib/rc/sumd.c.obj
 .comment       0x0000000000000000       0x71 CMakeFiles/px4io-v2.dir/__/__/drivers/stm32/drv_hrt.c.obj
 .comment       0x0000000000000000       0x71 CMakeFiles/px4io-v2.dir/__/__/drivers/stm32/drv_pwm_servo.c.obj
 .comment       0x0000000000000000       0x71 CMakeFiles/px4io-v2.dir/__/__/drivers/boards/px4io-v2/px4io_init.c.obj
 .comment       0x0000000000000000       0x71 CMakeFiles/px4io-v2.dir/__/__/drivers/boards/px4io-v2/px4io_pwm_servo.c.obj
 .comment       0x0000000000000000       0x71 CMakeFiles/px4io-v2.dir/serial.c.obj
 .comment       0x0000000000000000       0x71 CMakeFiles/px4io-v2.dir/__/systemlib/hx_stream.c.obj
 .comment       0x0000000000000000       0x71 /home/einar/px4_firmware/src/Firmware/build_px4fmu-v2_default/px4io-v2/NuttX/nuttx-export/libs/libnuttx.a(sched-irq_attach.o)
 .comment       0x0000000000000000       0x71 /home/einar/px4_firmware/src/Firmware/build_px4fmu-v2_default/px4io-v2/NuttX/nuttx-export/libs/libnuttx.a(sched-irq_initialize.o)
 .comment       0x0000000000000000       0x71 /home/einar/px4_firmware/src/Firmware/build_px4fmu-v2_default/px4io-v2/NuttX/nuttx-export/libs/libnuttx.a(sched-irq_unexpectedisr.o)
 .comment       0x0000000000000000       0x71 /home/einar/px4_firmware/src/Firmware/build_px4fmu-v2_default/px4io-v2/NuttX/nuttx-export/libs/libnuttx.a(c-lib_abort.o)
 .comment       0x0000000000000000       0x71 /home/einar/px4_firmware/src/Firmware/build_px4fmu-v2_default/px4io-v2/NuttX/nuttx-export/libs/libnuttx.a(c-lib_cfsetspeed.o)
 .comment       0x0000000000000000       0x71 /home/einar/px4_firmware/src/Firmware/build_px4fmu-v2_default/px4io-v2/NuttX/nuttx-export/libs/libnuttx.a(c-lib_crc32.o)
 .comment       0x0000000000000000       0x71 /home/einar/px4_firmware/src/Firmware/build_px4fmu-v2_default/px4io-v2/NuttX/nuttx-export/libs/libnuttx.a(c-lib_dprintf.o)
 .comment       0x0000000000000000       0x71 /home/einar/px4_firmware/src/Firmware/build_px4fmu-v2_default/px4io-v2/NuttX/nuttx-export/libs/libnuttx.a(c-lib_lowsyslog.o)
 .comment       0x0000000000000000       0x71 /home/einar/px4_firmware/src/Firmware/build_px4fmu-v2_default/px4io-v2/NuttX/nuttx-export/libs/libnuttx.a(c-lib_memchr.o)
 .comment       0x0000000000000000       0x71 /home/einar/px4_firmware/src/Firmware/build_px4fmu-v2_default/px4io-v2/NuttX/nuttx-export/libs/libnuttx.a(c-lib_memcpy.o)
 .comment       0x0000000000000000       0x71 /home/einar/px4_firmware/src/Firmware/build_px4fmu-v2_default/px4io-v2/NuttX/nuttx-export/libs/libnuttx.a(c-lib_memset.o)
 .comment       0x0000000000000000       0x71 /home/einar/px4_firmware/src/Firmware/build_px4fmu-v2_default/px4io-v2/NuttX/nuttx-export/libs/libnuttx.a(c-lib_printf.o)
 .comment       0x0000000000000000       0x71 /home/einar/px4_firmware/src/Firmware/build_px4fmu-v2_default/px4io-v2/NuttX/nuttx-export/libs/libnuttx.a(c-lib_sscanf.o)
 .comment       0x0000000000000000       0x71 /home/einar/px4_firmware/src/Firmware/build_px4fmu-v2_default/px4io-v2/NuttX/nuttx-export/libs/libnuttx.a(c-lib_strchr.o)
 .comment       0x0000000000000000       0x71 /home/einar/px4_firmware/src/Firmware/build_px4fmu-v2_default/px4io-v2/NuttX/nuttx-export/libs/libnuttx.a(c-lib_strcmp.o)
 .comment       0x0000000000000000       0x71 /home/einar/px4_firmware/src/Firmware/build_px4fmu-v2_default/px4io-v2/NuttX/nuttx-export/libs/libnuttx.a(c-lib_strcspn.o)
 .comment       0x0000000000000000       0x71 /home/einar/px4_firmware/src/Firmware/build_px4fmu-v2_default/px4io-v2/NuttX/nuttx-export/libs/libnuttx.a(c-lib_strncpy.o)
 .comment       0x0000000000000000       0x71 /home/einar/px4_firmware/src/Firmware/build_px4fmu-v2_default/px4io-v2/NuttX/nuttx-export/libs/libnuttx.a(c-lib_strtol.o)
 .comment       0x0000000000000000       0x71 /home/einar/px4_firmware/src/Firmware/build_px4fmu-v2_default/px4io-v2/NuttX/nuttx-export/libs/libnuttx.a(c-lib_strtoul.o)
 .comment       0x0000000000000000       0x71 /home/einar/px4_firmware/src/Firmware/build_px4fmu-v2_default/px4io-v2/NuttX/nuttx-export/libs/libnuttx.a(c-lib_syslog.o)
 .comment       0x0000000000000000       0x71 /home/einar/px4_firmware/src/Firmware/build_px4fmu-v2_default/px4io-v2/NuttX/nuttx-export/libs/libnuttx.a(c-lib_tcgetattr.o)
 .comment       0x0000000000000000       0x71 /home/einar/px4_firmware/src/Firmware/build_px4fmu-v2_default/px4io-v2/NuttX/nuttx-export/libs/libnuttx.a(c-lib_tcsetattr.o)
 .comment       0x0000000000000000       0x71 /home/einar/px4_firmware/src/Firmware/build_px4fmu-v2_default/px4io-v2/NuttX/nuttx-export/libs/libnuttx.a(c-lib_vdprintf.o)
 .comment       0x0000000000000000       0x71 /home/einar/px4_firmware/src/Firmware/build_px4fmu-v2_default/px4io-v2/NuttX/nuttx-export/libs/libnuttx.a(c-lib_vsnprintf.o)
 .comment       0x0000000000000000       0x71 /home/einar/px4_firmware/src/Firmware/build_px4fmu-v2_default/px4io-v2/NuttX/nuttx-export/libs/libnuttx.a(c-sq_addafter.o)
 .comment       0x0000000000000000       0x71 /home/einar/px4_firmware/src/Firmware/build_px4fmu-v2_default/px4io-v2/NuttX/nuttx-export/libs/libnuttx.a(c-sq_addfirst.o)
 .comment       0x0000000000000000       0x71 /home/einar/px4_firmware/src/Firmware/build_px4fmu-v2_default/px4io-v2/NuttX/nuttx-export/libs/libnuttx.a(c-sq_addlast.o)
 .comment       0x0000000000000000       0x71 /home/einar/px4_firmware/src/Firmware/build_px4fmu-v2_default/px4io-v2/NuttX/nuttx-export/libs/libnuttx.a(c-sq_rem.o)
 .comment       0x0000000000000000       0x71 /home/einar/px4_firmware/src/Firmware/build_px4fmu-v2_default/px4io-v2/NuttX/nuttx-export/libs/libnuttx.a(mm-mm_calloc.o)
 .comment       0x0000000000000000       0x71 /home/einar/px4_firmware/src/Firmware/build_px4fmu-v2_default/px4io-v2/NuttX/nuttx-export/libs/libnuttx.a(mm-mm_free.o)
 .comment       0x0000000000000000       0x71 /home/einar/px4_firmware/src/Firmware/build_px4fmu-v2_default/px4io-v2/NuttX/nuttx-export/libs/libnuttx.a(mm-mm_mallinfo.o)
 .comment       0x0000000000000000       0x71 /home/einar/px4_firmware/src/Firmware/build_px4fmu-v2_default/px4io-v2/NuttX/nuttx-export/libs/libnuttx.a(mm-mm_malloc.o)
 .comment       0x0000000000000000       0x71 /home/einar/px4_firmware/src/Firmware/build_px4fmu-v2_default/px4io-v2/NuttX/nuttx-export/libs/libnuttx.a(mm-mm_sem.o)
 .comment       0x0000000000000000       0x71 /home/einar/px4_firmware/src/Firmware/build_px4fmu-v2_default/px4io-v2/NuttX/nuttx-export/libs/libnuttx.a(mm-mm_size2ndx.o)
 .comment       0x0000000000000000       0x71 /home/einar/px4_firmware/src/Firmware/build_px4fmu-v2_default/px4io-v2/NuttX/nuttx-export/libs/libnuttx.a(mm-mm_user.o)
 .comment       0x0000000000000000       0x71 /home/einar/px4_firmware/src/Firmware/build_px4fmu-v2_default/px4io-v2/NuttX/nuttx-export/libs/libnuttx.a(mm-mm_zalloc.o)
 .comment       0x0000000000000000       0x71 /home/einar/px4_firmware/src/Firmware/build_px4fmu-v2_default/px4io-v2/NuttX/nuttx-export/libs/libnuttx.a(arch-stm32_dma.o)
 .comment       0x0000000000000000       0x71 /home/einar/px4_firmware/src/Firmware/build_px4fmu-v2_default/px4io-v2/NuttX/nuttx-export/libs/libnuttx.a(arch-stm32_gpio.o)
 .comment       0x0000000000000000       0x71 /home/einar/px4_firmware/src/Firmware/build_px4fmu-v2_default/px4io-v2/NuttX/nuttx-export/libs/libnuttx.a(arch-stm32_irq.o)
 .comment       0x0000000000000000       0x71 /home/einar/px4_firmware/src/Firmware/build_px4fmu-v2_default/px4io-v2/NuttX/nuttx-export/libs/libnuttx.a(arch-stm32_serial.o)
 .comment       0x0000000000000000       0x71 /home/einar/px4_firmware/src/Firmware/build_px4fmu-v2_default/px4io-v2/NuttX/nuttx-export/libs/libnuttx.a(arch-stm32_start.o)
 .comment       0x0000000000000000       0x71 /home/einar/px4_firmware/src/Firmware/build_px4fmu-v2_default/px4io-v2/NuttX/nuttx-export/libs/libnuttx.a(arch-up_assert.o)
 .comment       0x0000000000000000       0x71 /home/einar/px4_firmware/src/Firmware/build_px4fmu-v2_default/px4io-v2/NuttX/nuttx-export/libs/libnuttx.a(arch-up_hardfault.o)
 .comment       0x0000000000000000       0x71 /home/einar/px4_firmware/src/Firmware/build_px4fmu-v2_default/px4io-v2/NuttX/nuttx-export/libs/libnuttx.a(arch-up_modifyreg32.o)
 .comment       0x0000000000000000       0x71 /home/einar/px4_firmware/src/Firmware/build_px4fmu-v2_default/px4io-v2/NuttX/nuttx-export/libs/libnuttx.a(arch-up_svcall.o)
 .comment       0x0000000000000000       0x71 /home/einar/px4_firmware/src/Firmware/build_px4fmu-v2_default/px4io-v2/NuttX/nuttx-export/libs/libnuttx.a(arch-up_systemreset.o)
 .comment       0x0000000000000000       0x71 /home/einar/px4_firmware/src/Firmware/build_px4fmu-v2_default/px4io-v2/NuttX/nuttx-export/libs/libnuttx.a(arch-up_udelay.o)
 .comment       0x0000000000000000       0x71 /home/einar/px4_firmware/src/Firmware/build_px4fmu-v2_default/px4io-v2/NuttX/nuttx-export/libs/libnuttx.a(arch-up_vectors.o)
 .comment       0x0000000000000000       0x71 /home/einar/px4_firmware/src/Firmware/build_px4fmu-v2_default/px4io-v2/NuttX/nuttx-export/libs/libnuttx.a(cxx-libxx_cxa_atexit.o)
 .comment       0x0000000000000000       0x71 /home/einar/px4_firmware/src/Firmware/build_px4fmu-v2_default/px4io-v2/NuttX/nuttx-export/libs/libnuttx.a(cxx-libxx_cxapurevirtual.o)
 .comment       0x0000000000000000       0x71 /home/einar/px4_firmware/src/Firmware/build_px4fmu-v2_default/px4io-v2/NuttX/nuttx-export/libs/libnuttx.a(cxx-libxx_delete.o)
 .comment       0x0000000000000000       0x71 /home/einar/px4_firmware/src/Firmware/build_px4fmu-v2_default/px4io-v2/NuttX/nuttx-export/libs/libnuttx.a(cxx-libxx_eabi_atexit.o)
 .comment       0x0000000000000000       0x71 /home/einar/px4_firmware/src/Firmware/build_px4fmu-v2_default/px4io-v2/NuttX/nuttx-export/libs/libnuttx.a(cxx-libxx_new.o)
 .comment       0x0000000000000000       0x71 /home/einar/px4_firmware/src/Firmware/build_px4fmu-v2_default/px4io-v2/NuttX/nuttx-export/libs/libnuttx.a(fs-fs_ioctl.o)
 .comment       0x0000000000000000       0x71 /home/einar/px4_firmware/src/Firmware/build_px4fmu-v2_default/px4io-v2/NuttX/nuttx-export/libs/libnuttx.a(fs-fs_open.o)
 .comment       0x0000000000000000       0x71 /home/einar/px4_firmware/src/Firmware/build_px4fmu-v2_default/px4io-v2/NuttX/nuttx-export/libs/libnuttx.a(fs-fs_read.o)
 .comment       0x0000000000000000       0x71 /home/einar/px4_firmware/src/Firmware/build_px4fmu-v2_default/px4io-v2/NuttX/nuttx-export/libs/libnuttx.a(fs-fs_write.o)
 .comment       0x0000000000000000       0x71 /home/einar/px4_firmware/src/Firmware/build_px4fmu-v2_default/px4io-v2/NuttX/nuttx-export/libs/libnuttx.a(drivers-serialirq.o)
 .comment       0x0000000000000000       0x71 /home/einar/px4_firmware/src/Firmware/build_px4fmu-v2_default/px4io-v2/NuttX/nuttx-export/libs/libnuttx.a(drivers-serial.o)
 .comment       0x0000000000000000       0x71 /home/einar/px4_firmware/src/Firmware/build_px4fmu-v2_default/px4io-v2/NuttX/nuttx-export/libs/libnuttx.a(sched-errno_getptr.o)
 .comment       0x0000000000000000       0x71 /home/einar/px4_firmware/src/Firmware/build_px4fmu-v2_default/px4io-v2/NuttX/nuttx-export/libs/libnuttx.a(sched-exit.o)
 .comment       0x0000000000000000       0x71 /home/einar/px4_firmware/src/Firmware/build_px4fmu-v2_default/px4io-v2/NuttX/nuttx-export/libs/libnuttx.a(sched-getpid.o)
 .comment       0x0000000000000000       0x71 /home/einar/px4_firmware/src/Firmware/build_px4fmu-v2_default/px4io-v2/NuttX/nuttx-export/libs/libnuttx.a(sched-os_start.o)
 .comment       0x0000000000000000       0x71 /home/einar/px4_firmware/src/Firmware/build_px4fmu-v2_default/px4io-v2/NuttX/nuttx-export/libs/libnuttx.a(sched-sched_garbage.o)
 .comment       0x0000000000000000       0x71 /home/einar/px4_firmware/src/Firmware/build_px4fmu-v2_default/px4io-v2/NuttX/nuttx-export/libs/libnuttx.a(sched-sched_getfiles.o)
 .comment       0x0000000000000000       0x71 /home/einar/px4_firmware/src/Firmware/build_px4fmu-v2_default/px4io-v2/NuttX/nuttx-export/libs/libnuttx.a(sched-sem_post.o)
 .comment       0x0000000000000000       0x71 /home/einar/px4_firmware/src/Firmware/build_px4fmu-v2_default/px4io-v2/NuttX/nuttx-export/libs/libnuttx.a(sched-sem_trywait.o)
 .comment       0x0000000000000000       0x71 /home/einar/px4_firmware/src/Firmware/build_px4fmu-v2_default/px4io-v2/NuttX/nuttx-export/libs/libnuttx.a(sched-sem_wait.o)
 .comment       0x0000000000000000       0x71 /home/einar/px4_firmware/src/Firmware/build_px4fmu-v2_default/px4io-v2/NuttX/nuttx-export/libs/libnuttx.a(sched-task_exithook.o)
 .comment       0x0000000000000000       0x71 /home/einar/px4_firmware/src/Firmware/build_px4fmu-v2_default/px4io-v2/NuttX/nuttx-export/libs/libnuttx.a(sched-task_recover.o)
 .comment       0x0000000000000000       0x71 /home/einar/px4_firmware/src/Firmware/build_px4fmu-v2_default/px4io-v2/NuttX/nuttx-export/libs/libnuttx.a(sched-wd_cancel.o)
 .comment       0x0000000000000000       0x71 /home/einar/px4_firmware/src/Firmware/build_px4fmu-v2_default/px4io-v2/NuttX/nuttx-export/libs/libnuttx.a(sched-wd_delete.o)
 .comment       0x0000000000000000       0x71 /home/einar/px4_firmware/src/Firmware/build_px4fmu-v2_default/px4io-v2/NuttX/nuttx-export/libs/libnuttx.a(sched-wd_initialize.o)
 .comment       0x0000000000000000       0x71 /home/einar/px4_firmware/src/Firmware/build_px4fmu-v2_default/px4io-v2/NuttX/nuttx-export/libs/libnuttx.a(c-dq_addfirst.o)
 .comment       0x0000000000000000       0x71 /home/einar/px4_firmware/src/Firmware/build_px4fmu-v2_default/px4io-v2/NuttX/nuttx-export/libs/libnuttx.a(c-lib_cfgetspeed.o)
 .comment       0x0000000000000000       0x71 /home/einar/px4_firmware/src/Firmware/build_px4fmu-v2_default/px4io-v2/NuttX/nuttx-export/libs/libnuttx.a(c-lib_checkbase.o)
 .comment       0x0000000000000000       0x71 /home/einar/px4_firmware/src/Firmware/build_px4fmu-v2_default/px4io-v2/NuttX/nuttx-export/libs/libnuttx.a(c-lib_isbasedigit.o)
 .comment       0x0000000000000000       0x71 /home/einar/px4_firmware/src/Firmware/build_px4fmu-v2_default/px4io-v2/NuttX/nuttx-export/libs/libnuttx.a(c-lib_libvsprintf.o)
 .comment       0x0000000000000000       0x71 /home/einar/px4_firmware/src/Firmware/build_px4fmu-v2_default/px4io-v2/NuttX/nuttx-export/libs/libnuttx.a(c-lib_lowoutstream.o)
 .comment       0x0000000000000000       0x71 /home/einar/px4_firmware/src/Firmware/build_px4fmu-v2_default/px4io-v2/NuttX/nuttx-export/libs/libnuttx.a(c-lib_memoutstream.o)
 .comment       0x0000000000000000       0x71 /home/einar/px4_firmware/src/Firmware/build_px4fmu-v2_default/px4io-v2/NuttX/nuttx-export/libs/libnuttx.a(c-lib_nulloutstream.o)
 .comment       0x0000000000000000       0x71 /home/einar/px4_firmware/src/Firmware/build_px4fmu-v2_default/px4io-v2/NuttX/nuttx-export/libs/libnuttx.a(c-lib_rawoutstream.o)
 .comment       0x0000000000000000       0x71 /home/einar/px4_firmware/src/Firmware/build_px4fmu-v2_default/px4io-v2/NuttX/nuttx-export/libs/libnuttx.a(c-lib_skipspace.o)
 .comment       0x0000000000000000       0x71 /home/einar/px4_firmware/src/Firmware/build_px4fmu-v2_default/px4io-v2/NuttX/nuttx-export/libs/libnuttx.a(c-lib_strcpy.o)
 .comment       0x0000000000000000       0x71 /home/einar/px4_firmware/src/Firmware/build_px4fmu-v2_default/px4io-v2/NuttX/nuttx-export/libs/libnuttx.a(c-lib_strlen.o)
 .comment       0x0000000000000000       0x71 /home/einar/px4_firmware/src/Firmware/build_px4fmu-v2_default/px4io-v2/NuttX/nuttx-export/libs/libnuttx.a(c-sem_init.o)
 .comment       0x0000000000000000       0x71 /home/einar/px4_firmware/src/Firmware/build_px4fmu-v2_default/px4io-v2/NuttX/nuttx-export/libs/libnuttx.a(c-sq_remafter.o)
 .comment       0x0000000000000000       0x71 /home/einar/px4_firmware/src/Firmware/build_px4fmu-v2_default/px4io-v2/NuttX/nuttx-export/libs/libnuttx.a(c-sq_remfirst.o)
 .comment       0x0000000000000000       0x71 /home/einar/px4_firmware/src/Firmware/build_px4fmu-v2_default/px4io-v2/NuttX/nuttx-export/libs/libnuttx.a(mm-mm_addfreechunk.o)
 .comment       0x0000000000000000       0x71 /home/einar/px4_firmware/src/Firmware/build_px4fmu-v2_default/px4io-v2/NuttX/nuttx-export/libs/libnuttx.a(mm-mm_initialize.o)
 .comment       0x0000000000000000       0x71 /home/einar/px4_firmware/src/Firmware/build_px4fmu-v2_default/px4io-v2/NuttX/nuttx-export/libs/libnuttx.a(arch-stm32_allocateheap.o)
 .comment       0x0000000000000000       0x71 /home/einar/px4_firmware/src/Firmware/build_px4fmu-v2_default/px4io-v2/NuttX/nuttx-export/libs/libnuttx.a(arch-stm32_idle.o)
 .comment       0x0000000000000000       0x71 /home/einar/px4_firmware/src/Firmware/build_px4fmu-v2_default/px4io-v2/NuttX/nuttx-export/libs/libnuttx.a(arch-stm32_lowputc.o)
 .comment       0x0000000000000000       0x71 /home/einar/px4_firmware/src/Firmware/build_px4fmu-v2_default/px4io-v2/NuttX/nuttx-export/libs/libnuttx.a(arch-stm32_rcc.o)
 .comment       0x0000000000000000       0x71 /home/einar/px4_firmware/src/Firmware/build_px4fmu-v2_default/px4io-v2/NuttX/nuttx-export/libs/libnuttx.a(arch-up_blocktask.o)
 .comment       0x0000000000000000       0x71 /home/einar/px4_firmware/src/Firmware/build_px4fmu-v2_default/px4io-v2/NuttX/nuttx-export/libs/libnuttx.a(arch-up_copystate.o)
 .comment       0x0000000000000000       0x71 /home/einar/px4_firmware/src/Firmware/build_px4fmu-v2_default/px4io-v2/NuttX/nuttx-export/libs/libnuttx.a(arch-up_doirq.o)
 .comment       0x0000000000000000       0x71 /home/einar/px4_firmware/src/Firmware/build_px4fmu-v2_default/px4io-v2/NuttX/nuttx-export/libs/libnuttx.a(arch-up_exit.o)
 .comment       0x0000000000000000       0x71 /home/einar/px4_firmware/src/Firmware/build_px4fmu-v2_default/px4io-v2/NuttX/nuttx-export/libs/libnuttx.a(arch-up_initialize.o)
 .comment       0x0000000000000000       0x71 /home/einar/px4_firmware/src/Firmware/build_px4fmu-v2_default/px4io-v2/NuttX/nuttx-export/libs/libnuttx.a(arch-up_initialstate.o)
 .comment       0x0000000000000000       0x71 /home/einar/px4_firmware/src/Firmware/build_px4fmu-v2_default/px4io-v2/NuttX/nuttx-export/libs/libnuttx.a(arch-up_interruptcontext.o)
 .comment       0x0000000000000000       0x71 /home/einar/px4_firmware/src/Firmware/build_px4fmu-v2_default/px4io-v2/NuttX/nuttx-export/libs/libnuttx.a(arch-up_mdelay.o)
 .comment       0x0000000000000000       0x71 /home/einar/px4_firmware/src/Firmware/build_px4fmu-v2_default/px4io-v2/NuttX/nuttx-export/libs/libnuttx.a(arch-up_unblocktask.o)
 .comment       0x0000000000000000       0x71 /home/einar/px4_firmware/src/Firmware/build_px4fmu-v2_default/px4io-v2/NuttX/nuttx-export/libs/libnuttx.a(fs-fs_files.o)
 .comment       0x0000000000000000       0x71 /home/einar/px4_firmware/src/Firmware/build_px4fmu-v2_default/px4io-v2/NuttX/nuttx-export/libs/libnuttx.a(fs-fs_inodeaddref.o)
 .comment       0x0000000000000000       0x71 /home/einar/px4_firmware/src/Firmware/build_px4fmu-v2_default/px4io-v2/NuttX/nuttx-export/libs/libnuttx.a(fs-fs_inodefind.o)
 .comment       0x0000000000000000       0x71 /home/einar/px4_firmware/src/Firmware/build_px4fmu-v2_default/px4io-v2/NuttX/nuttx-export/libs/libnuttx.a(fs-fs_inode.o)
 .comment       0x0000000000000000       0x71 /home/einar/px4_firmware/src/Firmware/build_px4fmu-v2_default/px4io-v2/NuttX/nuttx-export/libs/libnuttx.a(fs-fs_inoderelease.o)
 .comment       0x0000000000000000       0x71 /home/einar/px4_firmware/src/Firmware/build_px4fmu-v2_default/px4io-v2/NuttX/nuttx-export/libs/libnuttx.a(fs-fs_registerdriver.o)
 .comment       0x0000000000000000       0x71 /home/einar/px4_firmware/src/Firmware/build_px4fmu-v2_default/px4io-v2/NuttX/nuttx-export/libs/libnuttx.a(drivers-dev_null.o)
 .comment       0x0000000000000000       0x71 /home/einar/px4_firmware/src/Firmware/build_px4fmu-v2_default/px4io-v2/NuttX/nuttx-export/libs/libnuttx.a(sched-group_create.o)
 .comment       0x0000000000000000       0x71 /home/einar/px4_firmware/src/Firmware/build_px4fmu-v2_default/px4io-v2/NuttX/nuttx-export/libs/libnuttx.a(sched-group_leave.o)
 .comment       0x0000000000000000       0x71 /home/einar/px4_firmware/src/Firmware/build_px4fmu-v2_default/px4io-v2/NuttX/nuttx-export/libs/libnuttx.a(sched-group_setupidlefiles.o)
 .comment       0x0000000000000000       0x71 /home/einar/px4_firmware/src/Firmware/build_px4fmu-v2_default/px4io-v2/NuttX/nuttx-export/libs/libnuttx.a(sched-irq_dispatch.o)
 .comment       0x0000000000000000       0x71 /home/einar/px4_firmware/src/Firmware/build_px4fmu-v2_default/px4io-v2/NuttX/nuttx-export/libs/libnuttx.a(sched-os_bringup.o)
 .comment       0x0000000000000000       0x71 /home/einar/px4_firmware/src/Firmware/build_px4fmu-v2_default/px4io-v2/NuttX/nuttx-export/libs/libnuttx.a(sched-sched_addblocked.o)
 .comment       0x0000000000000000       0x71 /home/einar/px4_firmware/src/Firmware/build_px4fmu-v2_default/px4io-v2/NuttX/nuttx-export/libs/libnuttx.a(sched-sched_addprioritized.o)
 .comment       0x0000000000000000       0x71 /home/einar/px4_firmware/src/Firmware/build_px4fmu-v2_default/px4io-v2/NuttX/nuttx-export/libs/libnuttx.a(sched-sched_addreadytorun.o)
 .comment       0x0000000000000000       0x71 /home/einar/px4_firmware/src/Firmware/build_px4fmu-v2_default/px4io-v2/NuttX/nuttx-export/libs/libnuttx.a(sched-sched_free.o)
 .comment       0x0000000000000000       0x71 /home/einar/px4_firmware/src/Firmware/build_px4fmu-v2_default/px4io-v2/NuttX/nuttx-export/libs/libnuttx.a(sched-sched_mergepending.o)
 .comment       0x0000000000000000       0x71 /home/einar/px4_firmware/src/Firmware/build_px4fmu-v2_default/px4io-v2/NuttX/nuttx-export/libs/libnuttx.a(sched-sched_removeblocked.o)
 .comment       0x0000000000000000       0x71 /home/einar/px4_firmware/src/Firmware/build_px4fmu-v2_default/px4io-v2/NuttX/nuttx-export/libs/libnuttx.a(sched-sched_removereadytorun.o)
 .comment       0x0000000000000000       0x71 /home/einar/px4_firmware/src/Firmware/build_px4fmu-v2_default/px4io-v2/NuttX/nuttx-export/libs/libnuttx.a(sched-sem_destroy.o)
 .comment       0x0000000000000000       0x71 /home/einar/px4_firmware/src/Firmware/build_px4fmu-v2_default/px4io-v2/NuttX/nuttx-export/libs/libnuttx.a(sched-task_create.o)
 .comment       0x0000000000000000       0x71 /home/einar/px4_firmware/src/Firmware/build_px4fmu-v2_default/px4io-v2/NuttX/nuttx-export/libs/libnuttx.a(sched-task_exit.o)
 .comment       0x0000000000000000       0x71 /home/einar/px4_firmware/src/Firmware/build_px4fmu-v2_default/px4io-v2/NuttX/nuttx-export/libs/libnuttx.a(sched-task_setup.o)
 .comment       0x0000000000000000       0x71 /home/einar/px4_firmware/src/Firmware/build_px4fmu-v2_default/px4io-v2/NuttX/nuttx-export/libs/libnuttx.a(sched-task_start.o)
 .comment       0x0000000000000000       0x71 /home/einar/px4_firmware/src/Firmware/build_px4fmu-v2_default/px4io-v2/NuttX/nuttx-export/libs/libnuttx.a(sched-task_terminate.o)
 .comment       0x0000000000000000       0x71 /home/einar/px4_firmware/src/Firmware/build_px4fmu-v2_default/px4io-v2/NuttX/nuttx-export/libs/libnuttx.a(c-dq_addlast.o)
 .comment       0x0000000000000000       0x71 /home/einar/px4_firmware/src/Firmware/build_px4fmu-v2_default/px4io-v2/NuttX/nuttx-export/libs/libnuttx.a(c-dq_rem.o)
 .comment       0x0000000000000000       0x71 /home/einar/px4_firmware/src/Firmware/build_px4fmu-v2_default/px4io-v2/NuttX/nuttx-export/libs/libnuttx.a(c-lib_strdup.o)
 .comment       0x0000000000000000       0x71 /home/einar/px4_firmware/src/Firmware/build_px4fmu-v2_default/px4io-v2/NuttX/nuttx-export/libs/libnuttx.a(arch-stm32_timerisr.o)
 .comment       0x0000000000000000       0x71 /home/einar/px4_firmware/src/Firmware/build_px4fmu-v2_default/px4io-v2/NuttX/nuttx-export/libs/libnuttx.a(arch-up_createstack.o)
 .comment       0x0000000000000000       0x71 /home/einar/px4_firmware/src/Firmware/build_px4fmu-v2_default/px4io-v2/NuttX/nuttx-export/libs/libnuttx.a(arch-up_releasestack.o)
 .comment       0x0000000000000000       0x71 /home/einar/px4_firmware/src/Firmware/build_px4fmu-v2_default/px4io-v2/NuttX/nuttx-export/libs/libnuttx.a(fs-fs_close.o)
 .comment       0x0000000000000000       0x71 /home/einar/px4_firmware/src/Firmware/build_px4fmu-v2_default/px4io-v2/NuttX/nuttx-export/libs/libnuttx.a(fs-fs_filedup2.o)
 .comment       0x0000000000000000       0x71 /home/einar/px4_firmware/src/Firmware/build_px4fmu-v2_default/px4io-v2/NuttX/nuttx-export/libs/libnuttx.a(fs-fs_inodereserve.o)
 .comment       0x0000000000000000       0x71 /home/einar/px4_firmware/src/Firmware/build_px4fmu-v2_default/px4io-v2/NuttX/nuttx-export/libs/libnuttx.a(sched-group_setuptaskfiles.o)
 .comment       0x0000000000000000       0x71 /home/einar/px4_firmware/src/Firmware/build_px4fmu-v2_default/px4io-v2/NuttX/nuttx-export/libs/libnuttx.a(sched-sched_gettcb.o)
 .comment       0x0000000000000000       0x71 /home/einar/px4_firmware/src/Firmware/build_px4fmu-v2_default/px4io-v2/NuttX/nuttx-export/libs/libnuttx.a(sched-sched_lock.o)
 .comment       0x0000000000000000       0x71 /home/einar/px4_firmware/src/Firmware/build_px4fmu-v2_default/px4io-v2/NuttX/nuttx-export/libs/libnuttx.a(sched-sched_processtimer.o)
 .comment       0x0000000000000000       0x71 /home/einar/px4_firmware/src/Firmware/build_px4fmu-v2_default/px4io-v2/NuttX/nuttx-export/libs/libnuttx.a(sched-sched_releasetcb.o)
 .comment       0x0000000000000000       0x71 /home/einar/px4_firmware/src/Firmware/build_px4fmu-v2_default/px4io-v2/NuttX/nuttx-export/libs/libnuttx.a(sched-sched_unlock.o)
 .comment       0x0000000000000000       0x71 /home/einar/px4_firmware/src/Firmware/build_px4fmu-v2_default/px4io-v2/NuttX/nuttx-export/libs/libnuttx.a(sched-task_activate.o)
 .comment       0x0000000000000000       0x71 /home/einar/px4_firmware/src/Firmware/build_px4fmu-v2_default/px4io-v2/NuttX/nuttx-export/libs/libnuttx.a(arch-up_releasepending.o)

.ARM.attributes
                0x0000000000000000       0x31
 .ARM.attributes
                0x0000000000000000       0x2f CMakeFiles/px4io-v2.dir/adc.c.obj
 .ARM.attributes
                0x000000000000002f       0x2f CMakeFiles/px4io-v2.dir/controls.c.obj
 .ARM.attributes
                0x000000000000005e       0x2f CMakeFiles/px4io-v2.dir/dsm.c.obj
 .ARM.attributes
                0x000000000000008d       0x2f CMakeFiles/px4io-v2.dir/px4io.c.obj
 .ARM.attributes
                0x00000000000000bc       0x2f CMakeFiles/px4io-v2.dir/registers.c.obj
 .ARM.attributes
                0x00000000000000eb       0x2f CMakeFiles/px4io-v2.dir/safety.c.obj
 .ARM.attributes
                0x000000000000011a       0x2f CMakeFiles/px4io-v2.dir/sbus.c.obj
 .ARM.attributes
                0x0000000000000149       0x2f CMakeFiles/px4io-v2.dir/__/systemlib/up_cxxinitialize.c.obj
 .ARM.attributes
                0x0000000000000178       0x2f CMakeFiles/px4io-v2.dir/__/systemlib/perf_counter.c.obj
 .ARM.attributes
                0x00000000000001a7       0x2f CMakeFiles/px4io-v2.dir/mixer.cpp.obj
 .ARM.attributes
                0x00000000000001d6       0x2f CMakeFiles/px4io-v2.dir/__/systemlib/mixer/mixer.cpp.obj
 .ARM.attributes
                0x0000000000000205       0x2f CMakeFiles/px4io-v2.dir/__/systemlib/mixer/mixer_group.cpp.obj
 .ARM.attributes
                0x0000000000000234       0x2f CMakeFiles/px4io-v2.dir/__/systemlib/mixer/mixer_multirotor.cpp.obj
 .ARM.attributes
                0x0000000000000263       0x2f CMakeFiles/px4io-v2.dir/__/systemlib/mixer/mixer_simple.cpp.obj
 .ARM.attributes
                0x0000000000000292       0x2f CMakeFiles/px4io-v2.dir/__/systemlib/pwm_limit/pwm_limit.c.obj
 .ARM.attributes
                0x00000000000002c1       0x2f CMakeFiles/px4io-v2.dir/__/__/lib/rc/st24.c.obj
 .ARM.attributes
                0x00000000000002f0       0x2f CMakeFiles/px4io-v2.dir/__/__/lib/rc/sumd.c.obj
 .ARM.attributes
                0x000000000000031f       0x2f CMakeFiles/px4io-v2.dir/__/__/drivers/stm32/drv_hrt.c.obj
 .ARM.attributes
                0x000000000000034e       0x2f CMakeFiles/px4io-v2.dir/__/__/drivers/stm32/drv_pwm_servo.c.obj
 .ARM.attributes
                0x000000000000037d       0x2f CMakeFiles/px4io-v2.dir/__/__/drivers/boards/px4io-v2/px4io_init.c.obj
 .ARM.attributes
                0x00000000000003ac       0x2f CMakeFiles/px4io-v2.dir/__/__/drivers/boards/px4io-v2/px4io_pwm_servo.c.obj
 .ARM.attributes
                0x00000000000003db       0x2f CMakeFiles/px4io-v2.dir/serial.c.obj
 .ARM.attributes
                0x000000000000040a       0x2f CMakeFiles/px4io-v2.dir/__/systemlib/hx_stream.c.obj
 .ARM.attributes
                0x0000000000000439       0x2f /home/einar/px4_firmware/src/Firmware/build_px4fmu-v2_default/px4io-v2/NuttX/nuttx-export/libs/libnuttx.a(sched-irq_attach.o)
 .ARM.attributes
                0x0000000000000468       0x2f /home/einar/px4_firmware/src/Firmware/build_px4fmu-v2_default/px4io-v2/NuttX/nuttx-export/libs/libnuttx.a(sched-irq_initialize.o)
 .ARM.attributes
                0x0000000000000497       0x2f /home/einar/px4_firmware/src/Firmware/build_px4fmu-v2_default/px4io-v2/NuttX/nuttx-export/libs/libnuttx.a(sched-irq_unexpectedisr.o)
 .ARM.attributes
                0x00000000000004c6       0x2f /home/einar/px4_firmware/src/Firmware/build_px4fmu-v2_default/px4io-v2/NuttX/nuttx-export/libs/libnuttx.a(c-lib_abort.o)
 .ARM.attributes
                0x00000000000004f5       0x2f /home/einar/px4_firmware/src/Firmware/build_px4fmu-v2_default/px4io-v2/NuttX/nuttx-export/libs/libnuttx.a(c-lib_cfsetspeed.o)
 .ARM.attributes
                0x0000000000000524       0x2f /home/einar/px4_firmware/src/Firmware/build_px4fmu-v2_default/px4io-v2/NuttX/nuttx-export/libs/libnuttx.a(c-lib_crc32.o)
 .ARM.attributes
                0x0000000000000553       0x2f /home/einar/px4_firmware/src/Firmware/build_px4fmu-v2_default/px4io-v2/NuttX/nuttx-export/libs/libnuttx.a(c-lib_dprintf.o)
 .ARM.attributes
                0x0000000000000582       0x2f /home/einar/px4_firmware/src/Firmware/build_px4fmu-v2_default/px4io-v2/NuttX/nuttx-export/libs/libnuttx.a(c-lib_lowsyslog.o)
 .ARM.attributes
                0x00000000000005b1       0x2f /home/einar/px4_firmware/src/Firmware/build_px4fmu-v2_default/px4io-v2/NuttX/nuttx-export/libs/libnuttx.a(c-lib_memchr.o)
 .ARM.attributes
                0x00000000000005e0       0x2f /home/einar/px4_firmware/src/Firmware/build_px4fmu-v2_default/px4io-v2/NuttX/nuttx-export/libs/libnuttx.a(c-lib_memcpy.o)
 .ARM.attributes
                0x000000000000060f       0x2f /home/einar/px4_firmware/src/Firmware/build_px4fmu-v2_default/px4io-v2/NuttX/nuttx-export/libs/libnuttx.a(c-lib_memset.o)
 .ARM.attributes
                0x000000000000063e       0x2f /home/einar/px4_firmware/src/Firmware/build_px4fmu-v2_default/px4io-v2/NuttX/nuttx-export/libs/libnuttx.a(c-lib_printf.o)
 .ARM.attributes
                0x000000000000066d       0x2f /home/einar/px4_firmware/src/Firmware/build_px4fmu-v2_default/px4io-v2/NuttX/nuttx-export/libs/libnuttx.a(c-lib_sscanf.o)
 .ARM.attributes
                0x000000000000069c       0x2f /home/einar/px4_firmware/src/Firmware/build_px4fmu-v2_default/px4io-v2/NuttX/nuttx-export/libs/libnuttx.a(c-lib_strchr.o)
 .ARM.attributes
                0x00000000000006cb       0x2f /home/einar/px4_firmware/src/Firmware/build_px4fmu-v2_default/px4io-v2/NuttX/nuttx-export/libs/libnuttx.a(c-lib_strcmp.o)
 .ARM.attributes
                0x00000000000006fa       0x2f /home/einar/px4_firmware/src/Firmware/build_px4fmu-v2_default/px4io-v2/NuttX/nuttx-export/libs/libnuttx.a(c-lib_strcspn.o)
 .ARM.attributes
                0x0000000000000729       0x2f /home/einar/px4_firmware/src/Firmware/build_px4fmu-v2_default/px4io-v2/NuttX/nuttx-export/libs/libnuttx.a(c-lib_strncpy.o)
 .ARM.attributes
                0x0000000000000758       0x2f /home/einar/px4_firmware/src/Firmware/build_px4fmu-v2_default/px4io-v2/NuttX/nuttx-export/libs/libnuttx.a(c-lib_strtol.o)
 .ARM.attributes
                0x0000000000000787       0x2f /home/einar/px4_firmware/src/Firmware/build_px4fmu-v2_default/px4io-v2/NuttX/nuttx-export/libs/libnuttx.a(c-lib_strtoul.o)
 .ARM.attributes
                0x00000000000007b6       0x2f /home/einar/px4_firmware/src/Firmware/build_px4fmu-v2_default/px4io-v2/NuttX/nuttx-export/libs/libnuttx.a(c-lib_syslog.o)
 .ARM.attributes
                0x00000000000007e5       0x2f /home/einar/px4_firmware/src/Firmware/build_px4fmu-v2_default/px4io-v2/NuttX/nuttx-export/libs/libnuttx.a(c-lib_tcgetattr.o)
 .ARM.attributes
                0x0000000000000814       0x2f /home/einar/px4_firmware/src/Firmware/build_px4fmu-v2_default/px4io-v2/NuttX/nuttx-export/libs/libnuttx.a(c-lib_tcsetattr.o)
 .ARM.attributes
                0x0000000000000843       0x2f /home/einar/px4_firmware/src/Firmware/build_px4fmu-v2_default/px4io-v2/NuttX/nuttx-export/libs/libnuttx.a(c-lib_vdprintf.o)
 .ARM.attributes
                0x0000000000000872       0x2f /home/einar/px4_firmware/src/Firmware/build_px4fmu-v2_default/px4io-v2/NuttX/nuttx-export/libs/libnuttx.a(c-lib_vsnprintf.o)
 .ARM.attributes
                0x00000000000008a1       0x2f /home/einar/px4_firmware/src/Firmware/build_px4fmu-v2_default/px4io-v2/NuttX/nuttx-export/libs/libnuttx.a(c-sq_addafter.o)
 .ARM.attributes
                0x00000000000008d0       0x2f /home/einar/px4_firmware/src/Firmware/build_px4fmu-v2_default/px4io-v2/NuttX/nuttx-export/libs/libnuttx.a(c-sq_addfirst.o)
 .ARM.attributes
                0x00000000000008ff       0x2f /home/einar/px4_firmware/src/Firmware/build_px4fmu-v2_default/px4io-v2/NuttX/nuttx-export/libs/libnuttx.a(c-sq_addlast.o)
 .ARM.attributes
                0x000000000000092e       0x2f /home/einar/px4_firmware/src/Firmware/build_px4fmu-v2_default/px4io-v2/NuttX/nuttx-export/libs/libnuttx.a(c-sq_rem.o)
 .ARM.attributes
                0x000000000000095d       0x2f /home/einar/px4_firmware/src/Firmware/build_px4fmu-v2_default/px4io-v2/NuttX/nuttx-export/libs/libnuttx.a(mm-mm_calloc.o)
 .ARM.attributes
                0x000000000000098c       0x2f /home/einar/px4_firmware/src/Firmware/build_px4fmu-v2_default/px4io-v2/NuttX/nuttx-export/libs/libnuttx.a(mm-mm_free.o)
 .ARM.attributes
                0x00000000000009bb       0x2f /home/einar/px4_firmware/src/Firmware/build_px4fmu-v2_default/px4io-v2/NuttX/nuttx-export/libs/libnuttx.a(mm-mm_mallinfo.o)
 .ARM.attributes
                0x00000000000009ea       0x2f /home/einar/px4_firmware/src/Firmware/build_px4fmu-v2_default/px4io-v2/NuttX/nuttx-export/libs/libnuttx.a(mm-mm_malloc.o)
 .ARM.attributes
                0x0000000000000a19       0x2f /home/einar/px4_firmware/src/Firmware/build_px4fmu-v2_default/px4io-v2/NuttX/nuttx-export/libs/libnuttx.a(mm-mm_sem.o)
 .ARM.attributes
                0x0000000000000a48       0x2f /home/einar/px4_firmware/src/Firmware/build_px4fmu-v2_default/px4io-v2/NuttX/nuttx-export/libs/libnuttx.a(mm-mm_size2ndx.o)
 .ARM.attributes
                0x0000000000000a77       0x2f /home/einar/px4_firmware/src/Firmware/build_px4fmu-v2_default/px4io-v2/NuttX/nuttx-export/libs/libnuttx.a(mm-mm_user.o)
 .ARM.attributes
                0x0000000000000aa6       0x2f /home/einar/px4_firmware/src/Firmware/build_px4fmu-v2_default/px4io-v2/NuttX/nuttx-export/libs/libnuttx.a(mm-mm_zalloc.o)
 .ARM.attributes
                0x0000000000000ad5       0x2f /home/einar/px4_firmware/src/Firmware/build_px4fmu-v2_default/px4io-v2/NuttX/nuttx-export/libs/libnuttx.a(arch-stm32_dma.o)
 .ARM.attributes
                0x0000000000000b04       0x2f /home/einar/px4_firmware/src/Firmware/build_px4fmu-v2_default/px4io-v2/NuttX/nuttx-export/libs/libnuttx.a(arch-stm32_gpio.o)
 .ARM.attributes
                0x0000000000000b33       0x2f /home/einar/px4_firmware/src/Firmware/build_px4fmu-v2_default/px4io-v2/NuttX/nuttx-export/libs/libnuttx.a(arch-stm32_irq.o)
 .ARM.attributes
                0x0000000000000b62       0x2f /home/einar/px4_firmware/src/Firmware/build_px4fmu-v2_default/px4io-v2/NuttX/nuttx-export/libs/libnuttx.a(arch-stm32_serial.o)
 .ARM.attributes
                0x0000000000000b91       0x2f /home/einar/px4_firmware/src/Firmware/build_px4fmu-v2_default/px4io-v2/NuttX/nuttx-export/libs/libnuttx.a(arch-stm32_start.o)
 .ARM.attributes
                0x0000000000000bc0       0x2f /home/einar/px4_firmware/src/Firmware/build_px4fmu-v2_default/px4io-v2/NuttX/nuttx-export/libs/libnuttx.a(arch-up_assert.o)
 .ARM.attributes
                0x0000000000000bef       0x21 /home/einar/px4_firmware/src/Firmware/build_px4fmu-v2_default/px4io-v2/NuttX/nuttx-export/libs/libnuttx.a(arch-up_exception.o)
 .ARM.attributes
                0x0000000000000c10       0x2f /home/einar/px4_firmware/src/Firmware/build_px4fmu-v2_default/px4io-v2/NuttX/nuttx-export/libs/libnuttx.a(arch-up_hardfault.o)
 .ARM.attributes
                0x0000000000000c3f       0x2f /home/einar/px4_firmware/src/Firmware/build_px4fmu-v2_default/px4io-v2/NuttX/nuttx-export/libs/libnuttx.a(arch-up_modifyreg32.o)
 .ARM.attributes
                0x0000000000000c6e       0x2f /home/einar/px4_firmware/src/Firmware/build_px4fmu-v2_default/px4io-v2/NuttX/nuttx-export/libs/libnuttx.a(arch-up_svcall.o)
 .ARM.attributes
                0x0000000000000c9d       0x2f /home/einar/px4_firmware/src/Firmware/build_px4fmu-v2_default/px4io-v2/NuttX/nuttx-export/libs/libnuttx.a(arch-up_systemreset.o)
 .ARM.attributes
                0x0000000000000ccc       0x2f /home/einar/px4_firmware/src/Firmware/build_px4fmu-v2_default/px4io-v2/NuttX/nuttx-export/libs/libnuttx.a(arch-up_udelay.o)
 .ARM.attributes
                0x0000000000000cfb       0x2f /home/einar/px4_firmware/src/Firmware/build_px4fmu-v2_default/px4io-v2/NuttX/nuttx-export/libs/libnuttx.a(arch-up_vectors.o)
 .ARM.attributes
                0x0000000000000d2a       0x2f /home/einar/px4_firmware/src/Firmware/build_px4fmu-v2_default/px4io-v2/NuttX/nuttx-export/libs/libnuttx.a(cxx-libxx_cxa_atexit.o)
 .ARM.attributes
                0x0000000000000d59       0x2f /home/einar/px4_firmware/src/Firmware/build_px4fmu-v2_default/px4io-v2/NuttX/nuttx-export/libs/libnuttx.a(cxx-libxx_cxapurevirtual.o)
 .ARM.attributes
                0x0000000000000d88       0x2f /home/einar/px4_firmware/src/Firmware/build_px4fmu-v2_default/px4io-v2/NuttX/nuttx-export/libs/libnuttx.a(cxx-libxx_delete.o)
 .ARM.attributes
                0x0000000000000db7       0x2f /home/einar/px4_firmware/src/Firmware/build_px4fmu-v2_default/px4io-v2/NuttX/nuttx-export/libs/libnuttx.a(cxx-libxx_eabi_atexit.o)
 .ARM.attributes
                0x0000000000000de6       0x2f /home/einar/px4_firmware/src/Firmware/build_px4fmu-v2_default/px4io-v2/NuttX/nuttx-export/libs/libnuttx.a(cxx-libxx_new.o)
 .ARM.attributes
                0x0000000000000e15       0x2f /home/einar/px4_firmware/src/Firmware/build_px4fmu-v2_default/px4io-v2/NuttX/nuttx-export/libs/libnuttx.a(fs-fs_ioctl.o)
 .ARM.attributes
                0x0000000000000e44       0x2f /home/einar/px4_firmware/src/Firmware/build_px4fmu-v2_default/px4io-v2/NuttX/nuttx-export/libs/libnuttx.a(fs-fs_open.o)
 .ARM.attributes
                0x0000000000000e73       0x2f /home/einar/px4_firmware/src/Firmware/build_px4fmu-v2_default/px4io-v2/NuttX/nuttx-export/libs/libnuttx.a(fs-fs_read.o)
 .ARM.attributes
                0x0000000000000ea2       0x2f /home/einar/px4_firmware/src/Firmware/build_px4fmu-v2_default/px4io-v2/NuttX/nuttx-export/libs/libnuttx.a(fs-fs_write.o)
 .ARM.attributes
                0x0000000000000ed1       0x2f /home/einar/px4_firmware/src/Firmware/build_px4fmu-v2_default/px4io-v2/NuttX/nuttx-export/libs/libnuttx.a(drivers-serialirq.o)
 .ARM.attributes
                0x0000000000000f00       0x2f /home/einar/px4_firmware/src/Firmware/build_px4fmu-v2_default/px4io-v2/NuttX/nuttx-export/libs/libnuttx.a(drivers-serial.o)
 .ARM.attributes
                0x0000000000000f2f       0x2f /home/einar/px4_firmware/src/Firmware/build_px4fmu-v2_default/px4io-v2/NuttX/nuttx-export/libs/libnuttx.a(sched-errno_getptr.o)
 .ARM.attributes
                0x0000000000000f5e       0x2f /home/einar/px4_firmware/src/Firmware/build_px4fmu-v2_default/px4io-v2/NuttX/nuttx-export/libs/libnuttx.a(sched-exit.o)
 .ARM.attributes
                0x0000000000000f8d       0x2f /home/einar/px4_firmware/src/Firmware/build_px4fmu-v2_default/px4io-v2/NuttX/nuttx-export/libs/libnuttx.a(sched-getpid.o)
 .ARM.attributes
                0x0000000000000fbc       0x2f /home/einar/px4_firmware/src/Firmware/build_px4fmu-v2_default/px4io-v2/NuttX/nuttx-export/libs/libnuttx.a(sched-os_start.o)
 .ARM.attributes
                0x0000000000000feb       0x2f /home/einar/px4_firmware/src/Firmware/build_px4fmu-v2_default/px4io-v2/NuttX/nuttx-export/libs/libnuttx.a(sched-sched_garbage.o)
 .ARM.attributes
                0x000000000000101a       0x2f /home/einar/px4_firmware/src/Firmware/build_px4fmu-v2_default/px4io-v2/NuttX/nuttx-export/libs/libnuttx.a(sched-sched_getfiles.o)
 .ARM.attributes
                0x0000000000001049       0x2f /home/einar/px4_firmware/src/Firmware/build_px4fmu-v2_default/px4io-v2/NuttX/nuttx-export/libs/libnuttx.a(sched-sem_post.o)
 .ARM.attributes
                0x0000000000001078       0x2f /home/einar/px4_firmware/src/Firmware/build_px4fmu-v2_default/px4io-v2/NuttX/nuttx-export/libs/libnuttx.a(sched-sem_trywait.o)
 .ARM.attributes
                0x00000000000010a7       0x2f /home/einar/px4_firmware/src/Firmware/build_px4fmu-v2_default/px4io-v2/NuttX/nuttx-export/libs/libnuttx.a(sched-sem_wait.o)
 .ARM.attributes
                0x00000000000010d6       0x2f /home/einar/px4_firmware/src/Firmware/build_px4fmu-v2_default/px4io-v2/NuttX/nuttx-export/libs/libnuttx.a(sched-task_exithook.o)
 .ARM.attributes
                0x0000000000001105       0x2f /home/einar/px4_firmware/src/Firmware/build_px4fmu-v2_default/px4io-v2/NuttX/nuttx-export/libs/libnuttx.a(sched-task_recover.o)
 .ARM.attributes
                0x0000000000001134       0x2f /home/einar/px4_firmware/src/Firmware/build_px4fmu-v2_default/px4io-v2/NuttX/nuttx-export/libs/libnuttx.a(sched-wd_cancel.o)
 .ARM.attributes
                0x0000000000001163       0x2f /home/einar/px4_firmware/src/Firmware/build_px4fmu-v2_default/px4io-v2/NuttX/nuttx-export/libs/libnuttx.a(sched-wd_delete.o)
 .ARM.attributes
                0x0000000000001192       0x2f /home/einar/px4_firmware/src/Firmware/build_px4fmu-v2_default/px4io-v2/NuttX/nuttx-export/libs/libnuttx.a(sched-wd_initialize.o)
 .ARM.attributes
                0x00000000000011c1       0x2f /home/einar/px4_firmware/src/Firmware/build_px4fmu-v2_default/px4io-v2/NuttX/nuttx-export/libs/libnuttx.a(c-dq_addfirst.o)
 .ARM.attributes
                0x00000000000011f0       0x2f /home/einar/px4_firmware/src/Firmware/build_px4fmu-v2_default/px4io-v2/NuttX/nuttx-export/libs/libnuttx.a(c-lib_cfgetspeed.o)
 .ARM.attributes
                0x000000000000121f       0x2f /home/einar/px4_firmware/src/Firmware/build_px4fmu-v2_default/px4io-v2/NuttX/nuttx-export/libs/libnuttx.a(c-lib_checkbase.o)
 .ARM.attributes
                0x000000000000124e       0x2f /home/einar/px4_firmware/src/Firmware/build_px4fmu-v2_default/px4io-v2/NuttX/nuttx-export/libs/libnuttx.a(c-lib_isbasedigit.o)
 .ARM.attributes
                0x000000000000127d       0x2f /home/einar/px4_firmware/src/Firmware/build_px4fmu-v2_default/px4io-v2/NuttX/nuttx-export/libs/libnuttx.a(c-lib_libvsprintf.o)
 .ARM.attributes
                0x00000000000012ac       0x2f /home/einar/px4_firmware/src/Firmware/build_px4fmu-v2_default/px4io-v2/NuttX/nuttx-export/libs/libnuttx.a(c-lib_lowoutstream.o)
 .ARM.attributes
                0x00000000000012db       0x2f /home/einar/px4_firmware/src/Firmware/build_px4fmu-v2_default/px4io-v2/NuttX/nuttx-export/libs/libnuttx.a(c-lib_memoutstream.o)
 .ARM.attributes
                0x000000000000130a       0x2f /home/einar/px4_firmware/src/Firmware/build_px4fmu-v2_default/px4io-v2/NuttX/nuttx-export/libs/libnuttx.a(c-lib_nulloutstream.o)
 .ARM.attributes
                0x0000000000001339       0x2f /home/einar/px4_firmware/src/Firmware/build_px4fmu-v2_default/px4io-v2/NuttX/nuttx-export/libs/libnuttx.a(c-lib_rawoutstream.o)
 .ARM.attributes
                0x0000000000001368       0x2f /home/einar/px4_firmware/src/Firmware/build_px4fmu-v2_default/px4io-v2/NuttX/nuttx-export/libs/libnuttx.a(c-lib_skipspace.o)
 .ARM.attributes
                0x0000000000001397       0x2f /home/einar/px4_firmware/src/Firmware/build_px4fmu-v2_default/px4io-v2/NuttX/nuttx-export/libs/libnuttx.a(c-lib_strcpy.o)
 .ARM.attributes
                0x00000000000013c6       0x2f /home/einar/px4_firmware/src/Firmware/build_px4fmu-v2_default/px4io-v2/NuttX/nuttx-export/libs/libnuttx.a(c-lib_strlen.o)
 .ARM.attributes
                0x00000000000013f5       0x2f /home/einar/px4_firmware/src/Firmware/build_px4fmu-v2_default/px4io-v2/NuttX/nuttx-export/libs/libnuttx.a(c-sem_init.o)
 .ARM.attributes
                0x0000000000001424       0x2f /home/einar/px4_firmware/src/Firmware/build_px4fmu-v2_default/px4io-v2/NuttX/nuttx-export/libs/libnuttx.a(c-sq_remafter.o)
 .ARM.attributes
                0x0000000000001453       0x2f /home/einar/px4_firmware/src/Firmware/build_px4fmu-v2_default/px4io-v2/NuttX/nuttx-export/libs/libnuttx.a(c-sq_remfirst.o)
 .ARM.attributes
                0x0000000000001482       0x2f /home/einar/px4_firmware/src/Firmware/build_px4fmu-v2_default/px4io-v2/NuttX/nuttx-export/libs/libnuttx.a(mm-mm_addfreechunk.o)
 .ARM.attributes
                0x00000000000014b1       0x2f /home/einar/px4_firmware/src/Firmware/build_px4fmu-v2_default/px4io-v2/NuttX/nuttx-export/libs/libnuttx.a(mm-mm_initialize.o)
 .ARM.attributes
                0x00000000000014e0       0x2f /home/einar/px4_firmware/src/Firmware/build_px4fmu-v2_default/px4io-v2/NuttX/nuttx-export/libs/libnuttx.a(arch-stm32_allocateheap.o)
 .ARM.attributes
                0x000000000000150f       0x2f /home/einar/px4_firmware/src/Firmware/build_px4fmu-v2_default/px4io-v2/NuttX/nuttx-export/libs/libnuttx.a(arch-stm32_idle.o)
 .ARM.attributes
                0x000000000000153e       0x2f /home/einar/px4_firmware/src/Firmware/build_px4fmu-v2_default/px4io-v2/NuttX/nuttx-export/libs/libnuttx.a(arch-stm32_lowputc.o)
 .ARM.attributes
                0x000000000000156d       0x2f /home/einar/px4_firmware/src/Firmware/build_px4fmu-v2_default/px4io-v2/NuttX/nuttx-export/libs/libnuttx.a(arch-stm32_rcc.o)
 .ARM.attributes
                0x000000000000159c       0x21 /home/einar/px4_firmware/src/Firmware/build_px4fmu-v2_default/px4io-v2/NuttX/nuttx-export/libs/libnuttx.a(arch-stm32_vectors.o)
 .ARM.attributes
                0x00000000000015bd       0x2f /home/einar/px4_firmware/src/Firmware/build_px4fmu-v2_default/px4io-v2/NuttX/nuttx-export/libs/libnuttx.a(arch-up_blocktask.o)
 .ARM.attributes
                0x00000000000015ec       0x2f /home/einar/px4_firmware/src/Firmware/build_px4fmu-v2_default/px4io-v2/NuttX/nuttx-export/libs/libnuttx.a(arch-up_copystate.o)
 .ARM.attributes
                0x000000000000161b       0x2f /home/einar/px4_firmware/src/Firmware/build_px4fmu-v2_default/px4io-v2/NuttX/nuttx-export/libs/libnuttx.a(arch-up_doirq.o)
 .ARM.attributes
                0x000000000000164a       0x2f /home/einar/px4_firmware/src/Firmware/build_px4fmu-v2_default/px4io-v2/NuttX/nuttx-export/libs/libnuttx.a(arch-up_exit.o)
 .ARM.attributes
                0x0000000000001679       0x21 /home/einar/px4_firmware/src/Firmware/build_px4fmu-v2_default/px4io-v2/NuttX/nuttx-export/libs/libnuttx.a(arch-up_fullcontextrestore.o)
 .ARM.attributes
                0x000000000000169a       0x2f /home/einar/px4_firmware/src/Firmware/build_px4fmu-v2_default/px4io-v2/NuttX/nuttx-export/libs/libnuttx.a(arch-up_initialize.o)
 .ARM.attributes
                0x00000000000016c9       0x2f /home/einar/px4_firmware/src/Firmware/build_px4fmu-v2_default/px4io-v2/NuttX/nuttx-export/libs/libnuttx.a(arch-up_initialstate.o)
 .ARM.attributes
                0x00000000000016f8       0x2f /home/einar/px4_firmware/src/Firmware/build_px4fmu-v2_default/px4io-v2/NuttX/nuttx-export/libs/libnuttx.a(arch-up_interruptcontext.o)
 .ARM.attributes
                0x0000000000001727       0x2f /home/einar/px4_firmware/src/Firmware/build_px4fmu-v2_default/px4io-v2/NuttX/nuttx-export/libs/libnuttx.a(arch-up_mdelay.o)
 .ARM.attributes
                0x0000000000001756       0x21 /home/einar/px4_firmware/src/Firmware/build_px4fmu-v2_default/px4io-v2/NuttX/nuttx-export/libs/libnuttx.a(arch-up_switchcontext.o)
 .ARM.attributes
                0x0000000000001777       0x2f /home/einar/px4_firmware/src/Firmware/build_px4fmu-v2_default/px4io-v2/NuttX/nuttx-export/libs/libnuttx.a(arch-up_unblocktask.o)
 .ARM.attributes
                0x00000000000017a6       0x2f /home/einar/px4_firmware/src/Firmware/build_px4fmu-v2_default/px4io-v2/NuttX/nuttx-export/libs/libnuttx.a(fs-fs_files.o)
 .ARM.attributes
                0x00000000000017d5       0x2f /home/einar/px4_firmware/src/Firmware/build_px4fmu-v2_default/px4io-v2/NuttX/nuttx-export/libs/libnuttx.a(fs-fs_inodeaddref.o)
 .ARM.attributes
                0x0000000000001804       0x2f /home/einar/px4_firmware/src/Firmware/build_px4fmu-v2_default/px4io-v2/NuttX/nuttx-export/libs/libnuttx.a(fs-fs_inodefind.o)
 .ARM.attributes
                0x0000000000001833       0x2f /home/einar/px4_firmware/src/Firmware/build_px4fmu-v2_default/px4io-v2/NuttX/nuttx-export/libs/libnuttx.a(fs-fs_inode.o)
 .ARM.attributes
                0x0000000000001862       0x2f /home/einar/px4_firmware/src/Firmware/build_px4fmu-v2_default/px4io-v2/NuttX/nuttx-export/libs/libnuttx.a(fs-fs_inoderelease.o)
 .ARM.attributes
                0x0000000000001891       0x2f /home/einar/px4_firmware/src/Firmware/build_px4fmu-v2_default/px4io-v2/NuttX/nuttx-export/libs/libnuttx.a(fs-fs_registerdriver.o)
 .ARM.attributes
                0x00000000000018c0       0x2f /home/einar/px4_firmware/src/Firmware/build_px4fmu-v2_default/px4io-v2/NuttX/nuttx-export/libs/libnuttx.a(drivers-dev_null.o)
 .ARM.attributes
                0x00000000000018ef       0x2f /home/einar/px4_firmware/src/Firmware/build_px4fmu-v2_default/px4io-v2/NuttX/nuttx-export/libs/libnuttx.a(sched-group_create.o)
 .ARM.attributes
                0x000000000000191e       0x2f /home/einar/px4_firmware/src/Firmware/build_px4fmu-v2_default/px4io-v2/NuttX/nuttx-export/libs/libnuttx.a(sched-group_leave.o)
 .ARM.attributes
                0x000000000000194d       0x2f /home/einar/px4_firmware/src/Firmware/build_px4fmu-v2_default/px4io-v2/NuttX/nuttx-export/libs/libnuttx.a(sched-group_setupidlefiles.o)
 .ARM.attributes
                0x000000000000197c       0x2f /home/einar/px4_firmware/src/Firmware/build_px4fmu-v2_default/px4io-v2/NuttX/nuttx-export/libs/libnuttx.a(sched-irq_dispatch.o)
 .ARM.attributes
                0x00000000000019ab       0x2f /home/einar/px4_firmware/src/Firmware/build_px4fmu-v2_default/px4io-v2/NuttX/nuttx-export/libs/libnuttx.a(sched-os_bringup.o)
 .ARM.attributes
                0x00000000000019da       0x2f /home/einar/px4_firmware/src/Firmware/build_px4fmu-v2_default/px4io-v2/NuttX/nuttx-export/libs/libnuttx.a(sched-sched_addblocked.o)
 .ARM.attributes
                0x0000000000001a09       0x2f /home/einar/px4_firmware/src/Firmware/build_px4fmu-v2_default/px4io-v2/NuttX/nuttx-export/libs/libnuttx.a(sched-sched_addprioritized.o)
 .ARM.attributes
                0x0000000000001a38       0x2f /home/einar/px4_firmware/src/Firmware/build_px4fmu-v2_default/px4io-v2/NuttX/nuttx-export/libs/libnuttx.a(sched-sched_addreadytorun.o)
 .ARM.attributes
                0x0000000000001a67       0x2f /home/einar/px4_firmware/src/Firmware/build_px4fmu-v2_default/px4io-v2/NuttX/nuttx-export/libs/libnuttx.a(sched-sched_free.o)
 .ARM.attributes
                0x0000000000001a96       0x2f /home/einar/px4_firmware/src/Firmware/build_px4fmu-v2_default/px4io-v2/NuttX/nuttx-export/libs/libnuttx.a(sched-sched_mergepending.o)
 .ARM.attributes
                0x0000000000001ac5       0x2f /home/einar/px4_firmware/src/Firmware/build_px4fmu-v2_default/px4io-v2/NuttX/nuttx-export/libs/libnuttx.a(sched-sched_removeblocked.o)
 .ARM.attributes
                0x0000000000001af4       0x2f /home/einar/px4_firmware/src/Firmware/build_px4fmu-v2_default/px4io-v2/NuttX/nuttx-export/libs/libnuttx.a(sched-sched_removereadytorun.o)
 .ARM.attributes
                0x0000000000001b23       0x2f /home/einar/px4_firmware/src/Firmware/build_px4fmu-v2_default/px4io-v2/NuttX/nuttx-export/libs/libnuttx.a(sched-sem_destroy.o)
 .ARM.attributes
                0x0000000000001b52       0x2f /home/einar/px4_firmware/src/Firmware/build_px4fmu-v2_default/px4io-v2/NuttX/nuttx-export/libs/libnuttx.a(sched-task_create.o)
 .ARM.attributes
                0x0000000000001b81       0x2f /home/einar/px4_firmware/src/Firmware/build_px4fmu-v2_default/px4io-v2/NuttX/nuttx-export/libs/libnuttx.a(sched-task_exit.o)
 .ARM.attributes
                0x0000000000001bb0       0x2f /home/einar/px4_firmware/src/Firmware/build_px4fmu-v2_default/px4io-v2/NuttX/nuttx-export/libs/libnuttx.a(sched-task_setup.o)
 .ARM.attributes
                0x0000000000001bdf       0x2f /home/einar/px4_firmware/src/Firmware/build_px4fmu-v2_default/px4io-v2/NuttX/nuttx-export/libs/libnuttx.a(sched-task_start.o)
 .ARM.attributes
                0x0000000000001c0e       0x2f /home/einar/px4_firmware/src/Firmware/build_px4fmu-v2_default/px4io-v2/NuttX/nuttx-export/libs/libnuttx.a(sched-task_terminate.o)
 .ARM.attributes
                0x0000000000001c3d       0x2f /home/einar/px4_firmware/src/Firmware/build_px4fmu-v2_default/px4io-v2/NuttX/nuttx-export/libs/libnuttx.a(c-dq_addlast.o)
 .ARM.attributes
                0x0000000000001c6c       0x2f /home/einar/px4_firmware/src/Firmware/build_px4fmu-v2_default/px4io-v2/NuttX/nuttx-export/libs/libnuttx.a(c-dq_rem.o)
 .ARM.attributes
                0x0000000000001c9b       0x2f /home/einar/px4_firmware/src/Firmware/build_px4fmu-v2_default/px4io-v2/NuttX/nuttx-export/libs/libnuttx.a(c-lib_strdup.o)
 .ARM.attributes
                0x0000000000001cca       0x2f /home/einar/px4_firmware/src/Firmware/build_px4fmu-v2_default/px4io-v2/NuttX/nuttx-export/libs/libnuttx.a(arch-stm32_timerisr.o)
 .ARM.attributes
                0x0000000000001cf9       0x2f /home/einar/px4_firmware/src/Firmware/build_px4fmu-v2_default/px4io-v2/NuttX/nuttx-export/libs/libnuttx.a(arch-up_createstack.o)
 .ARM.attributes
                0x0000000000001d28       0x2f /home/einar/px4_firmware/src/Firmware/build_px4fmu-v2_default/px4io-v2/NuttX/nuttx-export/libs/libnuttx.a(arch-up_releasestack.o)
 .ARM.attributes
                0x0000000000001d57       0x2f /home/einar/px4_firmware/src/Firmware/build_px4fmu-v2_default/px4io-v2/NuttX/nuttx-export/libs/libnuttx.a(fs-fs_close.o)
 .ARM.attributes
                0x0000000000001d86       0x2f /home/einar/px4_firmware/src/Firmware/build_px4fmu-v2_default/px4io-v2/NuttX/nuttx-export/libs/libnuttx.a(fs-fs_filedup2.o)
 .ARM.attributes
                0x0000000000001db5       0x2f /home/einar/px4_firmware/src/Firmware/build_px4fmu-v2_default/px4io-v2/NuttX/nuttx-export/libs/libnuttx.a(fs-fs_inodereserve.o)
 .ARM.attributes
                0x0000000000001de4       0x2f /home/einar/px4_firmware/src/Firmware/build_px4fmu-v2_default/px4io-v2/NuttX/nuttx-export/libs/libnuttx.a(sched-group_setuptaskfiles.o)
 .ARM.attributes
                0x0000000000001e13       0x2f /home/einar/px4_firmware/src/Firmware/build_px4fmu-v2_default/px4io-v2/NuttX/nuttx-export/libs/libnuttx.a(sched-sched_gettcb.o)
 .ARM.attributes
                0x0000000000001e42       0x2f /home/einar/px4_firmware/src/Firmware/build_px4fmu-v2_default/px4io-v2/NuttX/nuttx-export/libs/libnuttx.a(sched-sched_lock.o)
 .ARM.attributes
                0x0000000000001e71       0x2f /home/einar/px4_firmware/src/Firmware/build_px4fmu-v2_default/px4io-v2/NuttX/nuttx-export/libs/libnuttx.a(sched-sched_processtimer.o)
 .ARM.attributes
                0x0000000000001ea0       0x2f /home/einar/px4_firmware/src/Firmware/build_px4fmu-v2_default/px4io-v2/NuttX/nuttx-export/libs/libnuttx.a(sched-sched_releasetcb.o)
 .ARM.attributes
                0x0000000000001ecf       0x2f /home/einar/px4_firmware/src/Firmware/build_px4fmu-v2_default/px4io-v2/NuttX/nuttx-export/libs/libnuttx.a(sched-sched_unlock.o)
 .ARM.attributes
                0x0000000000001efe       0x2f /home/einar/px4_firmware/src/Firmware/build_px4fmu-v2_default/px4io-v2/NuttX/nuttx-export/libs/libnuttx.a(sched-task_activate.o)
 .ARM.attributes
                0x0000000000001f2d       0x2f /home/einar/px4_firmware/src/Firmware/build_px4fmu-v2_default/px4io-v2/NuttX/nuttx-export/libs/libnuttx.a(arch-up_releasepending.o)
 .ARM.attributes
                0x0000000000001f5c       0x2d /usr/bin/../lib/gcc/arm-none-eabi/4.9.3/../../../../arm-none-eabi/lib/armv7-m/libm.a(lib_a-sf_fmin.o)
 .ARM.attributes
                0x0000000000001f89       0x2d /usr/bin/../lib/gcc/arm-none-eabi/4.9.3/../../../../arm-none-eabi/lib/armv7-m/libm.a(lib_a-sf_fpclassify.o)
 .ARM.attributes
                0x0000000000001fb6       0x2d /usr/bin/../lib/gcc/arm-none-eabi/4.9.3/../../../../arm-none-eabi/lib/armv7-m/libm.a(lib_a-wf_sqrt.o)
 .ARM.attributes
                0x0000000000001fe3       0x2d /usr/bin/../lib/gcc/arm-none-eabi/4.9.3/../../../../arm-none-eabi/lib/armv7-m/libm.a(lib_a-ef_sqrt.o)
 .ARM.attributes
                0x0000000000002010       0x2d /usr/bin/../lib/gcc/arm-none-eabi/4.9.3/../../../../arm-none-eabi/lib/armv7-m/libm.a(lib_a-s_lib_ver.o)
 .ARM.attributes
                0x000000000000203d       0x2d /usr/bin/../lib/gcc/arm-none-eabi/4.9.3/../../../../arm-none-eabi/lib/armv7-m/libm.a(lib_a-s_matherr.o)
 .ARM.attributes
                0x000000000000206a       0x1d /usr/bin/../lib/gcc/arm-none-eabi/4.9.3/armv7-m/libgcc.a(_lshrdi3.o)
 .ARM.attributes
                0x0000000000002087       0x1d /usr/bin/../lib/gcc/arm-none-eabi/4.9.3/armv7-m/libgcc.a(_arm_addsubdf3.o)
 .ARM.attributes
                0x00000000000020a4       0x1d /usr/bin/../lib/gcc/arm-none-eabi/4.9.3/armv7-m/libgcc.a(_arm_muldivdf3.o)
 .ARM.attributes
                0x00000000000020c1       0x1d /usr/bin/../lib/gcc/arm-none-eabi/4.9.3/armv7-m/libgcc.a(_arm_truncdfsf2.o)
 .ARM.attributes
                0x00000000000020de       0x1d /usr/bin/../lib/gcc/arm-none-eabi/4.9.3/armv7-m/libgcc.a(_arm_addsubsf3.o)
 .ARM.attributes
                0x00000000000020fb       0x1d /usr/bin/../lib/gcc/arm-none-eabi/4.9.3/armv7-m/libgcc.a(_arm_muldivsf3.o)
 .ARM.attributes
                0x0000000000002118       0x1d /usr/bin/../lib/gcc/arm-none-eabi/4.9.3/armv7-m/libgcc.a(_arm_cmpsf2.o)
 .ARM.attributes
                0x0000000000002135       0x1d /usr/bin/../lib/gcc/arm-none-eabi/4.9.3/armv7-m/libgcc.a(_arm_unordsf2.o)
 .ARM.attributes
                0x0000000000002152       0x1d /usr/bin/../lib/gcc/arm-none-eabi/4.9.3/armv7-m/libgcc.a(_arm_fixsfsi.o)
 .ARM.attributes
                0x000000000000216f       0x1d /usr/bin/../lib/gcc/arm-none-eabi/4.9.3/armv7-m/libgcc.a(_arm_fixunssfsi.o)
 .ARM.attributes
                0x000000000000218c       0x1d /usr/bin/../lib/gcc/arm-none-eabi/4.9.3/armv7-m/libgcc.a(_aeabi_uldivmod.o)
 .ARM.attributes
                0x00000000000021a9       0x2d /usr/bin/../lib/gcc/arm-none-eabi/4.9.3/armv7-m/libgcc.a(bpabi.o)
 .ARM.attributes
                0x00000000000021d6       0x1d /usr/bin/../lib/gcc/arm-none-eabi/4.9.3/armv7-m/libgcc.a(_dvmd_tls.o)
 .ARM.attributes
                0x00000000000021f3       0x2d /usr/bin/../lib/gcc/arm-none-eabi/4.9.3/armv7-m/libgcc.a(_divdi3.o)
 .ARM.attributes
                0x0000000000002220       0x2d /usr/bin/../lib/gcc/arm-none-eabi/4.9.3/armv7-m/libgcc.a(_udivdi3.o)

.debug_abbrev   0x0000000000000000     0xf578
 *(.debug_abbrev)
 .debug_abbrev  0x0000000000000000      0x17f CMakeFiles/px4io-v2.dir/adc.c.obj
 .debug_abbrev  0x000000000000017f      0x2e9 CMakeFiles/px4io-v2.dir/controls.c.obj
 .debug_abbrev  0x0000000000000468      0x358 CMakeFiles/px4io-v2.dir/dsm.c.obj
 .debug_abbrev  0x00000000000007c0      0x2fe CMakeFiles/px4io-v2.dir/px4io.c.obj
 .debug_abbrev  0x0000000000000abe      0x287 CMakeFiles/px4io-v2.dir/registers.c.obj
 .debug_abbrev  0x0000000000000d45      0x1f0 CMakeFiles/px4io-v2.dir/safety.c.obj
 .debug_abbrev  0x0000000000000f35      0x265 CMakeFiles/px4io-v2.dir/sbus.c.obj
 .debug_abbrev  0x000000000000119a       0x86 CMakeFiles/px4io-v2.dir/__/systemlib/up_cxxinitialize.c.obj
 .debug_abbrev  0x0000000000001220      0x318 CMakeFiles/px4io-v2.dir/__/systemlib/perf_counter.c.obj
 .debug_abbrev  0x0000000000001538      0x3e0 CMakeFiles/px4io-v2.dir/mixer.cpp.obj
 .debug_abbrev  0x0000000000001918      0x3fb CMakeFiles/px4io-v2.dir/__/systemlib/mixer/mixer.cpp.obj
 .debug_abbrev  0x0000000000001d13      0x3e7 CMakeFiles/px4io-v2.dir/__/systemlib/mixer/mixer_group.cpp.obj
 .debug_abbrev  0x00000000000020fa      0x540 CMakeFiles/px4io-v2.dir/__/systemlib/mixer/mixer_multirotor.cpp.obj
 .debug_abbrev  0x000000000000263a      0x539 CMakeFiles/px4io-v2.dir/__/systemlib/mixer/mixer_simple.cpp.obj
 .debug_abbrev  0x0000000000002b73      0x174 CMakeFiles/px4io-v2.dir/__/systemlib/pwm_limit/pwm_limit.c.obj
 .debug_abbrev  0x0000000000002ce7      0x168 CMakeFiles/px4io-v2.dir/__/__/lib/rc/st24.c.obj
 .debug_abbrev  0x0000000000002e4f      0x1d4 CMakeFiles/px4io-v2.dir/__/__/lib/rc/sumd.c.obj
 .debug_abbrev  0x0000000000003023      0x3e2 CMakeFiles/px4io-v2.dir/__/__/drivers/stm32/drv_hrt.c.obj
 .debug_abbrev  0x0000000000003405      0x225 CMakeFiles/px4io-v2.dir/__/__/drivers/stm32/drv_pwm_servo.c.obj
 .debug_abbrev  0x000000000000362a       0xa5 CMakeFiles/px4io-v2.dir/__/__/drivers/boards/px4io-v2/px4io_init.c.obj
 .debug_abbrev  0x00000000000036cf       0x93 CMakeFiles/px4io-v2.dir/__/__/drivers/boards/px4io-v2/px4io_pwm_servo.c.obj
 .debug_abbrev  0x0000000000003762      0x2d6 CMakeFiles/px4io-v2.dir/serial.c.obj
 .debug_abbrev  0x0000000000003a38      0x34d CMakeFiles/px4io-v2.dir/__/systemlib/hx_stream.c.obj
 .debug_abbrev  0x0000000000003d85      0x155 /home/einar/px4_firmware/src/Firmware/build_px4fmu-v2_default/px4io-v2/NuttX/nuttx-export/libs/libnuttx.a(sched-irq_attach.o)
 .debug_abbrev  0x0000000000003eda       0xa5 /home/einar/px4_firmware/src/Firmware/build_px4fmu-v2_default/px4io-v2/NuttX/nuttx-export/libs/libnuttx.a(sched-irq_initialize.o)
 .debug_abbrev  0x0000000000003f7f       0xfa /home/einar/px4_firmware/src/Firmware/build_px4fmu-v2_default/px4io-v2/NuttX/nuttx-export/libs/libnuttx.a(sched-irq_unexpectedisr.o)
 .debug_abbrev  0x0000000000004079       0x73 /home/einar/px4_firmware/src/Firmware/build_px4fmu-v2_default/px4io-v2/NuttX/nuttx-export/libs/libnuttx.a(c-lib_abort.o)
 .debug_abbrev  0x00000000000040ec       0xaa /home/einar/px4_firmware/src/Firmware/build_px4fmu-v2_default/px4io-v2/NuttX/nuttx-export/libs/libnuttx.a(c-lib_cfsetspeed.o)
 .debug_abbrev  0x0000000000004196       0xcb /home/einar/px4_firmware/src/Firmware/build_px4fmu-v2_default/px4io-v2/NuttX/nuttx-export/libs/libnuttx.a(c-lib_crc32.o)
 .debug_abbrev  0x0000000000004261       0xe9 /home/einar/px4_firmware/src/Firmware/build_px4fmu-v2_default/px4io-v2/NuttX/nuttx-export/libs/libnuttx.a(c-lib_dprintf.o)
 .debug_abbrev  0x000000000000434a      0x13f /home/einar/px4_firmware/src/Firmware/build_px4fmu-v2_default/px4io-v2/NuttX/nuttx-export/libs/libnuttx.a(c-lib_lowsyslog.o)
 .debug_abbrev  0x0000000000004489       0x9c /home/einar/px4_firmware/src/Firmware/build_px4fmu-v2_default/px4io-v2/NuttX/nuttx-export/libs/libnuttx.a(c-lib_memchr.o)
 .debug_abbrev  0x0000000000004525       0xa4 /home/einar/px4_firmware/src/Firmware/build_px4fmu-v2_default/px4io-v2/NuttX/nuttx-export/libs/libnuttx.a(c-lib_memcpy.o)
 .debug_abbrev  0x00000000000045c9       0x90 /home/einar/px4_firmware/src/Firmware/build_px4fmu-v2_default/px4io-v2/NuttX/nuttx-export/libs/libnuttx.a(c-lib_memset.o)
 .debug_abbrev  0x0000000000004659       0xe4 /home/einar/px4_firmware/src/Firmware/build_px4fmu-v2_default/px4io-v2/NuttX/nuttx-export/libs/libnuttx.a(c-lib_printf.o)
 .debug_abbrev  0x000000000000473d      0x201 /home/einar/px4_firmware/src/Firmware/build_px4fmu-v2_default/px4io-v2/NuttX/nuttx-export/libs/libnuttx.a(c-lib_sscanf.o)
 .debug_abbrev  0x000000000000493e       0x74 /home/einar/px4_firmware/src/Firmware/build_px4fmu-v2_default/px4io-v2/NuttX/nuttx-export/libs/libnuttx.a(c-lib_strchr.o)
 .debug_abbrev  0x00000000000049b2       0x74 /home/einar/px4_firmware/src/Firmware/build_px4fmu-v2_default/px4io-v2/NuttX/nuttx-export/libs/libnuttx.a(c-lib_strcmp.o)
 .debug_abbrev  0x0000000000004a26       0xc1 /home/einar/px4_firmware/src/Firmware/build_px4fmu-v2_default/px4io-v2/NuttX/nuttx-export/libs/libnuttx.a(c-lib_strcspn.o)
 .debug_abbrev  0x0000000000004ae7       0x90 /home/einar/px4_firmware/src/Firmware/build_px4fmu-v2_default/px4io-v2/NuttX/nuttx-export/libs/libnuttx.a(c-lib_strncpy.o)
 .debug_abbrev  0x0000000000004b77       0xd2 /home/einar/px4_firmware/src/Firmware/build_px4fmu-v2_default/px4io-v2/NuttX/nuttx-export/libs/libnuttx.a(c-lib_strtol.o)
 .debug_abbrev  0x0000000000004c49       0xe3 /home/einar/px4_firmware/src/Firmware/build_px4fmu-v2_default/px4io-v2/NuttX/nuttx-export/libs/libnuttx.a(c-lib_strtoul.o)
 .debug_abbrev  0x0000000000004d2c      0x13f /home/einar/px4_firmware/src/Firmware/build_px4fmu-v2_default/px4io-v2/NuttX/nuttx-export/libs/libnuttx.a(c-lib_syslog.o)
 .debug_abbrev  0x0000000000004e6b       0xe0 /home/einar/px4_firmware/src/Firmware/build_px4fmu-v2_default/px4io-v2/NuttX/nuttx-export/libs/libnuttx.a(c-lib_tcgetattr.o)
 .debug_abbrev  0x0000000000004f4b       0xe7 /home/einar/px4_firmware/src/Firmware/build_px4fmu-v2_default/px4io-v2/NuttX/nuttx-export/libs/libnuttx.a(c-lib_tcsetattr.o)
 .debug_abbrev  0x0000000000005032      0x11c /home/einar/px4_firmware/src/Firmware/build_px4fmu-v2_default/px4io-v2/NuttX/nuttx-export/libs/libnuttx.a(c-lib_vdprintf.o)
 .debug_abbrev  0x000000000000514e      0x13a /home/einar/px4_firmware/src/Firmware/build_px4fmu-v2_default/px4io-v2/NuttX/nuttx-export/libs/libnuttx.a(c-lib_vsnprintf.o)
 .debug_abbrev  0x0000000000005288       0xb9 /home/einar/px4_firmware/src/Firmware/build_px4fmu-v2_default/px4io-v2/NuttX/nuttx-export/libs/libnuttx.a(c-sq_addafter.o)
 .debug_abbrev  0x0000000000005341       0x87 /home/einar/px4_firmware/src/Firmware/build_px4fmu-v2_default/px4io-v2/NuttX/nuttx-export/libs/libnuttx.a(c-sq_addfirst.o)
 .debug_abbrev  0x00000000000053c8       0x87 /home/einar/px4_firmware/src/Firmware/build_px4fmu-v2_default/px4io-v2/NuttX/nuttx-export/libs/libnuttx.a(c-sq_addlast.o)
 .debug_abbrev  0x000000000000544f       0xc7 /home/einar/px4_firmware/src/Firmware/build_px4fmu-v2_default/px4io-v2/NuttX/nuttx-export/libs/libnuttx.a(c-sq_rem.o)
 .debug_abbrev  0x0000000000005516       0xbb /home/einar/px4_firmware/src/Firmware/build_px4fmu-v2_default/px4io-v2/NuttX/nuttx-export/libs/libnuttx.a(mm-mm_calloc.o)
 .debug_abbrev  0x00000000000055d1      0x16c /home/einar/px4_firmware/src/Firmware/build_px4fmu-v2_default/px4io-v2/NuttX/nuttx-export/libs/libnuttx.a(mm-mm_free.o)
 .debug_abbrev  0x000000000000573d      0x157 /home/einar/px4_firmware/src/Firmware/build_px4fmu-v2_default/px4io-v2/NuttX/nuttx-export/libs/libnuttx.a(mm-mm_mallinfo.o)
 .debug_abbrev  0x0000000000005894      0x19d /home/einar/px4_firmware/src/Firmware/build_px4fmu-v2_default/px4io-v2/NuttX/nuttx-export/libs/libnuttx.a(mm-mm_malloc.o)
 .debug_abbrev  0x0000000000005a31      0x17c /home/einar/px4_firmware/src/Firmware/build_px4fmu-v2_default/px4io-v2/NuttX/nuttx-export/libs/libnuttx.a(mm-mm_sem.o)
 .debug_abbrev  0x0000000000005bad       0x6f /home/einar/px4_firmware/src/Firmware/build_px4fmu-v2_default/px4io-v2/NuttX/nuttx-export/libs/libnuttx.a(mm-mm_size2ndx.o)
 .debug_abbrev  0x0000000000005c1c      0x141 /home/einar/px4_firmware/src/Firmware/build_px4fmu-v2_default/px4io-v2/NuttX/nuttx-export/libs/libnuttx.a(mm-mm_user.o)
 .debug_abbrev  0x0000000000005d5d       0xc9 /home/einar/px4_firmware/src/Firmware/build_px4fmu-v2_default/px4io-v2/NuttX/nuttx-export/libs/libnuttx.a(mm-mm_zalloc.o)
 .debug_abbrev  0x0000000000005e26      0x34e /home/einar/px4_firmware/src/Firmware/build_px4fmu-v2_default/px4io-v2/NuttX/nuttx-export/libs/libnuttx.a(arch-stm32_dma.o)
 .debug_abbrev  0x0000000000006174      0x1ec /home/einar/px4_firmware/src/Firmware/build_px4fmu-v2_default/px4io-v2/NuttX/nuttx-export/libs/libnuttx.a(arch-stm32_gpio.o)
 .debug_abbrev  0x0000000000006360      0x1f9 /home/einar/px4_firmware/src/Firmware/build_px4fmu-v2_default/px4io-v2/NuttX/nuttx-export/libs/libnuttx.a(arch-stm32_irq.o)
 .debug_abbrev  0x0000000000006559      0x3ae /home/einar/px4_firmware/src/Firmware/build_px4fmu-v2_default/px4io-v2/NuttX/nuttx-export/libs/libnuttx.a(arch-stm32_serial.o)
 .debug_abbrev  0x0000000000006907       0xbb /home/einar/px4_firmware/src/Firmware/build_px4fmu-v2_default/px4io-v2/NuttX/nuttx-export/libs/libnuttx.a(arch-stm32_start.o)
 .debug_abbrev  0x00000000000069c2      0x2e0 /home/einar/px4_firmware/src/Firmware/build_px4fmu-v2_default/px4io-v2/NuttX/nuttx-export/libs/libnuttx.a(arch-up_assert.o)
 .debug_abbrev  0x0000000000006ca2       0x14 /home/einar/px4_firmware/src/Firmware/build_px4fmu-v2_default/px4io-v2/NuttX/nuttx-export/libs/libnuttx.a(arch-up_exception.o)
 .debug_abbrev  0x0000000000006cb6      0x162 /home/einar/px4_firmware/src/Firmware/build_px4fmu-v2_default/px4io-v2/NuttX/nuttx-export/libs/libnuttx.a(arch-up_hardfault.o)
 .debug_abbrev  0x0000000000006e18      0x102 /home/einar/px4_firmware/src/Firmware/build_px4fmu-v2_default/px4io-v2/NuttX/nuttx-export/libs/libnuttx.a(arch-up_modifyreg32.o)
 .debug_abbrev  0x0000000000006f1a       0xf8 /home/einar/px4_firmware/src/Firmware/build_px4fmu-v2_default/px4io-v2/NuttX/nuttx-export/libs/libnuttx.a(arch-up_svcall.o)
 .debug_abbrev  0x0000000000007012       0x5e /home/einar/px4_firmware/src/Firmware/build_px4fmu-v2_default/px4io-v2/NuttX/nuttx-export/libs/libnuttx.a(arch-up_systemreset.o)
 .debug_abbrev  0x0000000000007070       0x76 /home/einar/px4_firmware/src/Firmware/build_px4fmu-v2_default/px4io-v2/NuttX/nuttx-export/libs/libnuttx.a(arch-up_udelay.o)
 .debug_abbrev  0x00000000000070e6       0x4f /home/einar/px4_firmware/src/Firmware/build_px4fmu-v2_default/px4io-v2/NuttX/nuttx-export/libs/libnuttx.a(arch-up_vectors.o)
 .debug_abbrev  0x0000000000007135      0x11f /home/einar/px4_firmware/src/Firmware/build_px4fmu-v2_default/px4io-v2/NuttX/nuttx-export/libs/libnuttx.a(cxx-libxx_cxa_atexit.o)
 .debug_abbrev  0x0000000000007254       0x8e /home/einar/px4_firmware/src/Firmware/build_px4fmu-v2_default/px4io-v2/NuttX/nuttx-export/libs/libnuttx.a(cxx-libxx_cxapurevirtual.o)
 .debug_abbrev  0x00000000000072e2      0x112 /home/einar/px4_firmware/src/Firmware/build_px4fmu-v2_default/px4io-v2/NuttX/nuttx-export/libs/libnuttx.a(cxx-libxx_delete.o)
 .debug_abbrev  0x00000000000073f4      0x11b /home/einar/px4_firmware/src/Firmware/build_px4fmu-v2_default/px4io-v2/NuttX/nuttx-export/libs/libnuttx.a(cxx-libxx_eabi_atexit.o)
 .debug_abbrev  0x000000000000750f      0x12c /home/einar/px4_firmware/src/Firmware/build_px4fmu-v2_default/px4io-v2/NuttX/nuttx-export/libs/libnuttx.a(cxx-libxx_new.o)
 .debug_abbrev  0x000000000000763b      0x154 /home/einar/px4_firmware/src/Firmware/build_px4fmu-v2_default/px4io-v2/NuttX/nuttx-export/libs/libnuttx.a(fs-fs_ioctl.o)
 .debug_abbrev  0x000000000000778f      0x1f0 /home/einar/px4_firmware/src/Firmware/build_px4fmu-v2_default/px4io-v2/NuttX/nuttx-export/libs/libnuttx.a(fs-fs_open.o)
 .debug_abbrev  0x000000000000797f      0x1b7 /home/einar/px4_firmware/src/Firmware/build_px4fmu-v2_default/px4io-v2/NuttX/nuttx-export/libs/libnuttx.a(fs-fs_read.o)
 .debug_abbrev  0x0000000000007b36      0x1bf /home/einar/px4_firmware/src/Firmware/build_px4fmu-v2_default/px4io-v2/NuttX/nuttx-export/libs/libnuttx.a(fs-fs_write.o)
 .debug_abbrev  0x0000000000007cf5      0x195 /home/einar/px4_firmware/src/Firmware/build_px4fmu-v2_default/px4io-v2/NuttX/nuttx-export/libs/libnuttx.a(drivers-serialirq.o)
 .debug_abbrev  0x0000000000007e8a      0x3c9 /home/einar/px4_firmware/src/Firmware/build_px4fmu-v2_default/px4io-v2/NuttX/nuttx-export/libs/libnuttx.a(drivers-serial.o)
 .debug_abbrev  0x0000000000008253      0x190 /home/einar/px4_firmware/src/Firmware/build_px4fmu-v2_default/px4io-v2/NuttX/nuttx-export/libs/libnuttx.a(sched-errno_getptr.o)
 .debug_abbrev  0x00000000000083e3      0x195 /home/einar/px4_firmware/src/Firmware/build_px4fmu-v2_default/px4io-v2/NuttX/nuttx-export/libs/libnuttx.a(sched-exit.o)
 .debug_abbrev  0x0000000000008578      0x12f /home/einar/px4_firmware/src/Firmware/build_px4fmu-v2_default/px4io-v2/NuttX/nuttx-export/libs/libnuttx.a(sched-getpid.o)
 .debug_abbrev  0x00000000000086a7      0x247 /home/einar/px4_firmware/src/Firmware/build_px4fmu-v2_default/px4io-v2/NuttX/nuttx-export/libs/libnuttx.a(sched-os_start.o)
 .debug_abbrev  0x00000000000088ee      0x16d /home/einar/px4_firmware/src/Firmware/build_px4fmu-v2_default/px4io-v2/NuttX/nuttx-export/libs/libnuttx.a(sched-sched_garbage.o)
 .debug_abbrev  0x0000000000008a5b      0x14f /home/einar/px4_firmware/src/Firmware/build_px4fmu-v2_default/px4io-v2/NuttX/nuttx-export/libs/libnuttx.a(sched-sched_getfiles.o)
 .debug_abbrev  0x0000000000008baa      0x21d /home/einar/px4_firmware/src/Firmware/build_px4fmu-v2_default/px4io-v2/NuttX/nuttx-export/libs/libnuttx.a(sched-sem_post.o)
 .debug_abbrev  0x0000000000008dc7      0x1f3 /home/einar/px4_firmware/src/Firmware/build_px4fmu-v2_default/px4io-v2/NuttX/nuttx-export/libs/libnuttx.a(sched-sem_trywait.o)
 .debug_abbrev  0x0000000000008fba      0x248 /home/einar/px4_firmware/src/Firmware/build_px4fmu-v2_default/px4io-v2/NuttX/nuttx-export/libs/libnuttx.a(sched-sem_wait.o)
 .debug_abbrev  0x0000000000009202      0x17d /home/einar/px4_firmware/src/Firmware/build_px4fmu-v2_default/px4io-v2/NuttX/nuttx-export/libs/libnuttx.a(sched-task_exithook.o)
 .debug_abbrev  0x000000000000937f      0x1d0 /home/einar/px4_firmware/src/Firmware/build_px4fmu-v2_default/px4io-v2/NuttX/nuttx-export/libs/libnuttx.a(sched-task_recover.o)
 .debug_abbrev  0x000000000000954f      0x1cb /home/einar/px4_firmware/src/Firmware/build_px4fmu-v2_default/px4io-v2/NuttX/nuttx-export/libs/libnuttx.a(sched-wd_cancel.o)
 .debug_abbrev  0x000000000000971a      0x1b1 /home/einar/px4_firmware/src/Firmware/build_px4fmu-v2_default/px4io-v2/NuttX/nuttx-export/libs/libnuttx.a(sched-wd_delete.o)
 .debug_abbrev  0x00000000000098cb      0x142 /home/einar/px4_firmware/src/Firmware/build_px4fmu-v2_default/px4io-v2/NuttX/nuttx-export/libs/libnuttx.a(sched-wd_initialize.o)
 .debug_abbrev  0x0000000000009a0d       0x87 /home/einar/px4_firmware/src/Firmware/build_px4fmu-v2_default/px4io-v2/NuttX/nuttx-export/libs/libnuttx.a(c-dq_addfirst.o)
 .debug_abbrev  0x0000000000009a94       0xa2 /home/einar/px4_firmware/src/Firmware/build_px4fmu-v2_default/px4io-v2/NuttX/nuttx-export/libs/libnuttx.a(c-lib_cfgetspeed.o)
 .debug_abbrev  0x0000000000009b36       0xb4 /home/einar/px4_firmware/src/Firmware/build_px4fmu-v2_default/px4io-v2/NuttX/nuttx-export/libs/libnuttx.a(c-lib_checkbase.o)
 .debug_abbrev  0x0000000000009bea       0x98 /home/einar/px4_firmware/src/Firmware/build_px4fmu-v2_default/px4io-v2/NuttX/nuttx-export/libs/libnuttx.a(c-lib_isbasedigit.o)
 .debug_abbrev  0x0000000000009c82      0x309 /home/einar/px4_firmware/src/Firmware/build_px4fmu-v2_default/px4io-v2/NuttX/nuttx-export/libs/libnuttx.a(c-lib_libvsprintf.o)
 .debug_abbrev  0x0000000000009f8b      0x106 /home/einar/px4_firmware/src/Firmware/build_px4fmu-v2_default/px4io-v2/NuttX/nuttx-export/libs/libnuttx.a(c-lib_lowoutstream.o)
 .debug_abbrev  0x000000000000a091       0xe9 /home/einar/px4_firmware/src/Firmware/build_px4fmu-v2_default/px4io-v2/NuttX/nuttx-export/libs/libnuttx.a(c-lib_memoutstream.o)
 .debug_abbrev  0x000000000000a17a       0xcb /home/einar/px4_firmware/src/Firmware/build_px4fmu-v2_default/px4io-v2/NuttX/nuttx-export/libs/libnuttx.a(c-lib_nulloutstream.o)
 .debug_abbrev  0x000000000000a245      0x15a /home/einar/px4_firmware/src/Firmware/build_px4fmu-v2_default/px4io-v2/NuttX/nuttx-export/libs/libnuttx.a(c-lib_rawoutstream.o)
 .debug_abbrev  0x000000000000a39f       0x72 /home/einar/px4_firmware/src/Firmware/build_px4fmu-v2_default/px4io-v2/NuttX/nuttx-export/libs/libnuttx.a(c-lib_skipspace.o)
 .debug_abbrev  0x000000000000a411       0x83 /home/einar/px4_firmware/src/Firmware/build_px4fmu-v2_default/px4io-v2/NuttX/nuttx-export/libs/libnuttx.a(c-lib_strcpy.o)
 .debug_abbrev  0x000000000000a494       0x81 /home/einar/px4_firmware/src/Firmware/build_px4fmu-v2_default/px4io-v2/NuttX/nuttx-export/libs/libnuttx.a(c-lib_strlen.o)
 .debug_abbrev  0x000000000000a515       0xb6 /home/einar/px4_firmware/src/Firmware/build_px4fmu-v2_default/px4io-v2/NuttX/nuttx-export/libs/libnuttx.a(c-sem_init.o)
 .debug_abbrev  0x000000000000a5cb       0x98 /home/einar/px4_firmware/src/Firmware/build_px4fmu-v2_default/px4io-v2/NuttX/nuttx-export/libs/libnuttx.a(c-sq_remafter.o)
 .debug_abbrev  0x000000000000a663       0x98 /home/einar/px4_firmware/src/Firmware/build_px4fmu-v2_default/px4io-v2/NuttX/nuttx-export/libs/libnuttx.a(c-sq_remfirst.o)
 .debug_abbrev  0x000000000000a6fb       0xdc /home/einar/px4_firmware/src/Firmware/build_px4fmu-v2_default/px4io-v2/NuttX/nuttx-export/libs/libnuttx.a(mm-mm_addfreechunk.o)
 .debug_abbrev  0x000000000000a7d7      0x130 /home/einar/px4_firmware/src/Firmware/build_px4fmu-v2_default/px4io-v2/NuttX/nuttx-export/libs/libnuttx.a(mm-mm_initialize.o)
 .debug_abbrev  0x000000000000a907       0x88 /home/einar/px4_firmware/src/Firmware/build_px4fmu-v2_default/px4io-v2/NuttX/nuttx-export/libs/libnuttx.a(arch-stm32_allocateheap.o)
 .debug_abbrev  0x000000000000a98f       0x42 /home/einar/px4_firmware/src/Firmware/build_px4fmu-v2_default/px4io-v2/NuttX/nuttx-export/libs/libnuttx.a(arch-stm32_idle.o)
 .debug_abbrev  0x000000000000a9d1       0xd6 /home/einar/px4_firmware/src/Firmware/build_px4fmu-v2_default/px4io-v2/NuttX/nuttx-export/libs/libnuttx.a(arch-stm32_lowputc.o)
 .debug_abbrev  0x000000000000aaa7      0x119 /home/einar/px4_firmware/src/Firmware/build_px4fmu-v2_default/px4io-v2/NuttX/nuttx-export/libs/libnuttx.a(arch-stm32_rcc.o)
 .debug_abbrev  0x000000000000abc0      0x206 /home/einar/px4_firmware/src/Firmware/build_px4fmu-v2_default/px4io-v2/NuttX/nuttx-export/libs/libnuttx.a(arch-up_blocktask.o)
 .debug_abbrev  0x000000000000adc6       0x87 /home/einar/px4_firmware/src/Firmware/build_px4fmu-v2_default/px4io-v2/NuttX/nuttx-export/libs/libnuttx.a(arch-up_copystate.o)
 .debug_abbrev  0x000000000000ae4d       0xf7 /home/einar/px4_firmware/src/Firmware/build_px4fmu-v2_default/px4io-v2/NuttX/nuttx-export/libs/libnuttx.a(arch-up_doirq.o)
 .debug_abbrev  0x000000000000af44      0x1bf /home/einar/px4_firmware/src/Firmware/build_px4fmu-v2_default/px4io-v2/NuttX/nuttx-export/libs/libnuttx.a(arch-up_exit.o)
 .debug_abbrev  0x000000000000b103       0x14 /home/einar/px4_firmware/src/Firmware/build_px4fmu-v2_default/px4io-v2/NuttX/nuttx-export/libs/libnuttx.a(arch-up_fullcontextrestore.o)
 .debug_abbrev  0x000000000000b117       0x9c /home/einar/px4_firmware/src/Firmware/build_px4fmu-v2_default/px4io-v2/NuttX/nuttx-export/libs/libnuttx.a(arch-up_initialize.o)
 .debug_abbrev  0x000000000000b1b3      0x17f /home/einar/px4_firmware/src/Firmware/build_px4fmu-v2_default/px4io-v2/NuttX/nuttx-export/libs/libnuttx.a(arch-up_initialstate.o)
 .debug_abbrev  0x000000000000b332       0x72 /home/einar/px4_firmware/src/Firmware/build_px4fmu-v2_default/px4io-v2/NuttX/nuttx-export/libs/libnuttx.a(arch-up_interruptcontext.o)
 .debug_abbrev  0x000000000000b3a4       0x69 /home/einar/px4_firmware/src/Firmware/build_px4fmu-v2_default/px4io-v2/NuttX/nuttx-export/libs/libnuttx.a(arch-up_mdelay.o)
 .debug_abbrev  0x000000000000b40d       0x14 /home/einar/px4_firmware/src/Firmware/build_px4fmu-v2_default/px4io-v2/NuttX/nuttx-export/libs/libnuttx.a(arch-up_switchcontext.o)
 .debug_abbrev  0x000000000000b421      0x1e4 /home/einar/px4_firmware/src/Firmware/build_px4fmu-v2_default/px4io-v2/NuttX/nuttx-export/libs/libnuttx.a(arch-up_unblocktask.o)
 .debug_abbrev  0x000000000000b605      0x2ac /home/einar/px4_firmware/src/Firmware/build_px4fmu-v2_default/px4io-v2/NuttX/nuttx-export/libs/libnuttx.a(fs-fs_files.o)
 .debug_abbrev  0x000000000000b8b1      0x11c /home/einar/px4_firmware/src/Firmware/build_px4fmu-v2_default/px4io-v2/NuttX/nuttx-export/libs/libnuttx.a(fs-fs_inodeaddref.o)
 .debug_abbrev  0x000000000000b9cd      0x14d /home/einar/px4_firmware/src/Firmware/build_px4fmu-v2_default/px4io-v2/NuttX/nuttx-export/libs/libnuttx.a(fs-fs_inodefind.o)
 .debug_abbrev  0x000000000000bb1a      0x27c /home/einar/px4_firmware/src/Firmware/build_px4fmu-v2_default/px4io-v2/NuttX/nuttx-export/libs/libnuttx.a(fs-fs_inode.o)
 .debug_abbrev  0x000000000000bd96      0x15c /home/einar/px4_firmware/src/Firmware/build_px4fmu-v2_default/px4io-v2/NuttX/nuttx-export/libs/libnuttx.a(fs-fs_inoderelease.o)
 .debug_abbrev  0x000000000000bef2      0x15c /home/einar/px4_firmware/src/Firmware/build_px4fmu-v2_default/px4io-v2/NuttX/nuttx-export/libs/libnuttx.a(fs-fs_registerdriver.o)
 .debug_abbrev  0x000000000000c04e      0x166 /home/einar/px4_firmware/src/Firmware/build_px4fmu-v2_default/px4io-v2/NuttX/nuttx-export/libs/libnuttx.a(drivers-dev_null.o)
 .debug_abbrev  0x000000000000c1b4      0x1aa /home/einar/px4_firmware/src/Firmware/build_px4fmu-v2_default/px4io-v2/NuttX/nuttx-export/libs/libnuttx.a(sched-group_create.o)
 .debug_abbrev  0x000000000000c35e      0x1b3 /home/einar/px4_firmware/src/Firmware/build_px4fmu-v2_default/px4io-v2/NuttX/nuttx-export/libs/libnuttx.a(sched-group_leave.o)
 .debug_abbrev  0x000000000000c511      0x1aa /home/einar/px4_firmware/src/Firmware/build_px4fmu-v2_default/px4io-v2/NuttX/nuttx-export/libs/libnuttx.a(sched-group_setupidlefiles.o)
 .debug_abbrev  0x000000000000c6bb       0xc0 /home/einar/px4_firmware/src/Firmware/build_px4fmu-v2_default/px4io-v2/NuttX/nuttx-export/libs/libnuttx.a(sched-irq_dispatch.o)
 .debug_abbrev  0x000000000000c77b       0xd0 /home/einar/px4_firmware/src/Firmware/build_px4fmu-v2_default/px4io-v2/NuttX/nuttx-export/libs/libnuttx.a(sched-os_bringup.o)
 .debug_abbrev  0x000000000000c84b      0x1b3 /home/einar/px4_firmware/src/Firmware/build_px4fmu-v2_default/px4io-v2/NuttX/nuttx-export/libs/libnuttx.a(sched-sched_addblocked.o)
 .debug_abbrev  0x000000000000c9fe      0x18e /home/einar/px4_firmware/src/Firmware/build_px4fmu-v2_default/px4io-v2/NuttX/nuttx-export/libs/libnuttx.a(sched-sched_addprioritized.o)
 .debug_abbrev  0x000000000000cb8c      0x1c2 /home/einar/px4_firmware/src/Firmware/build_px4fmu-v2_default/px4io-v2/NuttX/nuttx-export/libs/libnuttx.a(sched-sched_addreadytorun.o)
 .debug_abbrev  0x000000000000cd4e      0x18d /home/einar/px4_firmware/src/Firmware/build_px4fmu-v2_default/px4io-v2/NuttX/nuttx-export/libs/libnuttx.a(sched-sched_free.o)
 .debug_abbrev  0x000000000000cedb      0x191 /home/einar/px4_firmware/src/Firmware/build_px4fmu-v2_default/px4io-v2/NuttX/nuttx-export/libs/libnuttx.a(sched-sched_mergepending.o)
 .debug_abbrev  0x000000000000d06c      0x19c /home/einar/px4_firmware/src/Firmware/build_px4fmu-v2_default/px4io-v2/NuttX/nuttx-export/libs/libnuttx.a(sched-sched_removeblocked.o)
 .debug_abbrev  0x000000000000d208      0x19e /home/einar/px4_firmware/src/Firmware/build_px4fmu-v2_default/px4io-v2/NuttX/nuttx-export/libs/libnuttx.a(sched-sched_removereadytorun.o)
 .debug_abbrev  0x000000000000d3a6       0xa7 /home/einar/px4_firmware/src/Firmware/build_px4fmu-v2_default/px4io-v2/NuttX/nuttx-export/libs/libnuttx.a(sched-sem_destroy.o)
 .debug_abbrev  0x000000000000d44d      0x24b /home/einar/px4_firmware/src/Firmware/build_px4fmu-v2_default/px4io-v2/NuttX/nuttx-export/libs/libnuttx.a(sched-task_create.o)
 .debug_abbrev  0x000000000000d698      0x1b7 /home/einar/px4_firmware/src/Firmware/build_px4fmu-v2_default/px4io-v2/NuttX/nuttx-export/libs/libnuttx.a(sched-task_exit.o)
 .debug_abbrev  0x000000000000d84f      0x2d4 /home/einar/px4_firmware/src/Firmware/build_px4fmu-v2_default/px4io-v2/NuttX/nuttx-export/libs/libnuttx.a(sched-task_setup.o)
 .debug_abbrev  0x000000000000db23      0x169 /home/einar/px4_firmware/src/Firmware/build_px4fmu-v2_default/px4io-v2/NuttX/nuttx-export/libs/libnuttx.a(sched-task_start.o)
 .debug_abbrev  0x000000000000dc8c      0x279 /home/einar/px4_firmware/src/Firmware/build_px4fmu-v2_default/px4io-v2/NuttX/nuttx-export/libs/libnuttx.a(sched-task_terminate.o)
 .debug_abbrev  0x000000000000df05       0x87 /home/einar/px4_firmware/src/Firmware/build_px4fmu-v2_default/px4io-v2/NuttX/nuttx-export/libs/libnuttx.a(c-dq_addlast.o)
 .debug_abbrev  0x000000000000df8c       0xa5 /home/einar/px4_firmware/src/Firmware/build_px4fmu-v2_default/px4io-v2/NuttX/nuttx-export/libs/libnuttx.a(c-dq_rem.o)
 .debug_abbrev  0x000000000000e031       0xe6 /home/einar/px4_firmware/src/Firmware/build_px4fmu-v2_default/px4io-v2/NuttX/nuttx-export/libs/libnuttx.a(c-lib_strdup.o)
 .debug_abbrev  0x000000000000e117      0x125 /home/einar/px4_firmware/src/Firmware/build_px4fmu-v2_default/px4io-v2/NuttX/nuttx-export/libs/libnuttx.a(arch-stm32_timerisr.o)
 .debug_abbrev  0x000000000000e23c      0x19b /home/einar/px4_firmware/src/Firmware/build_px4fmu-v2_default/px4io-v2/NuttX/nuttx-export/libs/libnuttx.a(arch-up_createstack.o)
 .debug_abbrev  0x000000000000e3d7      0x142 /home/einar/px4_firmware/src/Firmware/build_px4fmu-v2_default/px4io-v2/NuttX/nuttx-export/libs/libnuttx.a(arch-up_releasestack.o)
 .debug_abbrev  0x000000000000e519       0xcd /home/einar/px4_firmware/src/Firmware/build_px4fmu-v2_default/px4io-v2/NuttX/nuttx-export/libs/libnuttx.a(fs-fs_close.o)
 .debug_abbrev  0x000000000000e5e6      0x142 /home/einar/px4_firmware/src/Firmware/build_px4fmu-v2_default/px4io-v2/NuttX/nuttx-export/libs/libnuttx.a(fs-fs_filedup2.o)
 .debug_abbrev  0x000000000000e728      0x219 /home/einar/px4_firmware/src/Firmware/build_px4fmu-v2_default/px4io-v2/NuttX/nuttx-export/libs/libnuttx.a(fs-fs_inodereserve.o)
 .debug_abbrev  0x000000000000e941      0x155 /home/einar/px4_firmware/src/Firmware/build_px4fmu-v2_default/px4io-v2/NuttX/nuttx-export/libs/libnuttx.a(sched-group_setuptaskfiles.o)
 .debug_abbrev  0x000000000000ea96      0x157 /home/einar/px4_firmware/src/Firmware/build_px4fmu-v2_default/px4io-v2/NuttX/nuttx-export/libs/libnuttx.a(sched-sched_gettcb.o)
 .debug_abbrev  0x000000000000ebed      0x188 /home/einar/px4_firmware/src/Firmware/build_px4fmu-v2_default/px4io-v2/NuttX/nuttx-export/libs/libnuttx.a(sched-sched_lock.o)
 .debug_abbrev  0x000000000000ed75       0x6f /home/einar/px4_firmware/src/Firmware/build_px4fmu-v2_default/px4io-v2/NuttX/nuttx-export/libs/libnuttx.a(sched-sched_processtimer.o)
 .debug_abbrev  0x000000000000ede4      0x22e /home/einar/px4_firmware/src/Firmware/build_px4fmu-v2_default/px4io-v2/NuttX/nuttx-export/libs/libnuttx.a(sched-sched_releasetcb.o)
 .debug_abbrev  0x000000000000f012      0x1f1 /home/einar/px4_firmware/src/Firmware/build_px4fmu-v2_default/px4io-v2/NuttX/nuttx-export/libs/libnuttx.a(sched-sched_unlock.o)
 .debug_abbrev  0x000000000000f203      0x1c7 /home/einar/px4_firmware/src/Firmware/build_px4fmu-v2_default/px4io-v2/NuttX/nuttx-export/libs/libnuttx.a(sched-task_activate.o)
 .debug_abbrev  0x000000000000f3ca      0x1ae /home/einar/px4_firmware/src/Firmware/build_px4fmu-v2_default/px4io-v2/NuttX/nuttx-export/libs/libnuttx.a(arch-up_releasepending.o)

.debug_info     0x0000000000000000    0x3d9c0
 *(.debug_info)
 .debug_info    0x0000000000000000      0x3e1 CMakeFiles/px4io-v2.dir/adc.c.obj
 .debug_info    0x00000000000003e1      0xb0a CMakeFiles/px4io-v2.dir/controls.c.obj
 .debug_info    0x0000000000000eeb      0xa37 CMakeFiles/px4io-v2.dir/dsm.c.obj
 .debug_info    0x0000000000001922      0xd4b CMakeFiles/px4io-v2.dir/px4io.c.obj
 .debug_info    0x000000000000266d      0xa3a CMakeFiles/px4io-v2.dir/registers.c.obj
 .debug_info    0x00000000000030a7      0x4ac CMakeFiles/px4io-v2.dir/safety.c.obj
 .debug_info    0x0000000000003553      0x894 CMakeFiles/px4io-v2.dir/sbus.c.obj
 .debug_info    0x0000000000003de7       0xee CMakeFiles/px4io-v2.dir/__/systemlib/up_cxxinitialize.c.obj
 .debug_info    0x0000000000003ed5      0xadc CMakeFiles/px4io-v2.dir/__/systemlib/perf_counter.c.obj
 .debug_info    0x00000000000049b1      0xd0f CMakeFiles/px4io-v2.dir/mixer.cpp.obj
 .debug_info    0x00000000000056c0      0xa32 CMakeFiles/px4io-v2.dir/__/systemlib/mixer/mixer.cpp.obj
 .debug_info    0x00000000000060f2      0xbec CMakeFiles/px4io-v2.dir/__/systemlib/mixer/mixer_group.cpp.obj
 .debug_info    0x0000000000006cde     0x18d9 CMakeFiles/px4io-v2.dir/__/systemlib/mixer/mixer_multirotor.cpp.obj
 .debug_info    0x00000000000085b7      0xff7 CMakeFiles/px4io-v2.dir/__/systemlib/mixer/mixer_simple.cpp.obj
 .debug_info    0x00000000000095ae      0x3f8 CMakeFiles/px4io-v2.dir/__/systemlib/pwm_limit/pwm_limit.c.obj
 .debug_info    0x00000000000099a6      0x40d CMakeFiles/px4io-v2.dir/__/__/lib/rc/st24.c.obj
 .debug_info    0x0000000000009db3      0x6ab CMakeFiles/px4io-v2.dir/__/__/lib/rc/sumd.c.obj
 .debug_info    0x000000000000a45e      0xeb0 CMakeFiles/px4io-v2.dir/__/__/drivers/stm32/drv_hrt.c.obj
 .debug_info    0x000000000000b30e      0x522 CMakeFiles/px4io-v2.dir/__/__/drivers/stm32/drv_pwm_servo.c.obj
 .debug_info    0x000000000000b830      0x3b2 CMakeFiles/px4io-v2.dir/__/__/drivers/boards/px4io-v2/px4io_init.c.obj
 .debug_info    0x000000000000bbe2      0x1b8 CMakeFiles/px4io-v2.dir/__/__/drivers/boards/px4io-v2/px4io_pwm_servo.c.obj
 .debug_info    0x000000000000bd9a      0xa1e CMakeFiles/px4io-v2.dir/serial.c.obj
 .debug_info    0x000000000000c7b8      0x714 CMakeFiles/px4io-v2.dir/__/systemlib/hx_stream.c.obj
 .debug_info    0x000000000000cecc      0x1ca /home/einar/px4_firmware/src/Firmware/build_px4fmu-v2_default/px4io-v2/NuttX/nuttx-export/libs/libnuttx.a(sched-irq_attach.o)
 .debug_info    0x000000000000d096       0xf3 /home/einar/px4_firmware/src/Firmware/build_px4fmu-v2_default/px4io-v2/NuttX/nuttx-export/libs/libnuttx.a(sched-irq_initialize.o)
 .debug_info    0x000000000000d189      0x15d /home/einar/px4_firmware/src/Firmware/build_px4fmu-v2_default/px4io-v2/NuttX/nuttx-export/libs/libnuttx.a(sched-irq_unexpectedisr.o)
 .debug_info    0x000000000000d2e6       0xac /home/einar/px4_firmware/src/Firmware/build_px4fmu-v2_default/px4io-v2/NuttX/nuttx-export/libs/libnuttx.a(c-lib_abort.o)
 .debug_info    0x000000000000d392      0x169 /home/einar/px4_firmware/src/Firmware/build_px4fmu-v2_default/px4io-v2/NuttX/nuttx-export/libs/libnuttx.a(c-lib_cfsetspeed.o)
 .debug_info    0x000000000000d4fb      0x18b /home/einar/px4_firmware/src/Firmware/build_px4fmu-v2_default/px4io-v2/NuttX/nuttx-export/libs/libnuttx.a(c-lib_crc32.o)
 .debug_info    0x000000000000d686      0x14c /home/einar/px4_firmware/src/Firmware/build_px4fmu-v2_default/px4io-v2/NuttX/nuttx-export/libs/libnuttx.a(c-lib_dprintf.o)
 .debug_info    0x000000000000d7d2      0x209 /home/einar/px4_firmware/src/Firmware/build_px4fmu-v2_default/px4io-v2/NuttX/nuttx-export/libs/libnuttx.a(c-lib_lowsyslog.o)
 .debug_info    0x000000000000d9db       0xf4 /home/einar/px4_firmware/src/Firmware/build_px4fmu-v2_default/px4io-v2/NuttX/nuttx-export/libs/libnuttx.a(c-lib_memchr.o)
 .debug_info    0x000000000000dacf      0x104 /home/einar/px4_firmware/src/Firmware/build_px4fmu-v2_default/px4io-v2/NuttX/nuttx-export/libs/libnuttx.a(c-lib_memcpy.o)
 .debug_info    0x000000000000dbd3       0xe6 /home/einar/px4_firmware/src/Firmware/build_px4fmu-v2_default/px4io-v2/NuttX/nuttx-export/libs/libnuttx.a(c-lib_memset.o)
 .debug_info    0x000000000000dcb9      0x13a /home/einar/px4_firmware/src/Firmware/build_px4fmu-v2_default/px4io-v2/NuttX/nuttx-export/libs/libnuttx.a(c-lib_printf.o)
 .debug_info    0x000000000000ddf3      0x5a1 /home/einar/px4_firmware/src/Firmware/build_px4fmu-v2_default/px4io-v2/NuttX/nuttx-export/libs/libnuttx.a(c-lib_sscanf.o)
 .debug_info    0x000000000000e394       0xb6 /home/einar/px4_firmware/src/Firmware/build_px4fmu-v2_default/px4io-v2/NuttX/nuttx-export/libs/libnuttx.a(c-lib_strchr.o)
 .debug_info    0x000000000000e44a       0xc3 /home/einar/px4_firmware/src/Firmware/build_px4fmu-v2_default/px4io-v2/NuttX/nuttx-export/libs/libnuttx.a(c-lib_strcmp.o)
 .debug_info    0x000000000000e50d      0x10e /home/einar/px4_firmware/src/Firmware/build_px4fmu-v2_default/px4io-v2/NuttX/nuttx-export/libs/libnuttx.a(c-lib_strcspn.o)
 .debug_info    0x000000000000e61b      0x104 /home/einar/px4_firmware/src/Firmware/build_px4fmu-v2_default/px4io-v2/NuttX/nuttx-export/libs/libnuttx.a(c-lib_strncpy.o)
 .debug_info    0x000000000000e71f      0x181 /home/einar/px4_firmware/src/Firmware/build_px4fmu-v2_default/px4io-v2/NuttX/nuttx-export/libs/libnuttx.a(c-lib_strtol.o)
 .debug_info    0x000000000000e8a0      0x1be /home/einar/px4_firmware/src/Firmware/build_px4fmu-v2_default/px4io-v2/NuttX/nuttx-export/libs/libnuttx.a(c-lib_strtoul.o)
 .debug_info    0x000000000000ea5e      0x23d /home/einar/px4_firmware/src/Firmware/build_px4fmu-v2_default/px4io-v2/NuttX/nuttx-export/libs/libnuttx.a(c-lib_syslog.o)
 .debug_info    0x000000000000ec9b      0x1af /home/einar/px4_firmware/src/Firmware/build_px4fmu-v2_default/px4io-v2/NuttX/nuttx-export/libs/libnuttx.a(c-lib_tcgetattr.o)
 .debug_info    0x000000000000ee4a      0x1c3 /home/einar/px4_firmware/src/Firmware/build_px4fmu-v2_default/px4io-v2/NuttX/nuttx-export/libs/libnuttx.a(c-lib_tcsetattr.o)
 .debug_info    0x000000000000f00d      0x1f3 /home/einar/px4_firmware/src/Firmware/build_px4fmu-v2_default/px4io-v2/NuttX/nuttx-export/libs/libnuttx.a(c-lib_vdprintf.o)
 .debug_info    0x000000000000f200      0x24c /home/einar/px4_firmware/src/Firmware/build_px4fmu-v2_default/px4io-v2/NuttX/nuttx-export/libs/libnuttx.a(c-lib_vsnprintf.o)
 .debug_info    0x000000000000f44c      0x13f /home/einar/px4_firmware/src/Firmware/build_px4fmu-v2_default/px4io-v2/NuttX/nuttx-export/libs/libnuttx.a(c-sq_addafter.o)
 .debug_info    0x000000000000f58b      0x109 /home/einar/px4_firmware/src/Firmware/build_px4fmu-v2_default/px4io-v2/NuttX/nuttx-export/libs/libnuttx.a(c-sq_addfirst.o)
 .debug_info    0x000000000000f694      0x109 /home/einar/px4_firmware/src/Firmware/build_px4fmu-v2_default/px4io-v2/NuttX/nuttx-export/libs/libnuttx.a(c-sq_addlast.o)
 .debug_info    0x000000000000f79d      0x145 /home/einar/px4_firmware/src/Firmware/build_px4fmu-v2_default/px4io-v2/NuttX/nuttx-export/libs/libnuttx.a(c-sq_rem.o)
 .debug_info    0x000000000000f8e2      0x108 /home/einar/px4_firmware/src/Firmware/build_px4fmu-v2_default/px4io-v2/NuttX/nuttx-export/libs/libnuttx.a(mm-mm_calloc.o)
 .debug_info    0x000000000000f9ea      0x321 /home/einar/px4_firmware/src/Firmware/build_px4fmu-v2_default/px4io-v2/NuttX/nuttx-export/libs/libnuttx.a(mm-mm_free.o)
 .debug_info    0x000000000000fd0b      0x36f /home/einar/px4_firmware/src/Firmware/build_px4fmu-v2_default/px4io-v2/NuttX/nuttx-export/libs/libnuttx.a(mm-mm_mallinfo.o)
 .debug_info    0x000000000001007a      0x38f /home/einar/px4_firmware/src/Firmware/build_px4fmu-v2_default/px4io-v2/NuttX/nuttx-export/libs/libnuttx.a(mm-mm_malloc.o)
 .debug_info    0x0000000000010409      0x403 /home/einar/px4_firmware/src/Firmware/build_px4fmu-v2_default/px4io-v2/NuttX/nuttx-export/libs/libnuttx.a(mm-mm_sem.o)
 .debug_info    0x000000000001080c       0xd0 /home/einar/px4_firmware/src/Firmware/build_px4fmu-v2_default/px4io-v2/NuttX/nuttx-export/libs/libnuttx.a(mm-mm_size2ndx.o)
 .debug_info    0x00000000000108dc      0x365 /home/einar/px4_firmware/src/Firmware/build_px4fmu-v2_default/px4io-v2/NuttX/nuttx-export/libs/libnuttx.a(mm-mm_user.o)
 .debug_info    0x0000000000010c41      0x132 /home/einar/px4_firmware/src/Firmware/build_px4fmu-v2_default/px4io-v2/NuttX/nuttx-export/libs/libnuttx.a(mm-mm_zalloc.o)
 .debug_info    0x0000000000010d73      0x9d8 /home/einar/px4_firmware/src/Firmware/build_px4fmu-v2_default/px4io-v2/NuttX/nuttx-export/libs/libnuttx.a(arch-stm32_dma.o)
 .debug_info    0x000000000001174b      0x3c0 /home/einar/px4_firmware/src/Firmware/build_px4fmu-v2_default/px4io-v2/NuttX/nuttx-export/libs/libnuttx.a(arch-stm32_gpio.o)
 .debug_info    0x0000000000011b0b      0x3d5 /home/einar/px4_firmware/src/Firmware/build_px4fmu-v2_default/px4io-v2/NuttX/nuttx-export/libs/libnuttx.a(arch-stm32_irq.o)
 .debug_info    0x0000000000011ee0     0x212b /home/einar/px4_firmware/src/Firmware/build_px4fmu-v2_default/px4io-v2/NuttX/nuttx-export/libs/libnuttx.a(arch-stm32_serial.o)
 .debug_info    0x000000000001400b      0x171 /home/einar/px4_firmware/src/Firmware/build_px4fmu-v2_default/px4io-v2/NuttX/nuttx-export/libs/libnuttx.a(arch-stm32_start.o)
 .debug_info    0x000000000001417c      0xe7c /home/einar/px4_firmware/src/Firmware/build_px4fmu-v2_default/px4io-v2/NuttX/nuttx-export/libs/libnuttx.a(arch-up_assert.o)
 .debug_info    0x0000000000014ff8       0x9f /home/einar/px4_firmware/src/Firmware/build_px4fmu-v2_default/px4io-v2/NuttX/nuttx-export/libs/libnuttx.a(arch-up_exception.o)
 .debug_info    0x0000000000015097      0x22b /home/einar/px4_firmware/src/Firmware/build_px4fmu-v2_default/px4io-v2/NuttX/nuttx-export/libs/libnuttx.a(arch-up_hardfault.o)
 .debug_info    0x00000000000152c2      0x173 /home/einar/px4_firmware/src/Firmware/build_px4fmu-v2_default/px4io-v2/NuttX/nuttx-export/libs/libnuttx.a(arch-up_modifyreg32.o)
 .debug_info    0x0000000000015435      0x162 /home/einar/px4_firmware/src/Firmware/build_px4fmu-v2_default/px4io-v2/NuttX/nuttx-export/libs/libnuttx.a(arch-up_svcall.o)
 .debug_info    0x0000000000015597       0x95 /home/einar/px4_firmware/src/Firmware/build_px4fmu-v2_default/px4io-v2/NuttX/nuttx-export/libs/libnuttx.a(arch-up_systemreset.o)
 .debug_info    0x000000000001562c       0xe0 /home/einar/px4_firmware/src/Firmware/build_px4fmu-v2_default/px4io-v2/NuttX/nuttx-export/libs/libnuttx.a(arch-up_udelay.o)
 .debug_info    0x000000000001570c       0x5f /home/einar/px4_firmware/src/Firmware/build_px4fmu-v2_default/px4io-v2/NuttX/nuttx-export/libs/libnuttx.a(arch-up_vectors.o)
 .debug_info    0x000000000001576b      0x349 /home/einar/px4_firmware/src/Firmware/build_px4fmu-v2_default/px4io-v2/NuttX/nuttx-export/libs/libnuttx.a(cxx-libxx_cxa_atexit.o)
 .debug_info    0x0000000000015ab4       0xc4 /home/einar/px4_firmware/src/Firmware/build_px4fmu-v2_default/px4io-v2/NuttX/nuttx-export/libs/libnuttx.a(cxx-libxx_cxapurevirtual.o)
 .debug_info    0x0000000000015b78      0x320 /home/einar/px4_firmware/src/Firmware/build_px4fmu-v2_default/px4io-v2/NuttX/nuttx-export/libs/libnuttx.a(cxx-libxx_delete.o)
 .debug_info    0x0000000000015e98      0x376 /home/einar/px4_firmware/src/Firmware/build_px4fmu-v2_default/px4io-v2/NuttX/nuttx-export/libs/libnuttx.a(cxx-libxx_eabi_atexit.o)
 .debug_info    0x000000000001620e      0x4a6 /home/einar/px4_firmware/src/Firmware/build_px4fmu-v2_default/px4io-v2/NuttX/nuttx-export/libs/libnuttx.a(cxx-libxx_new.o)
 .debug_info    0x00000000000166b4      0x83c /home/einar/px4_firmware/src/Firmware/build_px4fmu-v2_default/px4io-v2/NuttX/nuttx-export/libs/libnuttx.a(fs-fs_ioctl.o)
 .debug_info    0x0000000000016ef0      0x962 /home/einar/px4_firmware/src/Firmware/build_px4fmu-v2_default/px4io-v2/NuttX/nuttx-export/libs/libnuttx.a(fs-fs_open.o)
 .debug_info    0x0000000000017852      0x8ab /home/einar/px4_firmware/src/Firmware/build_px4fmu-v2_default/px4io-v2/NuttX/nuttx-export/libs/libnuttx.a(fs-fs_read.o)
 .debug_info    0x00000000000180fd      0x8c7 /home/einar/px4_firmware/src/Firmware/build_px4fmu-v2_default/px4io-v2/NuttX/nuttx-export/libs/libnuttx.a(fs-fs_write.o)
 .debug_info    0x00000000000189c4      0xaae /home/einar/px4_firmware/src/Firmware/build_px4fmu-v2_default/px4io-v2/NuttX/nuttx-export/libs/libnuttx.a(drivers-serialirq.o)
 .debug_info    0x0000000000019472     0x16a1 /home/einar/px4_firmware/src/Firmware/build_px4fmu-v2_default/px4io-v2/NuttX/nuttx-export/libs/libnuttx.a(drivers-serial.o)
 .debug_info    0x000000000001ab13      0xa89 /home/einar/px4_firmware/src/Firmware/build_px4fmu-v2_default/px4io-v2/NuttX/nuttx-export/libs/libnuttx.a(sched-errno_getptr.o)
 .debug_info    0x000000000001b59c      0xa73 /home/einar/px4_firmware/src/Firmware/build_px4fmu-v2_default/px4io-v2/NuttX/nuttx-export/libs/libnuttx.a(sched-exit.o)
 .debug_info    0x000000000001c00f      0xa03 /home/einar/px4_firmware/src/Firmware/build_px4fmu-v2_default/px4io-v2/NuttX/nuttx-export/libs/libnuttx.a(sched-getpid.o)
 .debug_info    0x000000000001ca12      0xf1d /home/einar/px4_firmware/src/Firmware/build_px4fmu-v2_default/px4io-v2/NuttX/nuttx-export/libs/libnuttx.a(sched-os_start.o)
 .debug_info    0x000000000001d92f      0x21b /home/einar/px4_firmware/src/Firmware/build_px4fmu-v2_default/px4io-v2/NuttX/nuttx-export/libs/libnuttx.a(sched-sched_garbage.o)
 .debug_info    0x000000000001db4a      0xa2b /home/einar/px4_firmware/src/Firmware/build_px4fmu-v2_default/px4io-v2/NuttX/nuttx-export/libs/libnuttx.a(sched-sched_getfiles.o)
 .debug_info    0x000000000001e575      0xb1b /home/einar/px4_firmware/src/Firmware/build_px4fmu-v2_default/px4io-v2/NuttX/nuttx-export/libs/libnuttx.a(sched-sem_post.o)
 .debug_info    0x000000000001f090      0xaea /home/einar/px4_firmware/src/Firmware/build_px4fmu-v2_default/px4io-v2/NuttX/nuttx-export/libs/libnuttx.a(sched-sem_trywait.o)
 .debug_info    0x000000000001fb7a      0xba8 /home/einar/px4_firmware/src/Firmware/build_px4fmu-v2_default/px4io-v2/NuttX/nuttx-export/libs/libnuttx.a(sched-sem_wait.o)
 .debug_info    0x0000000000020722      0x9fb /home/einar/px4_firmware/src/Firmware/build_px4fmu-v2_default/px4io-v2/NuttX/nuttx-export/libs/libnuttx.a(sched-task_exithook.o)
 .debug_info    0x000000000002111d      0xa67 /home/einar/px4_firmware/src/Firmware/build_px4fmu-v2_default/px4io-v2/NuttX/nuttx-export/libs/libnuttx.a(sched-task_recover.o)
 .debug_info    0x0000000000021b84      0x33b /home/einar/px4_firmware/src/Firmware/build_px4fmu-v2_default/px4io-v2/NuttX/nuttx-export/libs/libnuttx.a(sched-wd_cancel.o)
 .debug_info    0x0000000000021ebf      0x2ec /home/einar/px4_firmware/src/Firmware/build_px4fmu-v2_default/px4io-v2/NuttX/nuttx-export/libs/libnuttx.a(sched-wd_delete.o)
 .debug_info    0x00000000000221ab      0x2c6 /home/einar/px4_firmware/src/Firmware/build_px4fmu-v2_default/px4io-v2/NuttX/nuttx-export/libs/libnuttx.a(sched-wd_initialize.o)
 .debug_info    0x0000000000022471      0x115 /home/einar/px4_firmware/src/Firmware/build_px4fmu-v2_default/px4io-v2/NuttX/nuttx-export/libs/libnuttx.a(c-dq_addfirst.o)
 .debug_info    0x0000000000022586      0x161 /home/einar/px4_firmware/src/Firmware/build_px4fmu-v2_default/px4io-v2/NuttX/nuttx-export/libs/libnuttx.a(c-lib_cfgetspeed.o)
 .debug_info    0x00000000000226e7      0x13c /home/einar/px4_firmware/src/Firmware/build_px4fmu-v2_default/px4io-v2/NuttX/nuttx-export/libs/libnuttx.a(c-lib_checkbase.o)
 .debug_info    0x0000000000022823      0x111 /home/einar/px4_firmware/src/Firmware/build_px4fmu-v2_default/px4io-v2/NuttX/nuttx-export/libs/libnuttx.a(c-lib_isbasedigit.o)
 .debug_info    0x0000000000022934      0xefa /home/einar/px4_firmware/src/Firmware/build_px4fmu-v2_default/px4io-v2/NuttX/nuttx-export/libs/libnuttx.a(c-lib_libvsprintf.o)
 .debug_info    0x000000000002382e      0x14d /home/einar/px4_firmware/src/Firmware/build_px4fmu-v2_default/px4io-v2/NuttX/nuttx-export/libs/libnuttx.a(c-lib_lowoutstream.o)
 .debug_info    0x000000000002397b      0x18a /home/einar/px4_firmware/src/Firmware/build_px4fmu-v2_default/px4io-v2/NuttX/nuttx-export/libs/libnuttx.a(c-lib_memoutstream.o)
 .debug_info    0x0000000000023b05      0x123 /home/einar/px4_firmware/src/Firmware/build_px4fmu-v2_default/px4io-v2/NuttX/nuttx-export/libs/libnuttx.a(c-lib_nulloutstream.o)
 .debug_info    0x0000000000023c28      0x228 /home/einar/px4_firmware/src/Firmware/build_px4fmu-v2_default/px4io-v2/NuttX/nuttx-export/libs/libnuttx.a(c-lib_rawoutstream.o)
 .debug_info    0x0000000000023e50       0xcb /home/einar/px4_firmware/src/Firmware/build_px4fmu-v2_default/px4io-v2/NuttX/nuttx-export/libs/libnuttx.a(c-lib_skipspace.o)
 .debug_info    0x0000000000023f1b       0xc9 /home/einar/px4_firmware/src/Firmware/build_px4fmu-v2_default/px4io-v2/NuttX/nuttx-export/libs/libnuttx.a(c-lib_strcpy.o)
 .debug_info    0x0000000000023fe4       0xd4 /home/einar/px4_firmware/src/Firmware/build_px4fmu-v2_default/px4io-v2/NuttX/nuttx-export/libs/libnuttx.a(c-lib_strlen.o)
 .debug_info    0x00000000000240b8      0x115 /home/einar/px4_firmware/src/Firmware/build_px4fmu-v2_default/px4io-v2/NuttX/nuttx-export/libs/libnuttx.a(c-sem_init.o)
 .debug_info    0x00000000000241cd      0x11e /home/einar/px4_firmware/src/Firmware/build_px4fmu-v2_default/px4io-v2/NuttX/nuttx-export/libs/libnuttx.a(c-sq_remafter.o)
 .debug_info    0x00000000000242eb      0x10f /home/einar/px4_firmware/src/Firmware/build_px4fmu-v2_default/px4io-v2/NuttX/nuttx-export/libs/libnuttx.a(c-sq_remfirst.o)
 .debug_info    0x00000000000243fa      0x273 /home/einar/px4_firmware/src/Firmware/build_px4fmu-v2_default/px4io-v2/NuttX/nuttx-export/libs/libnuttx.a(mm-mm_addfreechunk.o)
 .debug_info    0x000000000002466d      0x381 /home/einar/px4_firmware/src/Firmware/build_px4fmu-v2_default/px4io-v2/NuttX/nuttx-export/libs/libnuttx.a(mm-mm_initialize.o)
 .debug_info    0x00000000000249ee       0xfa /home/einar/px4_firmware/src/Firmware/build_px4fmu-v2_default/px4io-v2/NuttX/nuttx-export/libs/libnuttx.a(arch-stm32_allocateheap.o)
 .debug_info    0x0000000000024ae8       0x99 /home/einar/px4_firmware/src/Firmware/build_px4fmu-v2_default/px4io-v2/NuttX/nuttx-export/libs/libnuttx.a(arch-stm32_idle.o)
 .debug_info    0x0000000000024b81      0x128 /home/einar/px4_firmware/src/Firmware/build_px4fmu-v2_default/px4io-v2/NuttX/nuttx-export/libs/libnuttx.a(arch-stm32_lowputc.o)
 .debug_info    0x0000000000024ca9      0x23e /home/einar/px4_firmware/src/Firmware/build_px4fmu-v2_default/px4io-v2/NuttX/nuttx-export/libs/libnuttx.a(arch-stm32_rcc.o)
 .debug_info    0x0000000000024ee7      0xba4 /home/einar/px4_firmware/src/Firmware/build_px4fmu-v2_default/px4io-v2/NuttX/nuttx-export/libs/libnuttx.a(arch-up_blocktask.o)
 .debug_info    0x0000000000025a8b       0xe5 /home/einar/px4_firmware/src/Firmware/build_px4fmu-v2_default/px4io-v2/NuttX/nuttx-export/libs/libnuttx.a(arch-up_copystate.o)
 .debug_info    0x0000000000025b70      0x179 /home/einar/px4_firmware/src/Firmware/build_px4fmu-v2_default/px4io-v2/NuttX/nuttx-export/libs/libnuttx.a(arch-up_doirq.o)
 .debug_info    0x0000000000025ce9      0xaa1 /home/einar/px4_firmware/src/Firmware/build_px4fmu-v2_default/px4io-v2/NuttX/nuttx-export/libs/libnuttx.a(arch-up_exit.o)
 .debug_info    0x000000000002678a       0xa8 /home/einar/px4_firmware/src/Firmware/build_px4fmu-v2_default/px4io-v2/NuttX/nuttx-export/libs/libnuttx.a(arch-up_fullcontextrestore.o)
 .debug_info    0x0000000000026832      0x11f /home/einar/px4_firmware/src/Firmware/build_px4fmu-v2_default/px4io-v2/NuttX/nuttx-export/libs/libnuttx.a(arch-up_initialize.o)
 .debug_info    0x0000000000026951      0xa13 /home/einar/px4_firmware/src/Firmware/build_px4fmu-v2_default/px4io-v2/NuttX/nuttx-export/libs/libnuttx.a(arch-up_initialstate.o)
 .debug_info    0x0000000000027364       0xeb /home/einar/px4_firmware/src/Firmware/build_px4fmu-v2_default/px4io-v2/NuttX/nuttx-export/libs/libnuttx.a(arch-up_interruptcontext.o)
 .debug_info    0x000000000002744f       0xc9 /home/einar/px4_firmware/src/Firmware/build_px4fmu-v2_default/px4io-v2/NuttX/nuttx-export/libs/libnuttx.a(arch-up_mdelay.o)
 .debug_info    0x0000000000027518       0xa3 /home/einar/px4_firmware/src/Firmware/build_px4fmu-v2_default/px4io-v2/NuttX/nuttx-export/libs/libnuttx.a(arch-up_switchcontext.o)
 .debug_info    0x00000000000275bb      0xb51 /home/einar/px4_firmware/src/Firmware/build_px4fmu-v2_default/px4io-v2/NuttX/nuttx-export/libs/libnuttx.a(arch-up_unblocktask.o)
 .debug_info    0x000000000002810c      0xc74 /home/einar/px4_firmware/src/Firmware/build_px4fmu-v2_default/px4io-v2/NuttX/nuttx-export/libs/libnuttx.a(fs-fs_files.o)
 .debug_info    0x0000000000028d80      0x733 /home/einar/px4_firmware/src/Firmware/build_px4fmu-v2_default/px4io-v2/NuttX/nuttx-export/libs/libnuttx.a(fs-fs_inodeaddref.o)
 .debug_info    0x00000000000294b3      0x7a3 /home/einar/px4_firmware/src/Firmware/build_px4fmu-v2_default/px4io-v2/NuttX/nuttx-export/libs/libnuttx.a(fs-fs_inodefind.o)
 .debug_info    0x0000000000029c56      0xa1d /home/einar/px4_firmware/src/Firmware/build_px4fmu-v2_default/px4io-v2/NuttX/nuttx-export/libs/libnuttx.a(fs-fs_inode.o)
 .debug_info    0x000000000002a673      0x77f /home/einar/px4_firmware/src/Firmware/build_px4fmu-v2_default/px4io-v2/NuttX/nuttx-export/libs/libnuttx.a(fs-fs_inoderelease.o)
 .debug_info    0x000000000002adf2      0x7b6 /home/einar/px4_firmware/src/Firmware/build_px4fmu-v2_default/px4io-v2/NuttX/nuttx-export/libs/libnuttx.a(fs-fs_registerdriver.o)
 .debug_info    0x000000000002b5a8      0x7e5 /home/einar/px4_firmware/src/Firmware/build_px4fmu-v2_default/px4io-v2/NuttX/nuttx-export/libs/libnuttx.a(drivers-dev_null.o)
 .debug_info    0x000000000002bd8d      0xa5e /home/einar/px4_firmware/src/Firmware/build_px4fmu-v2_default/px4io-v2/NuttX/nuttx-export/libs/libnuttx.a(sched-group_create.o)
 .debug_info    0x000000000002c7eb      0xa22 /home/einar/px4_firmware/src/Firmware/build_px4fmu-v2_default/px4io-v2/NuttX/nuttx-export/libs/libnuttx.a(sched-group_leave.o)
 .debug_info    0x000000000002d20d      0xac1 /home/einar/px4_firmware/src/Firmware/build_px4fmu-v2_default/px4io-v2/NuttX/nuttx-export/libs/libnuttx.a(sched-group_setupidlefiles.o)
 .debug_info    0x000000000002dcce      0x10e /home/einar/px4_firmware/src/Firmware/build_px4fmu-v2_default/px4io-v2/NuttX/nuttx-export/libs/libnuttx.a(sched-irq_dispatch.o)
 .debug_info    0x000000000002dddc      0x19c /home/einar/px4_firmware/src/Firmware/build_px4fmu-v2_default/px4io-v2/NuttX/nuttx-export/libs/libnuttx.a(sched-os_bringup.o)
 .debug_info    0x000000000002df78      0xb31 /home/einar/px4_firmware/src/Firmware/build_px4fmu-v2_default/px4io-v2/NuttX/nuttx-export/libs/libnuttx.a(sched-sched_addblocked.o)
 .debug_info    0x000000000002eaa9      0xa90 /home/einar/px4_firmware/src/Firmware/build_px4fmu-v2_default/px4io-v2/NuttX/nuttx-export/libs/libnuttx.a(sched-sched_addprioritized.o)
 .debug_info    0x000000000002f539      0xaf9 /home/einar/px4_firmware/src/Firmware/build_px4fmu-v2_default/px4io-v2/NuttX/nuttx-export/libs/libnuttx.a(sched-sched_addreadytorun.o)
 .debug_info    0x0000000000030032      0x261 /home/einar/px4_firmware/src/Firmware/build_px4fmu-v2_default/px4io-v2/NuttX/nuttx-export/libs/libnuttx.a(sched-sched_free.o)
 .debug_info    0x0000000000030293      0xacf /home/einar/px4_firmware/src/Firmware/build_px4fmu-v2_default/px4io-v2/NuttX/nuttx-export/libs/libnuttx.a(sched-sched_mergepending.o)
 .debug_info    0x0000000000030d62      0xb12 /home/einar/px4_firmware/src/Firmware/build_px4fmu-v2_default/px4io-v2/NuttX/nuttx-export/libs/libnuttx.a(sched-sched_removeblocked.o)
 .debug_info    0x0000000000031874      0xac7 /home/einar/px4_firmware/src/Firmware/build_px4fmu-v2_default/px4io-v2/NuttX/nuttx-export/libs/libnuttx.a(sched-sched_removereadytorun.o)
 .debug_info    0x000000000003233b      0x10c /home/einar/px4_firmware/src/Firmware/build_px4fmu-v2_default/px4io-v2/NuttX/nuttx-export/libs/libnuttx.a(sched-sem_destroy.o)
 .debug_info    0x0000000000032447      0xe5e /home/einar/px4_firmware/src/Firmware/build_px4fmu-v2_default/px4io-v2/NuttX/nuttx-export/libs/libnuttx.a(sched-task_create.o)
 .debug_info    0x00000000000332a5      0xb0c /home/einar/px4_firmware/src/Firmware/build_px4fmu-v2_default/px4io-v2/NuttX/nuttx-export/libs/libnuttx.a(sched-task_exit.o)
 .debug_info    0x0000000000033db1      0xe9c /home/einar/px4_firmware/src/Firmware/build_px4fmu-v2_default/px4io-v2/NuttX/nuttx-export/libs/libnuttx.a(sched-task_setup.o)
 .debug_info    0x0000000000034c4d      0xa92 /home/einar/px4_firmware/src/Firmware/build_px4fmu-v2_default/px4io-v2/NuttX/nuttx-export/libs/libnuttx.a(sched-task_start.o)
 .debug_info    0x00000000000356df      0xc81 /home/einar/px4_firmware/src/Firmware/build_px4fmu-v2_default/px4io-v2/NuttX/nuttx-export/libs/libnuttx.a(sched-task_terminate.o)
 .debug_info    0x0000000000036360      0x115 /home/einar/px4_firmware/src/Firmware/build_px4fmu-v2_default/px4io-v2/NuttX/nuttx-export/libs/libnuttx.a(c-dq_addlast.o)
 .debug_info    0x0000000000036475      0x131 /home/einar/px4_firmware/src/Firmware/build_px4fmu-v2_default/px4io-v2/NuttX/nuttx-export/libs/libnuttx.a(c-dq_rem.o)
 .debug_info    0x00000000000365a6      0x165 /home/einar/px4_firmware/src/Firmware/build_px4fmu-v2_default/px4io-v2/NuttX/nuttx-export/libs/libnuttx.a(c-lib_strdup.o)
 .debug_info    0x000000000003670b      0x18e /home/einar/px4_firmware/src/Firmware/build_px4fmu-v2_default/px4io-v2/NuttX/nuttx-export/libs/libnuttx.a(arch-stm32_timerisr.o)
 .debug_info    0x0000000000036899      0xa31 /home/einar/px4_firmware/src/Firmware/build_px4fmu-v2_default/px4io-v2/NuttX/nuttx-export/libs/libnuttx.a(arch-up_createstack.o)
 .debug_info    0x00000000000372ca      0x9bd /home/einar/px4_firmware/src/Firmware/build_px4fmu-v2_default/px4io-v2/NuttX/nuttx-export/libs/libnuttx.a(arch-up_releasestack.o)
 .debug_info    0x0000000000037c87      0x11f /home/einar/px4_firmware/src/Firmware/build_px4fmu-v2_default/px4io-v2/NuttX/nuttx-export/libs/libnuttx.a(fs-fs_close.o)
 .debug_info    0x0000000000037da6      0x7f4 /home/einar/px4_firmware/src/Firmware/build_px4fmu-v2_default/px4io-v2/NuttX/nuttx-export/libs/libnuttx.a(fs-fs_filedup2.o)
 .debug_info    0x000000000003859a      0x9d8 /home/einar/px4_firmware/src/Firmware/build_px4fmu-v2_default/px4io-v2/NuttX/nuttx-export/libs/libnuttx.a(fs-fs_inodereserve.o)
 .debug_info    0x0000000000038f72      0xa16 /home/einar/px4_firmware/src/Firmware/build_px4fmu-v2_default/px4io-v2/NuttX/nuttx-export/libs/libnuttx.a(sched-group_setuptaskfiles.o)
 .debug_info    0x0000000000039988      0xa04 /home/einar/px4_firmware/src/Firmware/build_px4fmu-v2_default/px4io-v2/NuttX/nuttx-export/libs/libnuttx.a(sched-sched_gettcb.o)
 .debug_info    0x000000000003a38c      0xa66 /home/einar/px4_firmware/src/Firmware/build_px4fmu-v2_default/px4io-v2/NuttX/nuttx-export/libs/libnuttx.a(sched-sched_lock.o)
 .debug_info    0x000000000003adf2       0xc7 /home/einar/px4_firmware/src/Firmware/build_px4fmu-v2_default/px4io-v2/NuttX/nuttx-export/libs/libnuttx.a(sched-sched_processtimer.o)
 .debug_info    0x000000000003aeb9      0xb3b /home/einar/px4_firmware/src/Firmware/build_px4fmu-v2_default/px4io-v2/NuttX/nuttx-export/libs/libnuttx.a(sched-sched_releasetcb.o)
 .debug_info    0x000000000003b9f4      0xae7 /home/einar/px4_firmware/src/Firmware/build_px4fmu-v2_default/px4io-v2/NuttX/nuttx-export/libs/libnuttx.a(sched-sched_unlock.o)
 .debug_info    0x000000000003c4db      0xa47 /home/einar/px4_firmware/src/Firmware/build_px4fmu-v2_default/px4io-v2/NuttX/nuttx-export/libs/libnuttx.a(sched-task_activate.o)
 .debug_info    0x000000000003cf22      0xa9e /home/einar/px4_firmware/src/Firmware/build_px4fmu-v2_default/px4io-v2/NuttX/nuttx-export/libs/libnuttx.a(arch-up_releasepending.o)

.debug_line     0x0000000000000000    0x1acc3
 *(.debug_line)
 .debug_line    0x0000000000000000      0x370 CMakeFiles/px4io-v2.dir/adc.c.obj
 .debug_line    0x0000000000000370      0x58c CMakeFiles/px4io-v2.dir/controls.c.obj
 .debug_line    0x00000000000008fc      0x4a5 CMakeFiles/px4io-v2.dir/dsm.c.obj
 .debug_line    0x0000000000000da1      0x5b1 CMakeFiles/px4io-v2.dir/px4io.c.obj
 .debug_line    0x0000000000001352      0x5d6 CMakeFiles/px4io-v2.dir/registers.c.obj
 .debug_line    0x0000000000001928      0x2b5 CMakeFiles/px4io-v2.dir/safety.c.obj
 .debug_line    0x0000000000001bdd      0x39c CMakeFiles/px4io-v2.dir/sbus.c.obj
 .debug_line    0x0000000000001f79      0x177 CMakeFiles/px4io-v2.dir/__/systemlib/up_cxxinitialize.c.obj
 .debug_line    0x00000000000020f0      0x4ed CMakeFiles/px4io-v2.dir/__/systemlib/perf_counter.c.obj
 .debug_line    0x00000000000025dd      0x90f CMakeFiles/px4io-v2.dir/mixer.cpp.obj
 .debug_line    0x0000000000002eec      0x65f CMakeFiles/px4io-v2.dir/__/systemlib/mixer/mixer.cpp.obj
 .debug_line    0x000000000000354b      0x625 CMakeFiles/px4io-v2.dir/__/systemlib/mixer/mixer_group.cpp.obj
 .debug_line    0x0000000000003b70      0x951 CMakeFiles/px4io-v2.dir/__/systemlib/mixer/mixer_multirotor.cpp.obj
 .debug_line    0x00000000000044c1      0x6d5 CMakeFiles/px4io-v2.dir/__/systemlib/mixer/mixer_simple.cpp.obj
 .debug_line    0x0000000000004b96      0x271 CMakeFiles/px4io-v2.dir/__/systemlib/pwm_limit/pwm_limit.c.obj
 .debug_line    0x0000000000004e07      0x28b CMakeFiles/px4io-v2.dir/__/__/lib/rc/st24.c.obj
 .debug_line    0x0000000000005092      0x2fa CMakeFiles/px4io-v2.dir/__/__/lib/rc/sumd.c.obj
 .debug_line    0x000000000000538c      0x64e CMakeFiles/px4io-v2.dir/__/__/drivers/stm32/drv_hrt.c.obj
 .debug_line    0x00000000000059da      0x44f CMakeFiles/px4io-v2.dir/__/__/drivers/stm32/drv_pwm_servo.c.obj
 .debug_line    0x0000000000005e29      0x200 CMakeFiles/px4io-v2.dir/__/__/drivers/boards/px4io-v2/px4io_init.c.obj
 .debug_line    0x0000000000006029      0x230 CMakeFiles/px4io-v2.dir/__/__/drivers/boards/px4io-v2/px4io_pwm_servo.c.obj
 .debug_line    0x0000000000006259      0x4ae CMakeFiles/px4io-v2.dir/serial.c.obj
 .debug_line    0x0000000000006707      0x355 CMakeFiles/px4io-v2.dir/__/systemlib/hx_stream.c.obj
 .debug_line    0x0000000000006a5c      0x1c6 /home/einar/px4_firmware/src/Firmware/build_px4fmu-v2_default/px4io-v2/NuttX/nuttx-export/libs/libnuttx.a(sched-irq_attach.o)
 .debug_line    0x0000000000006c22       0xb7 /home/einar/px4_firmware/src/Firmware/build_px4fmu-v2_default/px4io-v2/NuttX/nuttx-export/libs/libnuttx.a(sched-irq_initialize.o)
 .debug_line    0x0000000000006cd9      0x19f /home/einar/px4_firmware/src/Firmware/build_px4fmu-v2_default/px4io-v2/NuttX/nuttx-export/libs/libnuttx.a(sched-irq_unexpectedisr.o)
 .debug_line    0x0000000000006e78       0xad /home/einar/px4_firmware/src/Firmware/build_px4fmu-v2_default/px4io-v2/NuttX/nuttx-export/libs/libnuttx.a(c-lib_abort.o)
 .debug_line    0x0000000000006f25      0x12a /home/einar/px4_firmware/src/Firmware/build_px4fmu-v2_default/px4io-v2/NuttX/nuttx-export/libs/libnuttx.a(c-lib_cfsetspeed.o)
 .debug_line    0x000000000000704f      0x1a4 /home/einar/px4_firmware/src/Firmware/build_px4fmu-v2_default/px4io-v2/NuttX/nuttx-export/libs/libnuttx.a(c-lib_crc32.o)
 .debug_line    0x00000000000071f3       0xf0 /home/einar/px4_firmware/src/Firmware/build_px4fmu-v2_default/px4io-v2/NuttX/nuttx-export/libs/libnuttx.a(c-lib_dprintf.o)
 .debug_line    0x00000000000072e3      0x18c /home/einar/px4_firmware/src/Firmware/build_px4fmu-v2_default/px4io-v2/NuttX/nuttx-export/libs/libnuttx.a(c-lib_lowsyslog.o)
 .debug_line    0x000000000000746f      0x191 /home/einar/px4_firmware/src/Firmware/build_px4fmu-v2_default/px4io-v2/NuttX/nuttx-export/libs/libnuttx.a(c-lib_memchr.o)
 .debug_line    0x0000000000007600      0x198 /home/einar/px4_firmware/src/Firmware/build_px4fmu-v2_default/px4io-v2/NuttX/nuttx-export/libs/libnuttx.a(c-lib_memcpy.o)
 .debug_line    0x0000000000007798      0x19d /home/einar/px4_firmware/src/Firmware/build_px4fmu-v2_default/px4io-v2/NuttX/nuttx-export/libs/libnuttx.a(c-lib_memset.o)
 .debug_line    0x0000000000007935       0xf2 /home/einar/px4_firmware/src/Firmware/build_px4fmu-v2_default/px4io-v2/NuttX/nuttx-export/libs/libnuttx.a(c-lib_printf.o)
 .debug_line    0x0000000000007a27      0x35d /home/einar/px4_firmware/src/Firmware/build_px4fmu-v2_default/px4io-v2/NuttX/nuttx-export/libs/libnuttx.a(c-lib_sscanf.o)
 .debug_line    0x0000000000007d84       0xae /home/einar/px4_firmware/src/Firmware/build_px4fmu-v2_default/px4io-v2/NuttX/nuttx-export/libs/libnuttx.a(c-lib_strchr.o)
 .debug_line    0x0000000000007e32       0xb3 /home/einar/px4_firmware/src/Firmware/build_px4fmu-v2_default/px4io-v2/NuttX/nuttx-export/libs/libnuttx.a(c-lib_strcmp.o)
 .debug_line    0x0000000000007ee5      0x19b /home/einar/px4_firmware/src/Firmware/build_px4fmu-v2_default/px4io-v2/NuttX/nuttx-export/libs/libnuttx.a(c-lib_strcspn.o)
 .debug_line    0x0000000000008080      0x1a8 /home/einar/px4_firmware/src/Firmware/build_px4fmu-v2_default/px4io-v2/NuttX/nuttx-export/libs/libnuttx.a(c-lib_strncpy.o)
 .debug_line    0x0000000000008228      0x154 /home/einar/px4_firmware/src/Firmware/build_px4fmu-v2_default/px4io-v2/NuttX/nuttx-export/libs/libnuttx.a(c-lib_strtol.o)
 .debug_line    0x000000000000837c      0x158 /home/einar/px4_firmware/src/Firmware/build_px4fmu-v2_default/px4io-v2/NuttX/nuttx-export/libs/libnuttx.a(c-lib_strtoul.o)
 .debug_line    0x00000000000084d4      0x18c /home/einar/px4_firmware/src/Firmware/build_px4fmu-v2_default/px4io-v2/NuttX/nuttx-export/libs/libnuttx.a(c-lib_syslog.o)
 .debug_line    0x0000000000008660      0x193 /home/einar/px4_firmware/src/Firmware/build_px4fmu-v2_default/px4io-v2/NuttX/nuttx-export/libs/libnuttx.a(c-lib_tcgetattr.o)
 .debug_line    0x00000000000087f3      0x194 /home/einar/px4_firmware/src/Firmware/build_px4fmu-v2_default/px4io-v2/NuttX/nuttx-export/libs/libnuttx.a(c-lib_tcsetattr.o)
 .debug_line    0x0000000000008987      0x172 /home/einar/px4_firmware/src/Firmware/build_px4fmu-v2_default/px4io-v2/NuttX/nuttx-export/libs/libnuttx.a(c-lib_vdprintf.o)
 .debug_line    0x0000000000008af9      0x255 /home/einar/px4_firmware/src/Firmware/build_px4fmu-v2_default/px4io-v2/NuttX/nuttx-export/libs/libnuttx.a(c-lib_vsnprintf.o)
 .debug_line    0x0000000000008d4e       0xb5 /home/einar/px4_firmware/src/Firmware/build_px4fmu-v2_default/px4io-v2/NuttX/nuttx-export/libs/libnuttx.a(c-sq_addafter.o)
 .debug_line    0x0000000000008e03       0xad /home/einar/px4_firmware/src/Firmware/build_px4fmu-v2_default/px4io-v2/NuttX/nuttx-export/libs/libnuttx.a(c-sq_addfirst.o)
 .debug_line    0x0000000000008eb0       0xad /home/einar/px4_firmware/src/Firmware/build_px4fmu-v2_default/px4io-v2/NuttX/nuttx-export/libs/libnuttx.a(c-sq_addlast.o)
 .debug_line    0x0000000000008f5d       0xb7 /home/einar/px4_firmware/src/Firmware/build_px4fmu-v2_default/px4io-v2/NuttX/nuttx-export/libs/libnuttx.a(c-sq_rem.o)
 .debug_line    0x0000000000009014      0x18e /home/einar/px4_firmware/src/Firmware/build_px4fmu-v2_default/px4io-v2/NuttX/nuttx-export/libs/libnuttx.a(mm-mm_calloc.o)
 .debug_line    0x00000000000091a2      0x220 /home/einar/px4_firmware/src/Firmware/build_px4fmu-v2_default/px4io-v2/NuttX/nuttx-export/libs/libnuttx.a(mm-mm_free.o)
 .debug_line    0x00000000000093c2      0x225 /home/einar/px4_firmware/src/Firmware/build_px4fmu-v2_default/px4io-v2/NuttX/nuttx-export/libs/libnuttx.a(mm-mm_mallinfo.o)
 .debug_line    0x00000000000095e7      0x236 /home/einar/px4_firmware/src/Firmware/build_px4fmu-v2_default/px4io-v2/NuttX/nuttx-export/libs/libnuttx.a(mm-mm_malloc.o)
 .debug_line    0x000000000000981d      0x277 /home/einar/px4_firmware/src/Firmware/build_px4fmu-v2_default/px4io-v2/NuttX/nuttx-export/libs/libnuttx.a(mm-mm_sem.o)
 .debug_line    0x0000000000009a94      0x1f0 /home/einar/px4_firmware/src/Firmware/build_px4fmu-v2_default/px4io-v2/NuttX/nuttx-export/libs/libnuttx.a(mm-mm_size2ndx.o)
 .debug_line    0x0000000000009c84      0x224 /home/einar/px4_firmware/src/Firmware/build_px4fmu-v2_default/px4io-v2/NuttX/nuttx-export/libs/libnuttx.a(mm-mm_user.o)
 .debug_line    0x0000000000009ea8      0x189 /home/einar/px4_firmware/src/Firmware/build_px4fmu-v2_default/px4io-v2/NuttX/nuttx-export/libs/libnuttx.a(mm-mm_zalloc.o)
 .debug_line    0x000000000000a031      0x368 /home/einar/px4_firmware/src/Firmware/build_px4fmu-v2_default/px4io-v2/NuttX/nuttx-export/libs/libnuttx.a(arch-stm32_dma.o)
 .debug_line    0x000000000000a399      0x24c /home/einar/px4_firmware/src/Firmware/build_px4fmu-v2_default/px4io-v2/NuttX/nuttx-export/libs/libnuttx.a(arch-stm32_gpio.o)
 .debug_line    0x000000000000a5e5      0x2bc /home/einar/px4_firmware/src/Firmware/build_px4fmu-v2_default/px4io-v2/NuttX/nuttx-export/libs/libnuttx.a(arch-stm32_irq.o)
 .debug_line    0x000000000000a8a1      0x8c8 /home/einar/px4_firmware/src/Firmware/build_px4fmu-v2_default/px4io-v2/NuttX/nuttx-export/libs/libnuttx.a(arch-stm32_serial.o)
 .debug_line    0x000000000000b169      0x320 /home/einar/px4_firmware/src/Firmware/build_px4fmu-v2_default/px4io-v2/NuttX/nuttx-export/libs/libnuttx.a(arch-stm32_start.o)
 .debug_line    0x000000000000b489      0x47a /home/einar/px4_firmware/src/Firmware/build_px4fmu-v2_default/px4io-v2/NuttX/nuttx-export/libs/libnuttx.a(arch-up_assert.o)
 .debug_line    0x000000000000b903       0x71 /home/einar/px4_firmware/src/Firmware/build_px4fmu-v2_default/px4io-v2/NuttX/nuttx-export/libs/libnuttx.a(arch-up_exception.o)
 .debug_line    0x000000000000b974      0x234 /home/einar/px4_firmware/src/Firmware/build_px4fmu-v2_default/px4io-v2/NuttX/nuttx-export/libs/libnuttx.a(arch-up_hardfault.o)
 .debug_line    0x000000000000bba8      0x1a0 /home/einar/px4_firmware/src/Firmware/build_px4fmu-v2_default/px4io-v2/NuttX/nuttx-export/libs/libnuttx.a(arch-up_modifyreg32.o)
 .debug_line    0x000000000000bd48      0x1b0 /home/einar/px4_firmware/src/Firmware/build_px4fmu-v2_default/px4io-v2/NuttX/nuttx-export/libs/libnuttx.a(arch-up_svcall.o)
 .debug_line    0x000000000000bef8      0x125 /home/einar/px4_firmware/src/Firmware/build_px4fmu-v2_default/px4io-v2/NuttX/nuttx-export/libs/libnuttx.a(arch-up_systemreset.o)
 .debug_line    0x000000000000c01d      0x219 /home/einar/px4_firmware/src/Firmware/build_px4fmu-v2_default/px4io-v2/NuttX/nuttx-export/libs/libnuttx.a(arch-up_udelay.o)
 .debug_line    0x000000000000c236       0x35 /home/einar/px4_firmware/src/Firmware/build_px4fmu-v2_default/px4io-v2/NuttX/nuttx-export/libs/libnuttx.a(arch-up_vectors.o)
 .debug_line    0x000000000000c26b      0x21e /home/einar/px4_firmware/src/Firmware/build_px4fmu-v2_default/px4io-v2/NuttX/nuttx-export/libs/libnuttx.a(cxx-libxx_cxa_atexit.o)
 .debug_line    0x000000000000c489      0x128 /home/einar/px4_firmware/src/Firmware/build_px4fmu-v2_default/px4io-v2/NuttX/nuttx-export/libs/libnuttx.a(cxx-libxx_cxapurevirtual.o)
 .debug_line    0x000000000000c5b1      0x201 /home/einar/px4_firmware/src/Firmware/build_px4fmu-v2_default/px4io-v2/NuttX/nuttx-export/libs/libnuttx.a(cxx-libxx_delete.o)
 .debug_line    0x000000000000c7b2      0x21e /home/einar/px4_firmware/src/Firmware/build_px4fmu-v2_default/px4io-v2/NuttX/nuttx-export/libs/libnuttx.a(cxx-libxx_eabi_atexit.o)
 .debug_line    0x000000000000c9d0      0x20c /home/einar/px4_firmware/src/Firmware/build_px4fmu-v2_default/px4io-v2/NuttX/nuttx-export/libs/libnuttx.a(cxx-libxx_new.o)
 .debug_line    0x000000000000cbdc      0x2b3 /home/einar/px4_firmware/src/Firmware/build_px4fmu-v2_default/px4io-v2/NuttX/nuttx-export/libs/libnuttx.a(fs-fs_ioctl.o)
 .debug_line    0x000000000000ce8f      0x2ed /home/einar/px4_firmware/src/Firmware/build_px4fmu-v2_default/px4io-v2/NuttX/nuttx-export/libs/libnuttx.a(fs-fs_open.o)
 .debug_line    0x000000000000d17c      0x2a4 /home/einar/px4_firmware/src/Firmware/build_px4fmu-v2_default/px4io-v2/NuttX/nuttx-export/libs/libnuttx.a(fs-fs_read.o)
 .debug_line    0x000000000000d420      0x2a3 /home/einar/px4_firmware/src/Firmware/build_px4fmu-v2_default/px4io-v2/NuttX/nuttx-export/libs/libnuttx.a(fs-fs_write.o)
 .debug_line    0x000000000000d6c3      0x2cb /home/einar/px4_firmware/src/Firmware/build_px4fmu-v2_default/px4io-v2/NuttX/nuttx-export/libs/libnuttx.a(drivers-serialirq.o)
 .debug_line    0x000000000000d98e      0x614 /home/einar/px4_firmware/src/Firmware/build_px4fmu-v2_default/px4io-v2/NuttX/nuttx-export/libs/libnuttx.a(drivers-serial.o)
 .debug_line    0x000000000000dfa2      0x326 /home/einar/px4_firmware/src/Firmware/build_px4fmu-v2_default/px4io-v2/NuttX/nuttx-export/libs/libnuttx.a(sched-errno_getptr.o)
 .debug_line    0x000000000000e2c8      0x320 /home/einar/px4_firmware/src/Firmware/build_px4fmu-v2_default/px4io-v2/NuttX/nuttx-export/libs/libnuttx.a(sched-exit.o)
 .debug_line    0x000000000000e5e8      0x311 /home/einar/px4_firmware/src/Firmware/build_px4fmu-v2_default/px4io-v2/NuttX/nuttx-export/libs/libnuttx.a(sched-getpid.o)
 .debug_line    0x000000000000e8f9      0x402 /home/einar/px4_firmware/src/Firmware/build_px4fmu-v2_default/px4io-v2/NuttX/nuttx-export/libs/libnuttx.a(sched-os_start.o)
 .debug_line    0x000000000000ecfb      0x22e /home/einar/px4_firmware/src/Firmware/build_px4fmu-v2_default/px4io-v2/NuttX/nuttx-export/libs/libnuttx.a(sched-sched_garbage.o)
 .debug_line    0x000000000000ef29      0x310 /home/einar/px4_firmware/src/Firmware/build_px4fmu-v2_default/px4io-v2/NuttX/nuttx-export/libs/libnuttx.a(sched-sched_getfiles.o)
 .debug_line    0x000000000000f239      0x349 /home/einar/px4_firmware/src/Firmware/build_px4fmu-v2_default/px4io-v2/NuttX/nuttx-export/libs/libnuttx.a(sched-sem_post.o)
 .debug_line    0x000000000000f582      0x33f /home/einar/px4_firmware/src/Firmware/build_px4fmu-v2_default/px4io-v2/NuttX/nuttx-export/libs/libnuttx.a(sched-sem_trywait.o)
 .debug_line    0x000000000000f8c1      0x36c /home/einar/px4_firmware/src/Firmware/build_px4fmu-v2_default/px4io-v2/NuttX/nuttx-export/libs/libnuttx.a(sched-sem_wait.o)
 .debug_line    0x000000000000fc2d      0x321 /home/einar/px4_firmware/src/Firmware/build_px4fmu-v2_default/px4io-v2/NuttX/nuttx-export/libs/libnuttx.a(sched-task_exithook.o)
 .debug_line    0x000000000000ff4e      0x30d /home/einar/px4_firmware/src/Firmware/build_px4fmu-v2_default/px4io-v2/NuttX/nuttx-export/libs/libnuttx.a(sched-task_recover.o)
 .debug_line    0x000000000001025b      0x1f7 /home/einar/px4_firmware/src/Firmware/build_px4fmu-v2_default/px4io-v2/NuttX/nuttx-export/libs/libnuttx.a(sched-wd_cancel.o)
 .debug_line    0x0000000000010452      0x1db /home/einar/px4_firmware/src/Firmware/build_px4fmu-v2_default/px4io-v2/NuttX/nuttx-export/libs/libnuttx.a(sched-wd_delete.o)
 .debug_line    0x000000000001062d      0x23d /home/einar/px4_firmware/src/Firmware/build_px4fmu-v2_default/px4io-v2/NuttX/nuttx-export/libs/libnuttx.a(sched-wd_initialize.o)
 .debug_line    0x000000000001086a       0xb0 /home/einar/px4_firmware/src/Firmware/build_px4fmu-v2_default/px4io-v2/NuttX/nuttx-export/libs/libnuttx.a(c-dq_addfirst.o)
 .debug_line    0x000000000001091a      0x129 /home/einar/px4_firmware/src/Firmware/build_px4fmu-v2_default/px4io-v2/NuttX/nuttx-export/libs/libnuttx.a(c-lib_cfgetspeed.o)
 .debug_line    0x0000000000010a43      0x165 /home/einar/px4_firmware/src/Firmware/build_px4fmu-v2_default/px4io-v2/NuttX/nuttx-export/libs/libnuttx.a(c-lib_checkbase.o)
 .debug_line    0x0000000000010ba8      0x150 /home/einar/px4_firmware/src/Firmware/build_px4fmu-v2_default/px4io-v2/NuttX/nuttx-export/libs/libnuttx.a(c-lib_isbasedigit.o)
 .debug_line    0x0000000000010cf8      0x4d9 /home/einar/px4_firmware/src/Firmware/build_px4fmu-v2_default/px4io-v2/NuttX/nuttx-export/libs/libnuttx.a(c-lib_libvsprintf.o)
 .debug_line    0x00000000000111d1       0xd5 /home/einar/px4_firmware/src/Firmware/build_px4fmu-v2_default/px4io-v2/NuttX/nuttx-export/libs/libnuttx.a(c-lib_lowoutstream.o)
 .debug_line    0x00000000000112a6       0xd9 /home/einar/px4_firmware/src/Firmware/build_px4fmu-v2_default/px4io-v2/NuttX/nuttx-export/libs/libnuttx.a(c-lib_memoutstream.o)
 .debug_line    0x000000000001137f       0xca /home/einar/px4_firmware/src/Firmware/build_px4fmu-v2_default/px4io-v2/NuttX/nuttx-export/libs/libnuttx.a(c-lib_nulloutstream.o)
 .debug_line    0x0000000000011449      0x229 /home/einar/px4_firmware/src/Firmware/build_px4fmu-v2_default/px4io-v2/NuttX/nuttx-export/libs/libnuttx.a(c-lib_rawoutstream.o)
 .debug_line    0x0000000000011672       0x53 /home/einar/px4_firmware/src/Firmware/build_px4fmu-v2_default/px4io-v2/NuttX/nuttx-export/libs/libnuttx.a(c-lib_skipspace.o)
 .debug_line    0x00000000000116c5       0xb0 /home/einar/px4_firmware/src/Firmware/build_px4fmu-v2_default/px4io-v2/NuttX/nuttx-export/libs/libnuttx.a(c-lib_strcpy.o)
 .debug_line    0x0000000000011775      0x191 /home/einar/px4_firmware/src/Firmware/build_px4fmu-v2_default/px4io-v2/NuttX/nuttx-export/libs/libnuttx.a(c-lib_strlen.o)
 .debug_line    0x0000000000011906      0x140 /home/einar/px4_firmware/src/Firmware/build_px4fmu-v2_default/px4io-v2/NuttX/nuttx-export/libs/libnuttx.a(c-sem_init.o)
 .debug_line    0x0000000000011a46       0xba /home/einar/px4_firmware/src/Firmware/build_px4fmu-v2_default/px4io-v2/NuttX/nuttx-export/libs/libnuttx.a(c-sq_remafter.o)
 .debug_line    0x0000000000011b00       0xb0 /home/einar/px4_firmware/src/Firmware/build_px4fmu-v2_default/px4io-v2/NuttX/nuttx-export/libs/libnuttx.a(c-sq_remfirst.o)
 .debug_line    0x0000000000011bb0      0x212 /home/einar/px4_firmware/src/Firmware/build_px4fmu-v2_default/px4io-v2/NuttX/nuttx-export/libs/libnuttx.a(mm-mm_addfreechunk.o)
 .debug_line    0x0000000000011dc2      0x245 /home/einar/px4_firmware/src/Firmware/build_px4fmu-v2_default/px4io-v2/NuttX/nuttx-export/libs/libnuttx.a(mm-mm_initialize.o)
 .debug_line    0x0000000000012007      0x26d /home/einar/px4_firmware/src/Firmware/build_px4fmu-v2_default/px4io-v2/NuttX/nuttx-export/libs/libnuttx.a(arch-stm32_allocateheap.o)
 .debug_line    0x0000000000012274       0xb0 /home/einar/px4_firmware/src/Firmware/build_px4fmu-v2_default/px4io-v2/NuttX/nuttx-export/libs/libnuttx.a(arch-stm32_idle.o)
 .debug_line    0x0000000000012324      0x258 /home/einar/px4_firmware/src/Firmware/build_px4fmu-v2_default/px4io-v2/NuttX/nuttx-export/libs/libnuttx.a(arch-stm32_lowputc.o)
 .debug_line    0x000000000001257c      0x1fd /home/einar/px4_firmware/src/Firmware/build_px4fmu-v2_default/px4io-v2/NuttX/nuttx-export/libs/libnuttx.a(arch-stm32_rcc.o)
 .debug_line    0x0000000000012779      0x41d /home/einar/px4_firmware/src/Firmware/build_px4fmu-v2_default/px4io-v2/NuttX/nuttx-export/libs/libnuttx.a(arch-up_blocktask.o)
 .debug_line    0x0000000000012b96      0x124 /home/einar/px4_firmware/src/Firmware/build_px4fmu-v2_default/px4io-v2/NuttX/nuttx-export/libs/libnuttx.a(arch-up_copystate.o)
 .debug_line    0x0000000000012cba      0x206 /home/einar/px4_firmware/src/Firmware/build_px4fmu-v2_default/px4io-v2/NuttX/nuttx-export/libs/libnuttx.a(arch-up_doirq.o)
 .debug_line    0x0000000000012ec0      0x38f /home/einar/px4_firmware/src/Firmware/build_px4fmu-v2_default/px4io-v2/NuttX/nuttx-export/libs/libnuttx.a(arch-up_exit.o)
 .debug_line    0x000000000001324f       0x53 /home/einar/px4_firmware/src/Firmware/build_px4fmu-v2_default/px4io-v2/NuttX/nuttx-export/libs/libnuttx.a(arch-up_fullcontextrestore.o)
 .debug_line    0x00000000000132a2      0x278 /home/einar/px4_firmware/src/Firmware/build_px4fmu-v2_default/px4io-v2/NuttX/nuttx-export/libs/libnuttx.a(arch-up_initialize.o)
 .debug_line    0x000000000001351a      0x31f /home/einar/px4_firmware/src/Firmware/build_px4fmu-v2_default/px4io-v2/NuttX/nuttx-export/libs/libnuttx.a(arch-up_initialstate.o)
 .debug_line    0x0000000000013839      0x1aa /home/einar/px4_firmware/src/Firmware/build_px4fmu-v2_default/px4io-v2/NuttX/nuttx-export/libs/libnuttx.a(arch-up_interruptcontext.o)
 .debug_line    0x00000000000139e3       0xc4 /home/einar/px4_firmware/src/Firmware/build_px4fmu-v2_default/px4io-v2/NuttX/nuttx-export/libs/libnuttx.a(arch-up_mdelay.o)
 .debug_line    0x0000000000013aa7       0x4f /home/einar/px4_firmware/src/Firmware/build_px4fmu-v2_default/px4io-v2/NuttX/nuttx-export/libs/libnuttx.a(arch-up_switchcontext.o)
 .debug_line    0x0000000000013af6      0x418 /home/einar/px4_firmware/src/Firmware/build_px4fmu-v2_default/px4io-v2/NuttX/nuttx-export/libs/libnuttx.a(arch-up_unblocktask.o)
 .debug_line    0x0000000000013f0e      0x3b9 /home/einar/px4_firmware/src/Firmware/build_px4fmu-v2_default/px4io-v2/NuttX/nuttx-export/libs/libnuttx.a(fs-fs_files.o)
 .debug_line    0x00000000000142c7      0x20c /home/einar/px4_firmware/src/Firmware/build_px4fmu-v2_default/px4io-v2/NuttX/nuttx-export/libs/libnuttx.a(fs-fs_inodeaddref.o)
 .debug_line    0x00000000000144d3      0x21a /home/einar/px4_firmware/src/Firmware/build_px4fmu-v2_default/px4io-v2/NuttX/nuttx-export/libs/libnuttx.a(fs-fs_inodefind.o)
 .debug_line    0x00000000000146ed      0x2e4 /home/einar/px4_firmware/src/Firmware/build_px4fmu-v2_default/px4io-v2/NuttX/nuttx-export/libs/libnuttx.a(fs-fs_inode.o)
 .debug_line    0x00000000000149d1      0x229 /home/einar/px4_firmware/src/Firmware/build_px4fmu-v2_default/px4io-v2/NuttX/nuttx-export/libs/libnuttx.a(fs-fs_inoderelease.o)
 .debug_line    0x0000000000014bfa      0x218 /home/einar/px4_firmware/src/Firmware/build_px4fmu-v2_default/px4io-v2/NuttX/nuttx-export/libs/libnuttx.a(fs-fs_registerdriver.o)
 .debug_line    0x0000000000014e12      0x213 /home/einar/px4_firmware/src/Firmware/build_px4fmu-v2_default/px4io-v2/NuttX/nuttx-export/libs/libnuttx.a(drivers-dev_null.o)
 .debug_line    0x0000000000015025      0x31d /home/einar/px4_firmware/src/Firmware/build_px4fmu-v2_default/px4io-v2/NuttX/nuttx-export/libs/libnuttx.a(sched-group_create.o)
 .debug_line    0x0000000000015342      0x30b /home/einar/px4_firmware/src/Firmware/build_px4fmu-v2_default/px4io-v2/NuttX/nuttx-export/libs/libnuttx.a(sched-group_leave.o)
 .debug_line    0x000000000001564d      0x320 /home/einar/px4_firmware/src/Firmware/build_px4fmu-v2_default/px4io-v2/NuttX/nuttx-export/libs/libnuttx.a(sched-group_setupidlefiles.o)
 .debug_line    0x000000000001596d       0xe2 /home/einar/px4_firmware/src/Firmware/build_px4fmu-v2_default/px4io-v2/NuttX/nuttx-export/libs/libnuttx.a(sched-irq_dispatch.o)
 .debug_line    0x0000000000015a4f      0x19f /home/einar/px4_firmware/src/Firmware/build_px4fmu-v2_default/px4io-v2/NuttX/nuttx-export/libs/libnuttx.a(sched-os_bringup.o)
 .debug_line    0x0000000000015bee      0x329 /home/einar/px4_firmware/src/Firmware/build_px4fmu-v2_default/px4io-v2/NuttX/nuttx-export/libs/libnuttx.a(sched-sched_addblocked.o)
 .debug_line    0x0000000000015f17      0x33a /home/einar/px4_firmware/src/Firmware/build_px4fmu-v2_default/px4io-v2/NuttX/nuttx-export/libs/libnuttx.a(sched-sched_addprioritized.o)
 .debug_line    0x0000000000016251      0x33f /home/einar/px4_firmware/src/Firmware/build_px4fmu-v2_default/px4io-v2/NuttX/nuttx-export/libs/libnuttx.a(sched-sched_addreadytorun.o)
 .debug_line    0x0000000000016590      0x258 /home/einar/px4_firmware/src/Firmware/build_px4fmu-v2_default/px4io-v2/NuttX/nuttx-export/libs/libnuttx.a(sched-sched_free.o)
 .debug_line    0x00000000000167e8      0x34a /home/einar/px4_firmware/src/Firmware/build_px4fmu-v2_default/px4io-v2/NuttX/nuttx-export/libs/libnuttx.a(sched-sched_mergepending.o)
 .debug_line    0x0000000000016b32      0x328 /home/einar/px4_firmware/src/Firmware/build_px4fmu-v2_default/px4io-v2/NuttX/nuttx-export/libs/libnuttx.a(sched-sched_removeblocked.o)
 .debug_line    0x0000000000016e5a      0x336 /home/einar/px4_firmware/src/Firmware/build_px4fmu-v2_default/px4io-v2/NuttX/nuttx-export/libs/libnuttx.a(sched-sched_removereadytorun.o)
 .debug_line    0x0000000000017190      0x135 /home/einar/px4_firmware/src/Firmware/build_px4fmu-v2_default/px4io-v2/NuttX/nuttx-export/libs/libnuttx.a(sched-sem_destroy.o)
 .debug_line    0x00000000000172c5      0x3a1 /home/einar/px4_firmware/src/Firmware/build_px4fmu-v2_default/px4io-v2/NuttX/nuttx-export/libs/libnuttx.a(sched-task_create.o)
 .debug_line    0x0000000000017666      0x323 /home/einar/px4_firmware/src/Firmware/build_px4fmu-v2_default/px4io-v2/NuttX/nuttx-export/libs/libnuttx.a(sched-task_exit.o)
 .debug_line    0x0000000000017989      0x396 /home/einar/px4_firmware/src/Firmware/build_px4fmu-v2_default/px4io-v2/NuttX/nuttx-export/libs/libnuttx.a(sched-task_setup.o)
 .debug_line    0x0000000000017d1f      0x326 /home/einar/px4_firmware/src/Firmware/build_px4fmu-v2_default/px4io-v2/NuttX/nuttx-export/libs/libnuttx.a(sched-task_start.o)
 .debug_line    0x0000000000018045      0x354 /home/einar/px4_firmware/src/Firmware/build_px4fmu-v2_default/px4io-v2/NuttX/nuttx-export/libs/libnuttx.a(sched-task_terminate.o)
 .debug_line    0x0000000000018399       0xae /home/einar/px4_firmware/src/Firmware/build_px4fmu-v2_default/px4io-v2/NuttX/nuttx-export/libs/libnuttx.a(c-dq_addlast.o)
 .debug_line    0x0000000000018447       0xae /home/einar/px4_firmware/src/Firmware/build_px4fmu-v2_default/px4io-v2/NuttX/nuttx-export/libs/libnuttx.a(c-dq_rem.o)
 .debug_line    0x00000000000184f5      0x19c /home/einar/px4_firmware/src/Firmware/build_px4fmu-v2_default/px4io-v2/NuttX/nuttx-export/libs/libnuttx.a(c-lib_strdup.o)
 .debug_line    0x0000000000018691      0x22d /home/einar/px4_firmware/src/Firmware/build_px4fmu-v2_default/px4io-v2/NuttX/nuttx-export/libs/libnuttx.a(arch-stm32_timerisr.o)
 .debug_line    0x00000000000188be      0x32e /home/einar/px4_firmware/src/Firmware/build_px4fmu-v2_default/px4io-v2/NuttX/nuttx-export/libs/libnuttx.a(arch-up_createstack.o)
 .debug_line    0x0000000000018bec      0x315 /home/einar/px4_firmware/src/Firmware/build_px4fmu-v2_default/px4io-v2/NuttX/nuttx-export/libs/libnuttx.a(arch-up_releasestack.o)
 .debug_line    0x0000000000018f01       0xd4 /home/einar/px4_firmware/src/Firmware/build_px4fmu-v2_default/px4io-v2/NuttX/nuttx-export/libs/libnuttx.a(fs-fs_close.o)
 .debug_line    0x0000000000018fd5      0x299 /home/einar/px4_firmware/src/Firmware/build_px4fmu-v2_default/px4io-v2/NuttX/nuttx-export/libs/libnuttx.a(fs-fs_filedup2.o)
 .debug_line    0x000000000001926e      0x28a /home/einar/px4_firmware/src/Firmware/build_px4fmu-v2_default/px4io-v2/NuttX/nuttx-export/libs/libnuttx.a(fs-fs_inodereserve.o)
 .debug_line    0x00000000000194f8      0x2fb /home/einar/px4_firmware/src/Firmware/build_px4fmu-v2_default/px4io-v2/NuttX/nuttx-export/libs/libnuttx.a(sched-group_setuptaskfiles.o)
 .debug_line    0x00000000000197f3      0x309 /home/einar/px4_firmware/src/Firmware/build_px4fmu-v2_default/px4io-v2/NuttX/nuttx-export/libs/libnuttx.a(sched-sched_gettcb.o)
 .debug_line    0x0000000000019afc      0x33b /home/einar/px4_firmware/src/Firmware/build_px4fmu-v2_default/px4io-v2/NuttX/nuttx-export/libs/libnuttx.a(sched-sched_lock.o)
 .debug_line    0x0000000000019e37       0xd9 /home/einar/px4_firmware/src/Firmware/build_px4fmu-v2_default/px4io-v2/NuttX/nuttx-export/libs/libnuttx.a(sched-sched_processtimer.o)
 .debug_line    0x0000000000019f10      0x354 /home/einar/px4_firmware/src/Firmware/build_px4fmu-v2_default/px4io-v2/NuttX/nuttx-export/libs/libnuttx.a(sched-sched_releasetcb.o)
 .debug_line    0x000000000001a264      0x344 /home/einar/px4_firmware/src/Firmware/build_px4fmu-v2_default/px4io-v2/NuttX/nuttx-export/libs/libnuttx.a(sched-sched_unlock.o)
 .debug_line    0x000000000001a5a8      0x31b /home/einar/px4_firmware/src/Firmware/build_px4fmu-v2_default/px4io-v2/NuttX/nuttx-export/libs/libnuttx.a(sched-task_activate.o)
 .debug_line    0x000000000001a8c3      0x400 /home/einar/px4_firmware/src/Firmware/build_px4fmu-v2_default/px4io-v2/NuttX/nuttx-export/libs/libnuttx.a(arch-up_releasepending.o)

.debug_pubnames
 *(.debug_pubnames)

.debug_aranges  0x0000000000000000     0x1bd0
 *(.debug_aranges)
 .debug_aranges
                0x0000000000000000       0x28 CMakeFiles/px4io-v2.dir/adc.c.obj
 .debug_aranges
                0x0000000000000028       0x28 CMakeFiles/px4io-v2.dir/controls.c.obj
 .debug_aranges
                0x0000000000000050       0x38 CMakeFiles/px4io-v2.dir/dsm.c.obj
 .debug_aranges
                0x0000000000000088       0x30 CMakeFiles/px4io-v2.dir/px4io.c.obj
 .debug_aranges
                0x00000000000000b8       0x30 CMakeFiles/px4io-v2.dir/registers.c.obj
 .debug_aranges
                0x00000000000000e8       0x38 CMakeFiles/px4io-v2.dir/safety.c.obj
 .debug_aranges
                0x0000000000000120       0x38 CMakeFiles/px4io-v2.dir/sbus.c.obj
 .debug_aranges
                0x0000000000000158       0x20 CMakeFiles/px4io-v2.dir/__/systemlib/up_cxxinitialize.c.obj
 .debug_aranges
                0x0000000000000178       0x90 CMakeFiles/px4io-v2.dir/__/systemlib/perf_counter.c.obj
 .debug_aranges
                0x0000000000000208       0x38 CMakeFiles/px4io-v2.dir/mixer.cpp.obj
 .debug_aranges
                0x0000000000000240       0x78 CMakeFiles/px4io-v2.dir/__/systemlib/mixer/mixer.cpp.obj
 .debug_aranges
                0x00000000000002b8       0x60 CMakeFiles/px4io-v2.dir/__/systemlib/mixer/mixer_group.cpp.obj
 .debug_aranges
                0x0000000000000318       0x48 CMakeFiles/px4io-v2.dir/__/systemlib/mixer/mixer_multirotor.cpp.obj
 .debug_aranges
                0x0000000000000360       0x68 CMakeFiles/px4io-v2.dir/__/systemlib/mixer/mixer_simple.cpp.obj
 .debug_aranges
                0x00000000000003c8       0x28 CMakeFiles/px4io-v2.dir/__/systemlib/pwm_limit/pwm_limit.c.obj
 .debug_aranges
                0x00000000000003f0       0x28 CMakeFiles/px4io-v2.dir/__/__/lib/rc/st24.c.obj
 .debug_aranges
                0x0000000000000418       0x30 CMakeFiles/px4io-v2.dir/__/__/lib/rc/sumd.c.obj
 .debug_aranges
                0x0000000000000448       0xa0 CMakeFiles/px4io-v2.dir/__/__/drivers/stm32/drv_hrt.c.obj
 .debug_aranges
                0x00000000000004e8       0x58 CMakeFiles/px4io-v2.dir/__/__/drivers/stm32/drv_pwm_servo.c.obj
 .debug_aranges
                0x0000000000000540       0x20 CMakeFiles/px4io-v2.dir/__/__/drivers/boards/px4io-v2/px4io_init.c.obj
 .debug_aranges
                0x0000000000000560       0x18 CMakeFiles/px4io-v2.dir/__/__/drivers/boards/px4io-v2/px4io_pwm_servo.c.obj
 .debug_aranges
                0x0000000000000578       0x38 CMakeFiles/px4io-v2.dir/serial.c.obj
 .debug_aranges
                0x00000000000005b0       0x58 CMakeFiles/px4io-v2.dir/__/systemlib/hx_stream.c.obj
 .debug_aranges
                0x0000000000000608       0x20 /home/einar/px4_firmware/src/Firmware/build_px4fmu-v2_default/px4io-v2/NuttX/nuttx-export/libs/libnuttx.a(sched-irq_attach.o)
 .debug_aranges
                0x0000000000000628       0x20 /home/einar/px4_firmware/src/Firmware/build_px4fmu-v2_default/px4io-v2/NuttX/nuttx-export/libs/libnuttx.a(sched-irq_initialize.o)
 .debug_aranges
                0x0000000000000648       0x20 /home/einar/px4_firmware/src/Firmware/build_px4fmu-v2_default/px4io-v2/NuttX/nuttx-export/libs/libnuttx.a(sched-irq_unexpectedisr.o)
 .debug_aranges
                0x0000000000000668       0x20 /home/einar/px4_firmware/src/Firmware/build_px4fmu-v2_default/px4io-v2/NuttX/nuttx-export/libs/libnuttx.a(c-lib_abort.o)
 .debug_aranges
                0x0000000000000688       0x20 /home/einar/px4_firmware/src/Firmware/build_px4fmu-v2_default/px4io-v2/NuttX/nuttx-export/libs/libnuttx.a(c-lib_cfsetspeed.o)
 .debug_aranges
                0x00000000000006a8       0x28 /home/einar/px4_firmware/src/Firmware/build_px4fmu-v2_default/px4io-v2/NuttX/nuttx-export/libs/libnuttx.a(c-lib_crc32.o)
 .debug_aranges
                0x00000000000006d0       0x20 /home/einar/px4_firmware/src/Firmware/build_px4fmu-v2_default/px4io-v2/NuttX/nuttx-export/libs/libnuttx.a(c-lib_dprintf.o)
 .debug_aranges
                0x00000000000006f0       0x28 /home/einar/px4_firmware/src/Firmware/build_px4fmu-v2_default/px4io-v2/NuttX/nuttx-export/libs/libnuttx.a(c-lib_lowsyslog.o)
 .debug_aranges
                0x0000000000000718       0x20 /home/einar/px4_firmware/src/Firmware/build_px4fmu-v2_default/px4io-v2/NuttX/nuttx-export/libs/libnuttx.a(c-lib_memchr.o)
 .debug_aranges
                0x0000000000000738       0x20 /home/einar/px4_firmware/src/Firmware/build_px4fmu-v2_default/px4io-v2/NuttX/nuttx-export/libs/libnuttx.a(c-lib_memcpy.o)
 .debug_aranges
                0x0000000000000758       0x20 /home/einar/px4_firmware/src/Firmware/build_px4fmu-v2_default/px4io-v2/NuttX/nuttx-export/libs/libnuttx.a(c-lib_memset.o)
 .debug_aranges
                0x0000000000000778       0x20 /home/einar/px4_firmware/src/Firmware/build_px4fmu-v2_default/px4io-v2/NuttX/nuttx-export/libs/libnuttx.a(c-lib_printf.o)
 .debug_aranges
                0x0000000000000798       0x30 /home/einar/px4_firmware/src/Firmware/build_px4fmu-v2_default/px4io-v2/NuttX/nuttx-export/libs/libnuttx.a(c-lib_sscanf.o)
 .debug_aranges
                0x00000000000007c8       0x20 /home/einar/px4_firmware/src/Firmware/build_px4fmu-v2_default/px4io-v2/NuttX/nuttx-export/libs/libnuttx.a(c-lib_strchr.o)
 .debug_aranges
                0x00000000000007e8       0x20 /home/einar/px4_firmware/src/Firmware/build_px4fmu-v2_default/px4io-v2/NuttX/nuttx-export/libs/libnuttx.a(c-lib_strcmp.o)
 .debug_aranges
                0x0000000000000808       0x20 /home/einar/px4_firmware/src/Firmware/build_px4fmu-v2_default/px4io-v2/NuttX/nuttx-export/libs/libnuttx.a(c-lib_strcspn.o)
 .debug_aranges
                0x0000000000000828       0x20 /home/einar/px4_firmware/src/Firmware/build_px4fmu-v2_default/px4io-v2/NuttX/nuttx-export/libs/libnuttx.a(c-lib_strncpy.o)
 .debug_aranges
                0x0000000000000848       0x20 /home/einar/px4_firmware/src/Firmware/build_px4fmu-v2_default/px4io-v2/NuttX/nuttx-export/libs/libnuttx.a(c-lib_strtol.o)
 .debug_aranges
                0x0000000000000868       0x20 /home/einar/px4_firmware/src/Firmware/build_px4fmu-v2_default/px4io-v2/NuttX/nuttx-export/libs/libnuttx.a(c-lib_strtoul.o)
 .debug_aranges
                0x0000000000000888       0x28 /home/einar/px4_firmware/src/Firmware/build_px4fmu-v2_default/px4io-v2/NuttX/nuttx-export/libs/libnuttx.a(c-lib_syslog.o)
 .debug_aranges
                0x00000000000008b0       0x20 /home/einar/px4_firmware/src/Firmware/build_px4fmu-v2_default/px4io-v2/NuttX/nuttx-export/libs/libnuttx.a(c-lib_tcgetattr.o)
 .debug_aranges
                0x00000000000008d0       0x20 /home/einar/px4_firmware/src/Firmware/build_px4fmu-v2_default/px4io-v2/NuttX/nuttx-export/libs/libnuttx.a(c-lib_tcsetattr.o)
 .debug_aranges
                0x00000000000008f0       0x20 /home/einar/px4_firmware/src/Firmware/build_px4fmu-v2_default/px4io-v2/NuttX/nuttx-export/libs/libnuttx.a(c-lib_vdprintf.o)
 .debug_aranges
                0x0000000000000910       0x20 /home/einar/px4_firmware/src/Firmware/build_px4fmu-v2_default/px4io-v2/NuttX/nuttx-export/libs/libnuttx.a(c-lib_vsnprintf.o)
 .debug_aranges
                0x0000000000000930       0x20 /home/einar/px4_firmware/src/Firmware/build_px4fmu-v2_default/px4io-v2/NuttX/nuttx-export/libs/libnuttx.a(c-sq_addafter.o)
 .debug_aranges
                0x0000000000000950       0x20 /home/einar/px4_firmware/src/Firmware/build_px4fmu-v2_default/px4io-v2/NuttX/nuttx-export/libs/libnuttx.a(c-sq_addfirst.o)
 .debug_aranges
                0x0000000000000970       0x20 /home/einar/px4_firmware/src/Firmware/build_px4fmu-v2_default/px4io-v2/NuttX/nuttx-export/libs/libnuttx.a(c-sq_addlast.o)
 .debug_aranges
                0x0000000000000990       0x20 /home/einar/px4_firmware/src/Firmware/build_px4fmu-v2_default/px4io-v2/NuttX/nuttx-export/libs/libnuttx.a(c-sq_rem.o)
 .debug_aranges
                0x00000000000009b0       0x20 /home/einar/px4_firmware/src/Firmware/build_px4fmu-v2_default/px4io-v2/NuttX/nuttx-export/libs/libnuttx.a(mm-mm_calloc.o)
 .debug_aranges
                0x00000000000009d0       0x20 /home/einar/px4_firmware/src/Firmware/build_px4fmu-v2_default/px4io-v2/NuttX/nuttx-export/libs/libnuttx.a(mm-mm_free.o)
 .debug_aranges
                0x00000000000009f0       0x20 /home/einar/px4_firmware/src/Firmware/build_px4fmu-v2_default/px4io-v2/NuttX/nuttx-export/libs/libnuttx.a(mm-mm_mallinfo.o)
 .debug_aranges
                0x0000000000000a10       0x20 /home/einar/px4_firmware/src/Firmware/build_px4fmu-v2_default/px4io-v2/NuttX/nuttx-export/libs/libnuttx.a(mm-mm_malloc.o)
 .debug_aranges
                0x0000000000000a30       0x38 /home/einar/px4_firmware/src/Firmware/build_px4fmu-v2_default/px4io-v2/NuttX/nuttx-export/libs/libnuttx.a(mm-mm_sem.o)
 .debug_aranges
                0x0000000000000a68       0x20 /home/einar/px4_firmware/src/Firmware/build_px4fmu-v2_default/px4io-v2/NuttX/nuttx-export/libs/libnuttx.a(mm-mm_size2ndx.o)
 .debug_aranges
                0x0000000000000a88       0x38 /home/einar/px4_firmware/src/Firmware/build_px4fmu-v2_default/px4io-v2/NuttX/nuttx-export/libs/libnuttx.a(mm-mm_user.o)
 .debug_aranges
                0x0000000000000ac0       0x20 /home/einar/px4_firmware/src/Firmware/build_px4fmu-v2_default/px4io-v2/NuttX/nuttx-export/libs/libnuttx.a(mm-mm_zalloc.o)
 .debug_aranges
                0x0000000000000ae0       0x60 /home/einar/px4_firmware/src/Firmware/build_px4fmu-v2_default/px4io-v2/NuttX/nuttx-export/libs/libnuttx.a(arch-stm32_dma.o)
 .debug_aranges
                0x0000000000000b40       0x40 /home/einar/px4_firmware/src/Firmware/build_px4fmu-v2_default/px4io-v2/NuttX/nuttx-export/libs/libnuttx.a(arch-stm32_gpio.o)
 .debug_aranges
                0x0000000000000b80       0x48 /home/einar/px4_firmware/src/Firmware/build_px4fmu-v2_default/px4io-v2/NuttX/nuttx-export/libs/libnuttx.a(arch-stm32_irq.o)
 .debug_aranges
                0x0000000000000bc8       0xf0 /home/einar/px4_firmware/src/Firmware/build_px4fmu-v2_default/px4io-v2/NuttX/nuttx-export/libs/libnuttx.a(arch-stm32_serial.o)
 .debug_aranges
                0x0000000000000cb8       0x20 /home/einar/px4_firmware/src/Firmware/build_px4fmu-v2_default/px4io-v2/NuttX/nuttx-export/libs/libnuttx.a(arch-stm32_start.o)
 .debug_aranges
                0x0000000000000cd8       0x28 /home/einar/px4_firmware/src/Firmware/build_px4fmu-v2_default/px4io-v2/NuttX/nuttx-export/libs/libnuttx.a(arch-up_assert.o)
 .debug_aranges
                0x0000000000000d00       0x20 /home/einar/px4_firmware/src/Firmware/build_px4fmu-v2_default/px4io-v2/NuttX/nuttx-export/libs/libnuttx.a(arch-up_exception.o)
 .debug_aranges
                0x0000000000000d20       0x20 /home/einar/px4_firmware/src/Firmware/build_px4fmu-v2_default/px4io-v2/NuttX/nuttx-export/libs/libnuttx.a(arch-up_hardfault.o)
 .debug_aranges
                0x0000000000000d40       0x20 /home/einar/px4_firmware/src/Firmware/build_px4fmu-v2_default/px4io-v2/NuttX/nuttx-export/libs/libnuttx.a(arch-up_modifyreg32.o)
 .debug_aranges
                0x0000000000000d60       0x20 /home/einar/px4_firmware/src/Firmware/build_px4fmu-v2_default/px4io-v2/NuttX/nuttx-export/libs/libnuttx.a(arch-up_svcall.o)
 .debug_aranges
                0x0000000000000d80       0x20 /home/einar/px4_firmware/src/Firmware/build_px4fmu-v2_default/px4io-v2/NuttX/nuttx-export/libs/libnuttx.a(arch-up_systemreset.o)
 .debug_aranges
                0x0000000000000da0       0x20 /home/einar/px4_firmware/src/Firmware/build_px4fmu-v2_default/px4io-v2/NuttX/nuttx-export/libs/libnuttx.a(arch-up_udelay.o)
 .debug_aranges
                0x0000000000000dc0       0x18 /home/einar/px4_firmware/src/Firmware/build_px4fmu-v2_default/px4io-v2/NuttX/nuttx-export/libs/libnuttx.a(arch-up_vectors.o)
 .debug_aranges
                0x0000000000000dd8       0x20 /home/einar/px4_firmware/src/Firmware/build_px4fmu-v2_default/px4io-v2/NuttX/nuttx-export/libs/libnuttx.a(cxx-libxx_cxa_atexit.o)
 .debug_aranges
                0x0000000000000df8       0x20 /home/einar/px4_firmware/src/Firmware/build_px4fmu-v2_default/px4io-v2/NuttX/nuttx-export/libs/libnuttx.a(cxx-libxx_cxapurevirtual.o)
 .debug_aranges
                0x0000000000000e18       0x20 /home/einar/px4_firmware/src/Firmware/build_px4fmu-v2_default/px4io-v2/NuttX/nuttx-export/libs/libnuttx.a(cxx-libxx_delete.o)
 .debug_aranges
                0x0000000000000e38       0x20 /home/einar/px4_firmware/src/Firmware/build_px4fmu-v2_default/px4io-v2/NuttX/nuttx-export/libs/libnuttx.a(cxx-libxx_eabi_atexit.o)
 .debug_aranges
                0x0000000000000e58       0x20 /home/einar/px4_firmware/src/Firmware/build_px4fmu-v2_default/px4io-v2/NuttX/nuttx-export/libs/libnuttx.a(cxx-libxx_new.o)
 .debug_aranges
                0x0000000000000e78       0x20 /home/einar/px4_firmware/src/Firmware/build_px4fmu-v2_default/px4io-v2/NuttX/nuttx-export/libs/libnuttx.a(fs-fs_ioctl.o)
 .debug_aranges
                0x0000000000000e98       0x28 /home/einar/px4_firmware/src/Firmware/build_px4fmu-v2_default/px4io-v2/NuttX/nuttx-export/libs/libnuttx.a(fs-fs_open.o)
 .debug_aranges
                0x0000000000000ec0       0x20 /home/einar/px4_firmware/src/Firmware/build_px4fmu-v2_default/px4io-v2/NuttX/nuttx-export/libs/libnuttx.a(fs-fs_read.o)
 .debug_aranges
                0x0000000000000ee0       0x20 /home/einar/px4_firmware/src/Firmware/build_px4fmu-v2_default/px4io-v2/NuttX/nuttx-export/libs/libnuttx.a(fs-fs_write.o)
 .debug_aranges
                0x0000000000000f00       0x28 /home/einar/px4_firmware/src/Firmware/build_px4fmu-v2_default/px4io-v2/NuttX/nuttx-export/libs/libnuttx.a(drivers-serialirq.o)
 .debug_aranges
                0x0000000000000f28       0x70 /home/einar/px4_firmware/src/Firmware/build_px4fmu-v2_default/px4io-v2/NuttX/nuttx-export/libs/libnuttx.a(drivers-serial.o)
 .debug_aranges
                0x0000000000000f98       0x20 /home/einar/px4_firmware/src/Firmware/build_px4fmu-v2_default/px4io-v2/NuttX/nuttx-export/libs/libnuttx.a(sched-errno_getptr.o)
 .debug_aranges
                0x0000000000000fb8       0x20 /home/einar/px4_firmware/src/Firmware/build_px4fmu-v2_default/px4io-v2/NuttX/nuttx-export/libs/libnuttx.a(sched-exit.o)
 .debug_aranges
                0x0000000000000fd8       0x20 /home/einar/px4_firmware/src/Firmware/build_px4fmu-v2_default/px4io-v2/NuttX/nuttx-export/libs/libnuttx.a(sched-getpid.o)
 .debug_aranges
                0x0000000000000ff8       0x20 /home/einar/px4_firmware/src/Firmware/build_px4fmu-v2_default/px4io-v2/NuttX/nuttx-export/libs/libnuttx.a(sched-os_start.o)
 .debug_aranges
                0x0000000000001018       0x20 /home/einar/px4_firmware/src/Firmware/build_px4fmu-v2_default/px4io-v2/NuttX/nuttx-export/libs/libnuttx.a(sched-sched_garbage.o)
 .debug_aranges
                0x0000000000001038       0x20 /home/einar/px4_firmware/src/Firmware/build_px4fmu-v2_default/px4io-v2/NuttX/nuttx-export/libs/libnuttx.a(sched-sched_getfiles.o)
 .debug_aranges
                0x0000000000001058       0x20 /home/einar/px4_firmware/src/Firmware/build_px4fmu-v2_default/px4io-v2/NuttX/nuttx-export/libs/libnuttx.a(sched-sem_post.o)
 .debug_aranges
                0x0000000000001078       0x20 /home/einar/px4_firmware/src/Firmware/build_px4fmu-v2_default/px4io-v2/NuttX/nuttx-export/libs/libnuttx.a(sched-sem_trywait.o)
 .debug_aranges
                0x0000000000001098       0x20 /home/einar/px4_firmware/src/Firmware/build_px4fmu-v2_default/px4io-v2/NuttX/nuttx-export/libs/libnuttx.a(sched-sem_wait.o)
 .debug_aranges
                0x00000000000010b8       0x20 /home/einar/px4_firmware/src/Firmware/build_px4fmu-v2_default/px4io-v2/NuttX/nuttx-export/libs/libnuttx.a(sched-task_exithook.o)
 .debug_aranges
                0x00000000000010d8       0x20 /home/einar/px4_firmware/src/Firmware/build_px4fmu-v2_default/px4io-v2/NuttX/nuttx-export/libs/libnuttx.a(sched-task_recover.o)
 .debug_aranges
                0x00000000000010f8       0x20 /home/einar/px4_firmware/src/Firmware/build_px4fmu-v2_default/px4io-v2/NuttX/nuttx-export/libs/libnuttx.a(sched-wd_cancel.o)
 .debug_aranges
                0x0000000000001118       0x20 /home/einar/px4_firmware/src/Firmware/build_px4fmu-v2_default/px4io-v2/NuttX/nuttx-export/libs/libnuttx.a(sched-wd_delete.o)
 .debug_aranges
                0x0000000000001138       0x20 /home/einar/px4_firmware/src/Firmware/build_px4fmu-v2_default/px4io-v2/NuttX/nuttx-export/libs/libnuttx.a(sched-wd_initialize.o)
 .debug_aranges
                0x0000000000001158       0x20 /home/einar/px4_firmware/src/Firmware/build_px4fmu-v2_default/px4io-v2/NuttX/nuttx-export/libs/libnuttx.a(c-dq_addfirst.o)
 .debug_aranges
                0x0000000000001178       0x20 /home/einar/px4_firmware/src/Firmware/build_px4fmu-v2_default/px4io-v2/NuttX/nuttx-export/libs/libnuttx.a(c-lib_cfgetspeed.o)
 .debug_aranges
                0x0000000000001198       0x20 /home/einar/px4_firmware/src/Firmware/build_px4fmu-v2_default/px4io-v2/NuttX/nuttx-export/libs/libnuttx.a(c-lib_checkbase.o)
 .debug_aranges
                0x00000000000011b8       0x20 /home/einar/px4_firmware/src/Firmware/build_px4fmu-v2_default/px4io-v2/NuttX/nuttx-export/libs/libnuttx.a(c-lib_isbasedigit.o)
 .debug_aranges
                0x00000000000011d8       0x80 /home/einar/px4_firmware/src/Firmware/build_px4fmu-v2_default/px4io-v2/NuttX/nuttx-export/libs/libnuttx.a(c-lib_libvsprintf.o)
 .debug_aranges
                0x0000000000001258       0x28 /home/einar/px4_firmware/src/Firmware/build_px4fmu-v2_default/px4io-v2/NuttX/nuttx-export/libs/libnuttx.a(c-lib_lowoutstream.o)
 .debug_aranges
                0x0000000000001280       0x28 /home/einar/px4_firmware/src/Firmware/build_px4fmu-v2_default/px4io-v2/NuttX/nuttx-export/libs/libnuttx.a(c-lib_memoutstream.o)
 .debug_aranges
                0x00000000000012a8       0x28 /home/einar/px4_firmware/src/Firmware/build_px4fmu-v2_default/px4io-v2/NuttX/nuttx-export/libs/libnuttx.a(c-lib_nulloutstream.o)
 .debug_aranges
                0x00000000000012d0       0x28 /home/einar/px4_firmware/src/Firmware/build_px4fmu-v2_default/px4io-v2/NuttX/nuttx-export/libs/libnuttx.a(c-lib_rawoutstream.o)
 .debug_aranges
                0x00000000000012f8       0x20 /home/einar/px4_firmware/src/Firmware/build_px4fmu-v2_default/px4io-v2/NuttX/nuttx-export/libs/libnuttx.a(c-lib_skipspace.o)
 .debug_aranges
                0x0000000000001318       0x20 /home/einar/px4_firmware/src/Firmware/build_px4fmu-v2_default/px4io-v2/NuttX/nuttx-export/libs/libnuttx.a(c-lib_strcpy.o)
 .debug_aranges
                0x0000000000001338       0x20 /home/einar/px4_firmware/src/Firmware/build_px4fmu-v2_default/px4io-v2/NuttX/nuttx-export/libs/libnuttx.a(c-lib_strlen.o)
 .debug_aranges
                0x0000000000001358       0x20 /home/einar/px4_firmware/src/Firmware/build_px4fmu-v2_default/px4io-v2/NuttX/nuttx-export/libs/libnuttx.a(c-sem_init.o)
 .debug_aranges
                0x0000000000001378       0x20 /home/einar/px4_firmware/src/Firmware/build_px4fmu-v2_default/px4io-v2/NuttX/nuttx-export/libs/libnuttx.a(c-sq_remafter.o)
 .debug_aranges
                0x0000000000001398       0x20 /home/einar/px4_firmware/src/Firmware/build_px4fmu-v2_default/px4io-v2/NuttX/nuttx-export/libs/libnuttx.a(c-sq_remfirst.o)
 .debug_aranges
                0x00000000000013b8       0x20 /home/einar/px4_firmware/src/Firmware/build_px4fmu-v2_default/px4io-v2/NuttX/nuttx-export/libs/libnuttx.a(mm-mm_addfreechunk.o)
 .debug_aranges
                0x00000000000013d8       0x28 /home/einar/px4_firmware/src/Firmware/build_px4fmu-v2_default/px4io-v2/NuttX/nuttx-export/libs/libnuttx.a(mm-mm_initialize.o)
 .debug_aranges
                0x0000000000001400       0x20 /home/einar/px4_firmware/src/Firmware/build_px4fmu-v2_default/px4io-v2/NuttX/nuttx-export/libs/libnuttx.a(arch-stm32_allocateheap.o)
 .debug_aranges
                0x0000000000001420       0x20 /home/einar/px4_firmware/src/Firmware/build_px4fmu-v2_default/px4io-v2/NuttX/nuttx-export/libs/libnuttx.a(arch-stm32_idle.o)
 .debug_aranges
                0x0000000000001440       0x28 /home/einar/px4_firmware/src/Firmware/build_px4fmu-v2_default/px4io-v2/NuttX/nuttx-export/libs/libnuttx.a(arch-stm32_lowputc.o)
 .debug_aranges
                0x0000000000001468       0x20 /home/einar/px4_firmware/src/Firmware/build_px4fmu-v2_default/px4io-v2/NuttX/nuttx-export/libs/libnuttx.a(arch-stm32_rcc.o)
 .debug_aranges
                0x0000000000001488       0x20 /home/einar/px4_firmware/src/Firmware/build_px4fmu-v2_default/px4io-v2/NuttX/nuttx-export/libs/libnuttx.a(arch-up_blocktask.o)
 .debug_aranges
                0x00000000000014a8       0x20 /home/einar/px4_firmware/src/Firmware/build_px4fmu-v2_default/px4io-v2/NuttX/nuttx-export/libs/libnuttx.a(arch-up_copystate.o)
 .debug_aranges
                0x00000000000014c8       0x20 /home/einar/px4_firmware/src/Firmware/build_px4fmu-v2_default/px4io-v2/NuttX/nuttx-export/libs/libnuttx.a(arch-up_doirq.o)
 .debug_aranges
                0x00000000000014e8       0x20 /home/einar/px4_firmware/src/Firmware/build_px4fmu-v2_default/px4io-v2/NuttX/nuttx-export/libs/libnuttx.a(arch-up_exit.o)
 .debug_aranges
                0x0000000000001508       0x20 /home/einar/px4_firmware/src/Firmware/build_px4fmu-v2_default/px4io-v2/NuttX/nuttx-export/libs/libnuttx.a(arch-up_fullcontextrestore.o)
 .debug_aranges
                0x0000000000001528       0x20 /home/einar/px4_firmware/src/Firmware/build_px4fmu-v2_default/px4io-v2/NuttX/nuttx-export/libs/libnuttx.a(arch-up_initialize.o)
 .debug_aranges
                0x0000000000001548       0x20 /home/einar/px4_firmware/src/Firmware/build_px4fmu-v2_default/px4io-v2/NuttX/nuttx-export/libs/libnuttx.a(arch-up_initialstate.o)
 .debug_aranges
                0x0000000000001568       0x20 /home/einar/px4_firmware/src/Firmware/build_px4fmu-v2_default/px4io-v2/NuttX/nuttx-export/libs/libnuttx.a(arch-up_interruptcontext.o)
 .debug_aranges
                0x0000000000001588       0x20 /home/einar/px4_firmware/src/Firmware/build_px4fmu-v2_default/px4io-v2/NuttX/nuttx-export/libs/libnuttx.a(arch-up_mdelay.o)
 .debug_aranges
                0x00000000000015a8       0x20 /home/einar/px4_firmware/src/Firmware/build_px4fmu-v2_default/px4io-v2/NuttX/nuttx-export/libs/libnuttx.a(arch-up_switchcontext.o)
 .debug_aranges
                0x00000000000015c8       0x20 /home/einar/px4_firmware/src/Firmware/build_px4fmu-v2_default/px4io-v2/NuttX/nuttx-export/libs/libnuttx.a(arch-up_unblocktask.o)
 .debug_aranges
                0x00000000000015e8       0x60 /home/einar/px4_firmware/src/Firmware/build_px4fmu-v2_default/px4io-v2/NuttX/nuttx-export/libs/libnuttx.a(fs-fs_files.o)
 .debug_aranges
                0x0000000000001648       0x20 /home/einar/px4_firmware/src/Firmware/build_px4fmu-v2_default/px4io-v2/NuttX/nuttx-export/libs/libnuttx.a(fs-fs_inodeaddref.o)
 .debug_aranges
                0x0000000000001668       0x20 /home/einar/px4_firmware/src/Firmware/build_px4fmu-v2_default/px4io-v2/NuttX/nuttx-export/libs/libnuttx.a(fs-fs_inodefind.o)
 .debug_aranges
                0x0000000000001688       0x48 /home/einar/px4_firmware/src/Firmware/build_px4fmu-v2_default/px4io-v2/NuttX/nuttx-export/libs/libnuttx.a(fs-fs_inode.o)
 .debug_aranges
                0x00000000000016d0       0x20 /home/einar/px4_firmware/src/Firmware/build_px4fmu-v2_default/px4io-v2/NuttX/nuttx-export/libs/libnuttx.a(fs-fs_inoderelease.o)
 .debug_aranges
                0x00000000000016f0       0x20 /home/einar/px4_firmware/src/Firmware/build_px4fmu-v2_default/px4io-v2/NuttX/nuttx-export/libs/libnuttx.a(fs-fs_registerdriver.o)
 .debug_aranges
                0x0000000000001710       0x30 /home/einar/px4_firmware/src/Firmware/build_px4fmu-v2_default/px4io-v2/NuttX/nuttx-export/libs/libnuttx.a(drivers-dev_null.o)
 .debug_aranges
                0x0000000000001740       0x28 /home/einar/px4_firmware/src/Firmware/build_px4fmu-v2_default/px4io-v2/NuttX/nuttx-export/libs/libnuttx.a(sched-group_create.o)
 .debug_aranges
                0x0000000000001768       0x20 /home/einar/px4_firmware/src/Firmware/build_px4fmu-v2_default/px4io-v2/NuttX/nuttx-export/libs/libnuttx.a(sched-group_leave.o)
 .debug_aranges
                0x0000000000001788       0x20 /home/einar/px4_firmware/src/Firmware/build_px4fmu-v2_default/px4io-v2/NuttX/nuttx-export/libs/libnuttx.a(sched-group_setupidlefiles.o)
 .debug_aranges
                0x00000000000017a8       0x20 /home/einar/px4_firmware/src/Firmware/build_px4fmu-v2_default/px4io-v2/NuttX/nuttx-export/libs/libnuttx.a(sched-irq_dispatch.o)
 .debug_aranges
                0x00000000000017c8       0x20 /home/einar/px4_firmware/src/Firmware/build_px4fmu-v2_default/px4io-v2/NuttX/nuttx-export/libs/libnuttx.a(sched-os_bringup.o)
 .debug_aranges
                0x00000000000017e8       0x20 /home/einar/px4_firmware/src/Firmware/build_px4fmu-v2_default/px4io-v2/NuttX/nuttx-export/libs/libnuttx.a(sched-sched_addblocked.o)
 .debug_aranges
                0x0000000000001808       0x20 /home/einar/px4_firmware/src/Firmware/build_px4fmu-v2_default/px4io-v2/NuttX/nuttx-export/libs/libnuttx.a(sched-sched_addprioritized.o)
 .debug_aranges
                0x0000000000001828       0x20 /home/einar/px4_firmware/src/Firmware/build_px4fmu-v2_default/px4io-v2/NuttX/nuttx-export/libs/libnuttx.a(sched-sched_addreadytorun.o)
 .debug_aranges
                0x0000000000001848       0x20 /home/einar/px4_firmware/src/Firmware/build_px4fmu-v2_default/px4io-v2/NuttX/nuttx-export/libs/libnuttx.a(sched-sched_free.o)
 .debug_aranges
                0x0000000000001868       0x20 /home/einar/px4_firmware/src/Firmware/build_px4fmu-v2_default/px4io-v2/NuttX/nuttx-export/libs/libnuttx.a(sched-sched_mergepending.o)
 .debug_aranges
                0x0000000000001888       0x20 /home/einar/px4_firmware/src/Firmware/build_px4fmu-v2_default/px4io-v2/NuttX/nuttx-export/libs/libnuttx.a(sched-sched_removeblocked.o)
 .debug_aranges
                0x00000000000018a8       0x20 /home/einar/px4_firmware/src/Firmware/build_px4fmu-v2_default/px4io-v2/NuttX/nuttx-export/libs/libnuttx.a(sched-sched_removereadytorun.o)
 .debug_aranges
                0x00000000000018c8       0x20 /home/einar/px4_firmware/src/Firmware/build_px4fmu-v2_default/px4io-v2/NuttX/nuttx-export/libs/libnuttx.a(sched-sem_destroy.o)
 .debug_aranges
                0x00000000000018e8       0x30 /home/einar/px4_firmware/src/Firmware/build_px4fmu-v2_default/px4io-v2/NuttX/nuttx-export/libs/libnuttx.a(sched-task_create.o)
 .debug_aranges
                0x0000000000001918       0x20 /home/einar/px4_firmware/src/Firmware/build_px4fmu-v2_default/px4io-v2/NuttX/nuttx-export/libs/libnuttx.a(sched-task_exit.o)
 .debug_aranges
                0x0000000000001938       0x28 /home/einar/px4_firmware/src/Firmware/build_px4fmu-v2_default/px4io-v2/NuttX/nuttx-export/libs/libnuttx.a(sched-task_setup.o)
 .debug_aranges
                0x0000000000001960       0x20 /home/einar/px4_firmware/src/Firmware/build_px4fmu-v2_default/px4io-v2/NuttX/nuttx-export/libs/libnuttx.a(sched-task_start.o)
 .debug_aranges
                0x0000000000001980       0x20 /home/einar/px4_firmware/src/Firmware/build_px4fmu-v2_default/px4io-v2/NuttX/nuttx-export/libs/libnuttx.a(sched-task_terminate.o)
 .debug_aranges
                0x00000000000019a0       0x20 /home/einar/px4_firmware/src/Firmware/build_px4fmu-v2_default/px4io-v2/NuttX/nuttx-export/libs/libnuttx.a(c-dq_addlast.o)
 .debug_aranges
                0x00000000000019c0       0x20 /home/einar/px4_firmware/src/Firmware/build_px4fmu-v2_default/px4io-v2/NuttX/nuttx-export/libs/libnuttx.a(c-dq_rem.o)
 .debug_aranges
                0x00000000000019e0       0x20 /home/einar/px4_firmware/src/Firmware/build_px4fmu-v2_default/px4io-v2/NuttX/nuttx-export/libs/libnuttx.a(c-lib_strdup.o)
 .debug_aranges
                0x0000000000001a00       0x28 /home/einar/px4_firmware/src/Firmware/build_px4fmu-v2_default/px4io-v2/NuttX/nuttx-export/libs/libnuttx.a(arch-stm32_timerisr.o)
 .debug_aranges
                0x0000000000001a28       0x20 /home/einar/px4_firmware/src/Firmware/build_px4fmu-v2_default/px4io-v2/NuttX/nuttx-export/libs/libnuttx.a(arch-up_createstack.o)
 .debug_aranges
                0x0000000000001a48       0x20 /home/einar/px4_firmware/src/Firmware/build_px4fmu-v2_default/px4io-v2/NuttX/nuttx-export/libs/libnuttx.a(arch-up_releasestack.o)
 .debug_aranges
                0x0000000000001a68       0x20 /home/einar/px4_firmware/src/Firmware/build_px4fmu-v2_default/px4io-v2/NuttX/nuttx-export/libs/libnuttx.a(fs-fs_close.o)
 .debug_aranges
                0x0000000000001a88       0x20 /home/einar/px4_firmware/src/Firmware/build_px4fmu-v2_default/px4io-v2/NuttX/nuttx-export/libs/libnuttx.a(fs-fs_filedup2.o)
 .debug_aranges
                0x0000000000001aa8       0x28 /home/einar/px4_firmware/src/Firmware/build_px4fmu-v2_default/px4io-v2/NuttX/nuttx-export/libs/libnuttx.a(fs-fs_inodereserve.o)
 .debug_aranges
                0x0000000000001ad0       0x20 /home/einar/px4_firmware/src/Firmware/build_px4fmu-v2_default/px4io-v2/NuttX/nuttx-export/libs/libnuttx.a(sched-group_setuptaskfiles.o)
 .debug_aranges
                0x0000000000001af0       0x20 /home/einar/px4_firmware/src/Firmware/build_px4fmu-v2_default/px4io-v2/NuttX/nuttx-export/libs/libnuttx.a(sched-sched_gettcb.o)
 .debug_aranges
                0x0000000000001b10       0x20 /home/einar/px4_firmware/src/Firmware/build_px4fmu-v2_default/px4io-v2/NuttX/nuttx-export/libs/libnuttx.a(sched-sched_lock.o)
 .debug_aranges
                0x0000000000001b30       0x20 /home/einar/px4_firmware/src/Firmware/build_px4fmu-v2_default/px4io-v2/NuttX/nuttx-export/libs/libnuttx.a(sched-sched_processtimer.o)
 .debug_aranges
                0x0000000000001b50       0x20 /home/einar/px4_firmware/src/Firmware/build_px4fmu-v2_default/px4io-v2/NuttX/nuttx-export/libs/libnuttx.a(sched-sched_releasetcb.o)
 .debug_aranges
                0x0000000000001b70       0x20 /home/einar/px4_firmware/src/Firmware/build_px4fmu-v2_default/px4io-v2/NuttX/nuttx-export/libs/libnuttx.a(sched-sched_unlock.o)
 .debug_aranges
                0x0000000000001b90       0x20 /home/einar/px4_firmware/src/Firmware/build_px4fmu-v2_default/px4io-v2/NuttX/nuttx-export/libs/libnuttx.a(sched-task_activate.o)
 .debug_aranges
                0x0000000000001bb0       0x20 /home/einar/px4_firmware/src/Firmware/build_px4fmu-v2_default/px4io-v2/NuttX/nuttx-export/libs/libnuttx.a(arch-up_releasepending.o)
OUTPUT(px4io-v2 elf32-littlearm)

.debug_loc      0x0000000000000000    0x10209
 .debug_loc     0x0000000000000000       0x4e CMakeFiles/px4io-v2.dir/adc.c.obj
 .debug_loc     0x000000000000004e      0x626 CMakeFiles/px4io-v2.dir/controls.c.obj
 .debug_loc     0x0000000000000674      0x79a CMakeFiles/px4io-v2.dir/dsm.c.obj
 .debug_loc     0x0000000000000e0e      0x322 CMakeFiles/px4io-v2.dir/px4io.c.obj
 .debug_loc     0x0000000000001130     0x14c5 CMakeFiles/px4io-v2.dir/registers.c.obj
 .debug_loc     0x00000000000025f5       0x9b CMakeFiles/px4io-v2.dir/safety.c.obj
 .debug_loc     0x0000000000002690      0x47e CMakeFiles/px4io-v2.dir/sbus.c.obj
 .debug_loc     0x0000000000002b0e       0x49 CMakeFiles/px4io-v2.dir/__/systemlib/up_cxxinitialize.c.obj
 .debug_loc     0x0000000000002b57      0x782 CMakeFiles/px4io-v2.dir/__/systemlib/perf_counter.c.obj
 .debug_loc     0x00000000000032d9      0x4b8 CMakeFiles/px4io-v2.dir/mixer.cpp.obj
 .debug_loc     0x0000000000003791      0x37e CMakeFiles/px4io-v2.dir/__/systemlib/mixer/mixer.cpp.obj
 .debug_loc     0x0000000000003b0f      0x538 CMakeFiles/px4io-v2.dir/__/systemlib/mixer/mixer_group.cpp.obj
 .debug_loc     0x0000000000004047      0xd22 CMakeFiles/px4io-v2.dir/__/systemlib/mixer/mixer_multirotor.cpp.obj
 .debug_loc     0x0000000000004d69      0x846 CMakeFiles/px4io-v2.dir/__/systemlib/mixer/mixer_simple.cpp.obj
 .debug_loc     0x00000000000055af      0x465 CMakeFiles/px4io-v2.dir/__/systemlib/pwm_limit/pwm_limit.c.obj
 .debug_loc     0x0000000000005a14      0x4e8 CMakeFiles/px4io-v2.dir/__/__/lib/rc/st24.c.obj
 .debug_loc     0x0000000000005efc      0x782 CMakeFiles/px4io-v2.dir/__/__/lib/rc/sumd.c.obj
 .debug_loc     0x000000000000667e      0x9cf CMakeFiles/px4io-v2.dir/__/__/drivers/stm32/drv_hrt.c.obj
 .debug_loc     0x000000000000704d      0x34b CMakeFiles/px4io-v2.dir/__/__/drivers/stm32/drv_pwm_servo.c.obj
 .debug_loc     0x0000000000007398      0x35f CMakeFiles/px4io-v2.dir/serial.c.obj
 .debug_loc     0x00000000000076f7      0x393 CMakeFiles/px4io-v2.dir/__/systemlib/hx_stream.c.obj
 .debug_loc     0x0000000000007a8a       0xcd /home/einar/px4_firmware/src/Firmware/build_px4fmu-v2_default/px4io-v2/NuttX/nuttx-export/libs/libnuttx.a(sched-irq_attach.o)
 .debug_loc     0x0000000000007b57       0x1f /home/einar/px4_firmware/src/Firmware/build_px4fmu-v2_default/px4io-v2/NuttX/nuttx-export/libs/libnuttx.a(sched-irq_initialize.o)
 .debug_loc     0x0000000000007b76       0x42 /home/einar/px4_firmware/src/Firmware/build_px4fmu-v2_default/px4io-v2/NuttX/nuttx-export/libs/libnuttx.a(sched-irq_unexpectedisr.o)
 .debug_loc     0x0000000000007bb8       0x21 /home/einar/px4_firmware/src/Firmware/build_px4fmu-v2_default/px4io-v2/NuttX/nuttx-export/libs/libnuttx.a(c-lib_cfsetspeed.o)
 .debug_loc     0x0000000000007bd9       0xea /home/einar/px4_firmware/src/Firmware/build_px4fmu-v2_default/px4io-v2/NuttX/nuttx-export/libs/libnuttx.a(c-lib_crc32.o)
 .debug_loc     0x0000000000007cc3       0x21 /home/einar/px4_firmware/src/Firmware/build_px4fmu-v2_default/px4io-v2/NuttX/nuttx-export/libs/libnuttx.a(c-lib_dprintf.o)
 .debug_loc     0x0000000000007ce4       0x47 /home/einar/px4_firmware/src/Firmware/build_px4fmu-v2_default/px4io-v2/NuttX/nuttx-export/libs/libnuttx.a(c-lib_lowsyslog.o)
 .debug_loc     0x0000000000007d2b       0x89 /home/einar/px4_firmware/src/Firmware/build_px4fmu-v2_default/px4io-v2/NuttX/nuttx-export/libs/libnuttx.a(c-lib_memchr.o)
 .debug_loc     0x0000000000007db4       0x87 /home/einar/px4_firmware/src/Firmware/build_px4fmu-v2_default/px4io-v2/NuttX/nuttx-export/libs/libnuttx.a(c-lib_memcpy.o)
 .debug_loc     0x0000000000007e3b       0x49 /home/einar/px4_firmware/src/Firmware/build_px4fmu-v2_default/px4io-v2/NuttX/nuttx-export/libs/libnuttx.a(c-lib_memset.o)
 .debug_loc     0x0000000000007e84      0x54c /home/einar/px4_firmware/src/Firmware/build_px4fmu-v2_default/px4io-v2/NuttX/nuttx-export/libs/libnuttx.a(c-lib_sscanf.o)
 .debug_loc     0x00000000000083d0       0x21 /home/einar/px4_firmware/src/Firmware/build_px4fmu-v2_default/px4io-v2/NuttX/nuttx-export/libs/libnuttx.a(c-lib_strchr.o)
 .debug_loc     0x00000000000083f1       0x8b /home/einar/px4_firmware/src/Firmware/build_px4fmu-v2_default/px4io-v2/NuttX/nuttx-export/libs/libnuttx.a(c-lib_strcmp.o)
 .debug_loc     0x000000000000847c       0x5b /home/einar/px4_firmware/src/Firmware/build_px4fmu-v2_default/px4io-v2/NuttX/nuttx-export/libs/libnuttx.a(c-lib_strcspn.o)
 .debug_loc     0x00000000000084d7       0x9a /home/einar/px4_firmware/src/Firmware/build_px4fmu-v2_default/px4io-v2/NuttX/nuttx-export/libs/libnuttx.a(c-lib_strncpy.o)
 .debug_loc     0x0000000000008571       0xb2 /home/einar/px4_firmware/src/Firmware/build_px4fmu-v2_default/px4io-v2/NuttX/nuttx-export/libs/libnuttx.a(c-lib_strtol.o)
 .debug_loc     0x0000000000008623      0x103 /home/einar/px4_firmware/src/Firmware/build_px4fmu-v2_default/px4io-v2/NuttX/nuttx-export/libs/libnuttx.a(c-lib_strtoul.o)
 .debug_loc     0x0000000000008726       0x3c /home/einar/px4_firmware/src/Firmware/build_px4fmu-v2_default/px4io-v2/NuttX/nuttx-export/libs/libnuttx.a(c-lib_syslog.o)
 .debug_loc     0x0000000000008762       0x4d /home/einar/px4_firmware/src/Firmware/build_px4fmu-v2_default/px4io-v2/NuttX/nuttx-export/libs/libnuttx.a(c-lib_tcgetattr.o)
 .debug_loc     0x00000000000087af       0x92 /home/einar/px4_firmware/src/Firmware/build_px4fmu-v2_default/px4io-v2/NuttX/nuttx-export/libs/libnuttx.a(c-lib_tcsetattr.o)
 .debug_loc     0x0000000000008841       0x68 /home/einar/px4_firmware/src/Firmware/build_px4fmu-v2_default/px4io-v2/NuttX/nuttx-export/libs/libnuttx.a(c-lib_vdprintf.o)
 .debug_loc     0x00000000000088a9       0x78 /home/einar/px4_firmware/src/Firmware/build_px4fmu-v2_default/px4io-v2/NuttX/nuttx-export/libs/libnuttx.a(c-lib_vsnprintf.o)
 .debug_loc     0x0000000000008921       0xa8 /home/einar/px4_firmware/src/Firmware/build_px4fmu-v2_default/px4io-v2/NuttX/nuttx-export/libs/libnuttx.a(c-sq_addafter.o)
 .debug_loc     0x00000000000089c9       0x76 /home/einar/px4_firmware/src/Firmware/build_px4fmu-v2_default/px4io-v2/NuttX/nuttx-export/libs/libnuttx.a(c-sq_rem.o)
 .debug_loc     0x0000000000008a3f       0x7a /home/einar/px4_firmware/src/Firmware/build_px4fmu-v2_default/px4io-v2/NuttX/nuttx-export/libs/libnuttx.a(mm-mm_calloc.o)
 .debug_loc     0x0000000000008ab9       0xc1 /home/einar/px4_firmware/src/Firmware/build_px4fmu-v2_default/px4io-v2/NuttX/nuttx-export/libs/libnuttx.a(mm-mm_free.o)
 .debug_loc     0x0000000000008b7a      0x138 /home/einar/px4_firmware/src/Firmware/build_px4fmu-v2_default/px4io-v2/NuttX/nuttx-export/libs/libnuttx.a(mm-mm_mallinfo.o)
 .debug_loc     0x0000000000008cb2      0x162 /home/einar/px4_firmware/src/Firmware/build_px4fmu-v2_default/px4io-v2/NuttX/nuttx-export/libs/libnuttx.a(mm-mm_malloc.o)
 .debug_loc     0x0000000000008e14       0xba /home/einar/px4_firmware/src/Firmware/build_px4fmu-v2_default/px4io-v2/NuttX/nuttx-export/libs/libnuttx.a(mm-mm_sem.o)
 .debug_loc     0x0000000000008ece       0x62 /home/einar/px4_firmware/src/Firmware/build_px4fmu-v2_default/px4io-v2/NuttX/nuttx-export/libs/libnuttx.a(mm-mm_size2ndx.o)
 .debug_loc     0x0000000000008f30       0xb0 /home/einar/px4_firmware/src/Firmware/build_px4fmu-v2_default/px4io-v2/NuttX/nuttx-export/libs/libnuttx.a(mm-mm_user.o)
 .debug_loc     0x0000000000008fe0       0x3c /home/einar/px4_firmware/src/Firmware/build_px4fmu-v2_default/px4io-v2/NuttX/nuttx-export/libs/libnuttx.a(mm-mm_zalloc.o)
 .debug_loc     0x000000000000901c      0x54e /home/einar/px4_firmware/src/Firmware/build_px4fmu-v2_default/px4io-v2/NuttX/nuttx-export/libs/libnuttx.a(arch-stm32_dma.o)
 .debug_loc     0x000000000000956a      0x3fe /home/einar/px4_firmware/src/Firmware/build_px4fmu-v2_default/px4io-v2/NuttX/nuttx-export/libs/libnuttx.a(arch-stm32_gpio.o)
 .debug_loc     0x0000000000009968      0x1c8 /home/einar/px4_firmware/src/Firmware/build_px4fmu-v2_default/px4io-v2/NuttX/nuttx-export/libs/libnuttx.a(arch-stm32_irq.o)
 .debug_loc     0x0000000000009b30      0xc91 /home/einar/px4_firmware/src/Firmware/build_px4fmu-v2_default/px4io-v2/NuttX/nuttx-export/libs/libnuttx.a(arch-stm32_serial.o)
 .debug_loc     0x000000000000a7c1       0x43 /home/einar/px4_firmware/src/Firmware/build_px4fmu-v2_default/px4io-v2/NuttX/nuttx-export/libs/libnuttx.a(arch-stm32_start.o)
 .debug_loc     0x000000000000a804      0x18f /home/einar/px4_firmware/src/Firmware/build_px4fmu-v2_default/px4io-v2/NuttX/nuttx-export/libs/libnuttx.a(arch-up_assert.o)
 .debug_loc     0x000000000000a993       0xa6 /home/einar/px4_firmware/src/Firmware/build_px4fmu-v2_default/px4io-v2/NuttX/nuttx-export/libs/libnuttx.a(arch-up_hardfault.o)
 .debug_loc     0x000000000000aa39       0x6b /home/einar/px4_firmware/src/Firmware/build_px4fmu-v2_default/px4io-v2/NuttX/nuttx-export/libs/libnuttx.a(arch-up_modifyreg32.o)
 .debug_loc     0x000000000000aaa4       0xd5 /home/einar/px4_firmware/src/Firmware/build_px4fmu-v2_default/px4io-v2/NuttX/nuttx-export/libs/libnuttx.a(arch-up_svcall.o)
 .debug_loc     0x000000000000ab79       0x1e /home/einar/px4_firmware/src/Firmware/build_px4fmu-v2_default/px4io-v2/NuttX/nuttx-export/libs/libnuttx.a(arch-up_systemreset.o)
 .debug_loc     0x000000000000ab97       0x1e /home/einar/px4_firmware/src/Firmware/build_px4fmu-v2_default/px4io-v2/NuttX/nuttx-export/libs/libnuttx.a(arch-up_udelay.o)
 .debug_loc     0x000000000000abb5       0x21 /home/einar/px4_firmware/src/Firmware/build_px4fmu-v2_default/px4io-v2/NuttX/nuttx-export/libs/libnuttx.a(cxx-libxx_cxa_atexit.o)
 .debug_loc     0x000000000000abd6       0x21 /home/einar/px4_firmware/src/Firmware/build_px4fmu-v2_default/px4io-v2/NuttX/nuttx-export/libs/libnuttx.a(cxx-libxx_delete.o)
 .debug_loc     0x000000000000abf7       0x79 /home/einar/px4_firmware/src/Firmware/build_px4fmu-v2_default/px4io-v2/NuttX/nuttx-export/libs/libnuttx.a(cxx-libxx_eabi_atexit.o)
 .debug_loc     0x000000000000ac70       0x4e /home/einar/px4_firmware/src/Firmware/build_px4fmu-v2_default/px4io-v2/NuttX/nuttx-export/libs/libnuttx.a(cxx-libxx_new.o)
 .debug_loc     0x000000000000acbe      0x187 /home/einar/px4_firmware/src/Firmware/build_px4fmu-v2_default/px4io-v2/NuttX/nuttx-export/libs/libnuttx.a(fs-fs_ioctl.o)
 .debug_loc     0x000000000000ae45      0x1df /home/einar/px4_firmware/src/Firmware/build_px4fmu-v2_default/px4io-v2/NuttX/nuttx-export/libs/libnuttx.a(fs-fs_open.o)
 .debug_loc     0x000000000000b024      0x2a4 /home/einar/px4_firmware/src/Firmware/build_px4fmu-v2_default/px4io-v2/NuttX/nuttx-export/libs/libnuttx.a(fs-fs_read.o)
 .debug_loc     0x000000000000b2c8      0x202 /home/einar/px4_firmware/src/Firmware/build_px4fmu-v2_default/px4io-v2/NuttX/nuttx-export/libs/libnuttx.a(fs-fs_write.o)
 .debug_loc     0x000000000000b4ca      0x10e /home/einar/px4_firmware/src/Firmware/build_px4fmu-v2_default/px4io-v2/NuttX/nuttx-export/libs/libnuttx.a(drivers-serialirq.o)
 .debug_loc     0x000000000000b5d8      0x876 /home/einar/px4_firmware/src/Firmware/build_px4fmu-v2_default/px4io-v2/NuttX/nuttx-export/libs/libnuttx.a(drivers-serial.o)
 .debug_loc     0x000000000000be4e       0x20 /home/einar/px4_firmware/src/Firmware/build_px4fmu-v2_default/px4io-v2/NuttX/nuttx-export/libs/libnuttx.a(sched-errno_getptr.o)
 .debug_loc     0x000000000000be6e       0x31 /home/einar/px4_firmware/src/Firmware/build_px4fmu-v2_default/px4io-v2/NuttX/nuttx-export/libs/libnuttx.a(sched-exit.o)
 .debug_loc     0x000000000000be9f       0x38 /home/einar/px4_firmware/src/Firmware/build_px4fmu-v2_default/px4io-v2/NuttX/nuttx-export/libs/libnuttx.a(sched-os_start.o)
 .debug_loc     0x000000000000bed7       0x39 /home/einar/px4_firmware/src/Firmware/build_px4fmu-v2_default/px4io-v2/NuttX/nuttx-export/libs/libnuttx.a(sched-sched_garbage.o)
 .debug_loc     0x000000000000bf10       0x1f /home/einar/px4_firmware/src/Firmware/build_px4fmu-v2_default/px4io-v2/NuttX/nuttx-export/libs/libnuttx.a(sched-sched_getfiles.o)
 .debug_loc     0x000000000000bf2f       0xdd /home/einar/px4_firmware/src/Firmware/build_px4fmu-v2_default/px4io-v2/NuttX/nuttx-export/libs/libnuttx.a(sched-sem_post.o)
 .debug_loc     0x000000000000c00c       0x9d /home/einar/px4_firmware/src/Firmware/build_px4fmu-v2_default/px4io-v2/NuttX/nuttx-export/libs/libnuttx.a(sched-sem_trywait.o)
 .debug_loc     0x000000000000c0a9       0xb6 /home/einar/px4_firmware/src/Firmware/build_px4fmu-v2_default/px4io-v2/NuttX/nuttx-export/libs/libnuttx.a(sched-sem_wait.o)
 .debug_loc     0x000000000000c15f       0x60 /home/einar/px4_firmware/src/Firmware/build_px4fmu-v2_default/px4io-v2/NuttX/nuttx-export/libs/libnuttx.a(sched-task_exithook.o)
 .debug_loc     0x000000000000c1bf       0x1e /home/einar/px4_firmware/src/Firmware/build_px4fmu-v2_default/px4io-v2/NuttX/nuttx-export/libs/libnuttx.a(sched-task_recover.o)
 .debug_loc     0x000000000000c1dd       0xfe /home/einar/px4_firmware/src/Firmware/build_px4fmu-v2_default/px4io-v2/NuttX/nuttx-export/libs/libnuttx.a(sched-wd_cancel.o)
 .debug_loc     0x000000000000c2db       0x68 /home/einar/px4_firmware/src/Firmware/build_px4fmu-v2_default/px4io-v2/NuttX/nuttx-export/libs/libnuttx.a(sched-wd_delete.o)
 .debug_loc     0x000000000000c343       0x1e /home/einar/px4_firmware/src/Firmware/build_px4fmu-v2_default/px4io-v2/NuttX/nuttx-export/libs/libnuttx.a(sched-wd_initialize.o)
 .debug_loc     0x000000000000c361       0x21 /home/einar/px4_firmware/src/Firmware/build_px4fmu-v2_default/px4io-v2/NuttX/nuttx-export/libs/libnuttx.a(c-lib_cfgetspeed.o)
 .debug_loc     0x000000000000c382       0xd8 /home/einar/px4_firmware/src/Firmware/build_px4fmu-v2_default/px4io-v2/NuttX/nuttx-export/libs/libnuttx.a(c-lib_checkbase.o)
 .debug_loc     0x000000000000c45a      0x159 /home/einar/px4_firmware/src/Firmware/build_px4fmu-v2_default/px4io-v2/NuttX/nuttx-export/libs/libnuttx.a(c-lib_isbasedigit.o)
 .debug_loc     0x000000000000c5b3     0x12e6 /home/einar/px4_firmware/src/Firmware/build_px4fmu-v2_default/px4io-v2/NuttX/nuttx-export/libs/libnuttx.a(c-lib_libvsprintf.o)
 .debug_loc     0x000000000000d899       0x3f /home/einar/px4_firmware/src/Firmware/build_px4fmu-v2_default/px4io-v2/NuttX/nuttx-export/libs/libnuttx.a(c-lib_lowoutstream.o)
 .debug_loc     0x000000000000d8d8       0x41 /home/einar/px4_firmware/src/Firmware/build_px4fmu-v2_default/px4io-v2/NuttX/nuttx-export/libs/libnuttx.a(c-lib_memoutstream.o)
 .debug_loc     0x000000000000d919       0x70 /home/einar/px4_firmware/src/Firmware/build_px4fmu-v2_default/px4io-v2/NuttX/nuttx-export/libs/libnuttx.a(c-lib_rawoutstream.o)
 .debug_loc     0x000000000000d989       0x1f /home/einar/px4_firmware/src/Firmware/build_px4fmu-v2_default/px4io-v2/NuttX/nuttx-export/libs/libnuttx.a(c-lib_skipspace.o)
 .debug_loc     0x000000000000d9a8       0x3e /home/einar/px4_firmware/src/Firmware/build_px4fmu-v2_default/px4io-v2/NuttX/nuttx-export/libs/libnuttx.a(c-lib_strcpy.o)
 .debug_loc     0x000000000000d9e6       0x3f /home/einar/px4_firmware/src/Firmware/build_px4fmu-v2_default/px4io-v2/NuttX/nuttx-export/libs/libnuttx.a(c-lib_strlen.o)
 .debug_loc     0x000000000000da25       0x7c /home/einar/px4_firmware/src/Firmware/build_px4fmu-v2_default/px4io-v2/NuttX/nuttx-export/libs/libnuttx.a(c-sem_init.o)
 .debug_loc     0x000000000000daa1       0x42 /home/einar/px4_firmware/src/Firmware/build_px4fmu-v2_default/px4io-v2/NuttX/nuttx-export/libs/libnuttx.a(c-sq_remafter.o)
 .debug_loc     0x000000000000dae3       0x21 /home/einar/px4_firmware/src/Firmware/build_px4fmu-v2_default/px4io-v2/NuttX/nuttx-export/libs/libnuttx.a(c-sq_remfirst.o)
 .debug_loc     0x000000000000db04       0x97 /home/einar/px4_firmware/src/Firmware/build_px4fmu-v2_default/px4io-v2/NuttX/nuttx-export/libs/libnuttx.a(mm-mm_addfreechunk.o)
 .debug_loc     0x000000000000db9b      0x230 /home/einar/px4_firmware/src/Firmware/build_px4fmu-v2_default/px4io-v2/NuttX/nuttx-export/libs/libnuttx.a(mm-mm_initialize.o)
 .debug_loc     0x000000000000ddcb       0x89 /home/einar/px4_firmware/src/Firmware/build_px4fmu-v2_default/px4io-v2/NuttX/nuttx-export/libs/libnuttx.a(arch-stm32_lowputc.o)
 .debug_loc     0x000000000000de54       0xea /home/einar/px4_firmware/src/Firmware/build_px4fmu-v2_default/px4io-v2/NuttX/nuttx-export/libs/libnuttx.a(arch-stm32_rcc.o)
 .debug_loc     0x000000000000df3e      0x121 /home/einar/px4_firmware/src/Firmware/build_px4fmu-v2_default/px4io-v2/NuttX/nuttx-export/libs/libnuttx.a(arch-up_blocktask.o)
 .debug_loc     0x000000000000e05f       0x81 /home/einar/px4_firmware/src/Firmware/build_px4fmu-v2_default/px4io-v2/NuttX/nuttx-export/libs/libnuttx.a(arch-up_copystate.o)
 .debug_loc     0x000000000000e0e0       0x68 /home/einar/px4_firmware/src/Firmware/build_px4fmu-v2_default/px4io-v2/NuttX/nuttx-export/libs/libnuttx.a(arch-up_doirq.o)
 .debug_loc     0x000000000000e148       0x41 /home/einar/px4_firmware/src/Firmware/build_px4fmu-v2_default/px4io-v2/NuttX/nuttx-export/libs/libnuttx.a(arch-up_exit.o)
 .debug_loc     0x000000000000e189       0x4b /home/einar/px4_firmware/src/Firmware/build_px4fmu-v2_default/px4io-v2/NuttX/nuttx-export/libs/libnuttx.a(arch-up_initialstate.o)
 .debug_loc     0x000000000000e1d4       0xc9 /home/einar/px4_firmware/src/Firmware/build_px4fmu-v2_default/px4io-v2/NuttX/nuttx-export/libs/libnuttx.a(arch-up_unblocktask.o)
 .debug_loc     0x000000000000e29d      0x3f6 /home/einar/px4_firmware/src/Firmware/build_px4fmu-v2_default/px4io-v2/NuttX/nuttx-export/libs/libnuttx.a(fs-fs_files.o)
 .debug_loc     0x000000000000e693       0x37 /home/einar/px4_firmware/src/Firmware/build_px4fmu-v2_default/px4io-v2/NuttX/nuttx-export/libs/libnuttx.a(fs-fs_inodeaddref.o)
 .debug_loc     0x000000000000e6ca       0xb1 /home/einar/px4_firmware/src/Firmware/build_px4fmu-v2_default/px4io-v2/NuttX/nuttx-export/libs/libnuttx.a(fs-fs_inodefind.o)
 .debug_loc     0x000000000000e77b      0x28c /home/einar/px4_firmware/src/Firmware/build_px4fmu-v2_default/px4io-v2/NuttX/nuttx-export/libs/libnuttx.a(fs-fs_inode.o)
 .debug_loc     0x000000000000ea07       0x5b /home/einar/px4_firmware/src/Firmware/build_px4fmu-v2_default/px4io-v2/NuttX/nuttx-export/libs/libnuttx.a(fs-fs_inoderelease.o)
 .debug_loc     0x000000000000ea62       0xa7 /home/einar/px4_firmware/src/Firmware/build_px4fmu-v2_default/px4io-v2/NuttX/nuttx-export/libs/libnuttx.a(fs-fs_registerdriver.o)
 .debug_loc     0x000000000000eb09       0x42 /home/einar/px4_firmware/src/Firmware/build_px4fmu-v2_default/px4io-v2/NuttX/nuttx-export/libs/libnuttx.a(drivers-dev_null.o)
 .debug_loc     0x000000000000eb4b       0x7d /home/einar/px4_firmware/src/Firmware/build_px4fmu-v2_default/px4io-v2/NuttX/nuttx-export/libs/libnuttx.a(sched-group_create.o)
 .debug_loc     0x000000000000ebc8       0x31 /home/einar/px4_firmware/src/Firmware/build_px4fmu-v2_default/px4io-v2/NuttX/nuttx-export/libs/libnuttx.a(sched-group_leave.o)
 .debug_loc     0x000000000000ebf9       0x78 /home/einar/px4_firmware/src/Firmware/build_px4fmu-v2_default/px4io-v2/NuttX/nuttx-export/libs/libnuttx.a(sched-group_setupidlefiles.o)
 .debug_loc     0x000000000000ec71       0x55 /home/einar/px4_firmware/src/Firmware/build_px4fmu-v2_default/px4io-v2/NuttX/nuttx-export/libs/libnuttx.a(sched-irq_dispatch.o)
 .debug_loc     0x000000000000ecc6       0x1e /home/einar/px4_firmware/src/Firmware/build_px4fmu-v2_default/px4io-v2/NuttX/nuttx-export/libs/libnuttx.a(sched-os_bringup.o)
 .debug_loc     0x000000000000ece4       0x92 /home/einar/px4_firmware/src/Firmware/build_px4fmu-v2_default/px4io-v2/NuttX/nuttx-export/libs/libnuttx.a(sched-sched_addblocked.o)
 .debug_loc     0x000000000000ed76      0x145 /home/einar/px4_firmware/src/Firmware/build_px4fmu-v2_default/px4io-v2/NuttX/nuttx-export/libs/libnuttx.a(sched-sched_addprioritized.o)
 .debug_loc     0x000000000000eebb       0x80 /home/einar/px4_firmware/src/Firmware/build_px4fmu-v2_default/px4io-v2/NuttX/nuttx-export/libs/libnuttx.a(sched-sched_addreadytorun.o)
 .debug_loc     0x000000000000ef3b       0x52 /home/einar/px4_firmware/src/Firmware/build_px4fmu-v2_default/px4io-v2/NuttX/nuttx-export/libs/libnuttx.a(sched-sched_free.o)
 .debug_loc     0x000000000000ef8d       0xc5 /home/einar/px4_firmware/src/Firmware/build_px4fmu-v2_default/px4io-v2/NuttX/nuttx-export/libs/libnuttx.a(sched-sched_mergepending.o)
 .debug_loc     0x000000000000f052       0x60 /home/einar/px4_firmware/src/Firmware/build_px4fmu-v2_default/px4io-v2/NuttX/nuttx-export/libs/libnuttx.a(sched-sched_removeblocked.o)
 .debug_loc     0x000000000000f0b2       0x79 /home/einar/px4_firmware/src/Firmware/build_px4fmu-v2_default/px4io-v2/NuttX/nuttx-export/libs/libnuttx.a(sched-sched_removereadytorun.o)
 .debug_loc     0x000000000000f12b       0x3a /home/einar/px4_firmware/src/Firmware/build_px4fmu-v2_default/px4io-v2/NuttX/nuttx-export/libs/libnuttx.a(sched-sem_destroy.o)
 .debug_loc     0x000000000000f165      0x306 /home/einar/px4_firmware/src/Firmware/build_px4fmu-v2_default/px4io-v2/NuttX/nuttx-export/libs/libnuttx.a(sched-task_create.o)
 .debug_loc     0x000000000000f46b       0x26 /home/einar/px4_firmware/src/Firmware/build_px4fmu-v2_default/px4io-v2/NuttX/nuttx-export/libs/libnuttx.a(sched-task_exit.o)
 .debug_loc     0x000000000000f491      0x42e /home/einar/px4_firmware/src/Firmware/build_px4fmu-v2_default/px4io-v2/NuttX/nuttx-export/libs/libnuttx.a(sched-task_setup.o)
 .debug_loc     0x000000000000f8bf       0x45 /home/einar/px4_firmware/src/Firmware/build_px4fmu-v2_default/px4io-v2/NuttX/nuttx-export/libs/libnuttx.a(sched-task_start.o)
 .debug_loc     0x000000000000f904       0xb2 /home/einar/px4_firmware/src/Firmware/build_px4fmu-v2_default/px4io-v2/NuttX/nuttx-export/libs/libnuttx.a(sched-task_terminate.o)
 .debug_loc     0x000000000000f9b6       0x13 /home/einar/px4_firmware/src/Firmware/build_px4fmu-v2_default/px4io-v2/NuttX/nuttx-export/libs/libnuttx.a(c-dq_rem.o)
 .debug_loc     0x000000000000f9c9       0x48 /home/einar/px4_firmware/src/Firmware/build_px4fmu-v2_default/px4io-v2/NuttX/nuttx-export/libs/libnuttx.a(c-lib_strdup.o)
 .debug_loc     0x000000000000fa11       0x65 /home/einar/px4_firmware/src/Firmware/build_px4fmu-v2_default/px4io-v2/NuttX/nuttx-export/libs/libnuttx.a(arch-stm32_timerisr.o)
 .debug_loc     0x000000000000fa76       0xd6 /home/einar/px4_firmware/src/Firmware/build_px4fmu-v2_default/px4io-v2/NuttX/nuttx-export/libs/libnuttx.a(arch-up_createstack.o)
 .debug_loc     0x000000000000fb4c       0x3f /home/einar/px4_firmware/src/Firmware/build_px4fmu-v2_default/px4io-v2/NuttX/nuttx-export/libs/libnuttx.a(arch-up_releasestack.o)
 .debug_loc     0x000000000000fb8b       0x76 /home/einar/px4_firmware/src/Firmware/build_px4fmu-v2_default/px4io-v2/NuttX/nuttx-export/libs/libnuttx.a(fs-fs_close.o)
 .debug_loc     0x000000000000fc01       0xa2 /home/einar/px4_firmware/src/Firmware/build_px4fmu-v2_default/px4io-v2/NuttX/nuttx-export/libs/libnuttx.a(fs-fs_filedup2.o)
 .debug_loc     0x000000000000fca3      0x33e /home/einar/px4_firmware/src/Firmware/build_px4fmu-v2_default/px4io-v2/NuttX/nuttx-export/libs/libnuttx.a(fs-fs_inodereserve.o)
 .debug_loc     0x000000000000ffe1       0x44 /home/einar/px4_firmware/src/Firmware/build_px4fmu-v2_default/px4io-v2/NuttX/nuttx-export/libs/libnuttx.a(sched-group_setuptaskfiles.o)
 .debug_loc     0x0000000000010025       0x6a /home/einar/px4_firmware/src/Firmware/build_px4fmu-v2_default/px4io-v2/NuttX/nuttx-export/libs/libnuttx.a(sched-sched_gettcb.o)
 .debug_loc     0x000000000001008f       0x13 /home/einar/px4_firmware/src/Firmware/build_px4fmu-v2_default/px4io-v2/NuttX/nuttx-export/libs/libnuttx.a(sched-sched_lock.o)
 .debug_loc     0x00000000000100a2       0x9f /home/einar/px4_firmware/src/Firmware/build_px4fmu-v2_default/px4io-v2/NuttX/nuttx-export/libs/libnuttx.a(sched-sched_releasetcb.o)
 .debug_loc     0x0000000000010141       0x39 /home/einar/px4_firmware/src/Firmware/build_px4fmu-v2_default/px4io-v2/NuttX/nuttx-export/libs/libnuttx.a(sched-sched_unlock.o)
 .debug_loc     0x000000000001017a       0x21 /home/einar/px4_firmware/src/Firmware/build_px4fmu-v2_default/px4io-v2/NuttX/nuttx-export/libs/libnuttx.a(sched-task_activate.o)
 .debug_loc     0x000000000001019b       0x6e /home/einar/px4_firmware/src/Firmware/build_px4fmu-v2_default/px4io-v2/NuttX/nuttx-export/libs/libnuttx.a(arch-up_releasepending.o)

.debug_ranges   0x0000000000000000     0x23b8
 .debug_ranges  0x0000000000000000       0x18 CMakeFiles/px4io-v2.dir/adc.c.obj
 .debug_ranges  0x0000000000000018      0x1b0 CMakeFiles/px4io-v2.dir/controls.c.obj
 .debug_ranges  0x00000000000001c8       0xe0 CMakeFiles/px4io-v2.dir/dsm.c.obj
 .debug_ranges  0x00000000000002a8       0xd8 CMakeFiles/px4io-v2.dir/px4io.c.obj
 .debug_ranges  0x0000000000000380      0x178 CMakeFiles/px4io-v2.dir/registers.c.obj
 .debug_ranges  0x00000000000004f8       0x28 CMakeFiles/px4io-v2.dir/safety.c.obj
 .debug_ranges  0x0000000000000520       0xc0 CMakeFiles/px4io-v2.dir/sbus.c.obj
 .debug_ranges  0x00000000000005e0       0x28 CMakeFiles/px4io-v2.dir/__/systemlib/up_cxxinitialize.c.obj
 .debug_ranges  0x0000000000000608       0xc8 CMakeFiles/px4io-v2.dir/__/systemlib/perf_counter.c.obj
 .debug_ranges  0x00000000000006d0       0xc0 CMakeFiles/px4io-v2.dir/mixer.cpp.obj
 .debug_ranges  0x0000000000000790       0xe8 CMakeFiles/px4io-v2.dir/__/systemlib/mixer/mixer.cpp.obj
 .debug_ranges  0x0000000000000878      0x150 CMakeFiles/px4io-v2.dir/__/systemlib/mixer/mixer_group.cpp.obj
 .debug_ranges  0x00000000000009c8      0x2a0 CMakeFiles/px4io-v2.dir/__/systemlib/mixer/mixer_multirotor.cpp.obj
 .debug_ranges  0x0000000000000c68      0x1c0 CMakeFiles/px4io-v2.dir/__/systemlib/mixer/mixer_simple.cpp.obj
 .debug_ranges  0x0000000000000e28       0x80 CMakeFiles/px4io-v2.dir/__/systemlib/pwm_limit/pwm_limit.c.obj
 .debug_ranges  0x0000000000000ea8       0x48 CMakeFiles/px4io-v2.dir/__/__/lib/rc/st24.c.obj
 .debug_ranges  0x0000000000000ef0       0x40 CMakeFiles/px4io-v2.dir/__/__/lib/rc/sumd.c.obj
 .debug_ranges  0x0000000000000f30      0x148 CMakeFiles/px4io-v2.dir/__/__/drivers/stm32/drv_hrt.c.obj
 .debug_ranges  0x0000000000001078      0x180 CMakeFiles/px4io-v2.dir/__/__/drivers/stm32/drv_pwm_servo.c.obj
 .debug_ranges  0x00000000000011f8       0x10 CMakeFiles/px4io-v2.dir/__/__/drivers/boards/px4io-v2/px4io_init.c.obj
 .debug_ranges  0x0000000000001208       0xc8 CMakeFiles/px4io-v2.dir/serial.c.obj
 .debug_ranges  0x00000000000012d0       0xe8 CMakeFiles/px4io-v2.dir/__/systemlib/hx_stream.c.obj
 .debug_ranges  0x00000000000013b8       0x10 /home/einar/px4_firmware/src/Firmware/build_px4fmu-v2_default/px4io-v2/NuttX/nuttx-export/libs/libnuttx.a(sched-irq_attach.o)
 .debug_ranges  0x00000000000013c8       0x10 /home/einar/px4_firmware/src/Firmware/build_px4fmu-v2_default/px4io-v2/NuttX/nuttx-export/libs/libnuttx.a(sched-irq_initialize.o)
 .debug_ranges  0x00000000000013d8       0x10 /home/einar/px4_firmware/src/Firmware/build_px4fmu-v2_default/px4io-v2/NuttX/nuttx-export/libs/libnuttx.a(sched-irq_unexpectedisr.o)
 .debug_ranges  0x00000000000013e8       0x10 /home/einar/px4_firmware/src/Firmware/build_px4fmu-v2_default/px4io-v2/NuttX/nuttx-export/libs/libnuttx.a(c-lib_abort.o)
 .debug_ranges  0x00000000000013f8       0x10 /home/einar/px4_firmware/src/Firmware/build_px4fmu-v2_default/px4io-v2/NuttX/nuttx-export/libs/libnuttx.a(c-lib_cfsetspeed.o)
 .debug_ranges  0x0000000000001408       0x18 /home/einar/px4_firmware/src/Firmware/build_px4fmu-v2_default/px4io-v2/NuttX/nuttx-export/libs/libnuttx.a(c-lib_crc32.o)
 .debug_ranges  0x0000000000001420       0x10 /home/einar/px4_firmware/src/Firmware/build_px4fmu-v2_default/px4io-v2/NuttX/nuttx-export/libs/libnuttx.a(c-lib_dprintf.o)
 .debug_ranges  0x0000000000001430       0x18 /home/einar/px4_firmware/src/Firmware/build_px4fmu-v2_default/px4io-v2/NuttX/nuttx-export/libs/libnuttx.a(c-lib_lowsyslog.o)
 .debug_ranges  0x0000000000001448       0x10 /home/einar/px4_firmware/src/Firmware/build_px4fmu-v2_default/px4io-v2/NuttX/nuttx-export/libs/libnuttx.a(c-lib_memchr.o)
 .debug_ranges  0x0000000000001458       0x10 /home/einar/px4_firmware/src/Firmware/build_px4fmu-v2_default/px4io-v2/NuttX/nuttx-export/libs/libnuttx.a(c-lib_memcpy.o)
 .debug_ranges  0x0000000000001468       0x10 /home/einar/px4_firmware/src/Firmware/build_px4fmu-v2_default/px4io-v2/NuttX/nuttx-export/libs/libnuttx.a(c-lib_memset.o)
 .debug_ranges  0x0000000000001478       0x10 /home/einar/px4_firmware/src/Firmware/build_px4fmu-v2_default/px4io-v2/NuttX/nuttx-export/libs/libnuttx.a(c-lib_printf.o)
 .debug_ranges  0x0000000000001488       0x38 /home/einar/px4_firmware/src/Firmware/build_px4fmu-v2_default/px4io-v2/NuttX/nuttx-export/libs/libnuttx.a(c-lib_sscanf.o)
 .debug_ranges  0x00000000000014c0       0x10 /home/einar/px4_firmware/src/Firmware/build_px4fmu-v2_default/px4io-v2/NuttX/nuttx-export/libs/libnuttx.a(c-lib_strchr.o)
 .debug_ranges  0x00000000000014d0       0x10 /home/einar/px4_firmware/src/Firmware/build_px4fmu-v2_default/px4io-v2/NuttX/nuttx-export/libs/libnuttx.a(c-lib_strcmp.o)
 .debug_ranges  0x00000000000014e0       0x10 /home/einar/px4_firmware/src/Firmware/build_px4fmu-v2_default/px4io-v2/NuttX/nuttx-export/libs/libnuttx.a(c-lib_strcspn.o)
 .debug_ranges  0x00000000000014f0       0x10 /home/einar/px4_firmware/src/Firmware/build_px4fmu-v2_default/px4io-v2/NuttX/nuttx-export/libs/libnuttx.a(c-lib_strncpy.o)
 .debug_ranges  0x0000000000001500       0x10 /home/einar/px4_firmware/src/Firmware/build_px4fmu-v2_default/px4io-v2/NuttX/nuttx-export/libs/libnuttx.a(c-lib_strtol.o)
 .debug_ranges  0x0000000000001510       0x10 /home/einar/px4_firmware/src/Firmware/build_px4fmu-v2_default/px4io-v2/NuttX/nuttx-export/libs/libnuttx.a(c-lib_strtoul.o)
 .debug_ranges  0x0000000000001520       0x18 /home/einar/px4_firmware/src/Firmware/build_px4fmu-v2_default/px4io-v2/NuttX/nuttx-export/libs/libnuttx.a(c-lib_syslog.o)
 .debug_ranges  0x0000000000001538       0x10 /home/einar/px4_firmware/src/Firmware/build_px4fmu-v2_default/px4io-v2/NuttX/nuttx-export/libs/libnuttx.a(c-lib_tcgetattr.o)
 .debug_ranges  0x0000000000001548       0x10 /home/einar/px4_firmware/src/Firmware/build_px4fmu-v2_default/px4io-v2/NuttX/nuttx-export/libs/libnuttx.a(c-lib_tcsetattr.o)
 .debug_ranges  0x0000000000001558       0x10 /home/einar/px4_firmware/src/Firmware/build_px4fmu-v2_default/px4io-v2/NuttX/nuttx-export/libs/libnuttx.a(c-lib_vdprintf.o)
 .debug_ranges  0x0000000000001568       0x10 /home/einar/px4_firmware/src/Firmware/build_px4fmu-v2_default/px4io-v2/NuttX/nuttx-export/libs/libnuttx.a(c-lib_vsnprintf.o)
 .debug_ranges  0x0000000000001578       0x10 /home/einar/px4_firmware/src/Firmware/build_px4fmu-v2_default/px4io-v2/NuttX/nuttx-export/libs/libnuttx.a(c-sq_addafter.o)
 .debug_ranges  0x0000000000001588       0x10 /home/einar/px4_firmware/src/Firmware/build_px4fmu-v2_default/px4io-v2/NuttX/nuttx-export/libs/libnuttx.a(c-sq_addfirst.o)
 .debug_ranges  0x0000000000001598       0x10 /home/einar/px4_firmware/src/Firmware/build_px4fmu-v2_default/px4io-v2/NuttX/nuttx-export/libs/libnuttx.a(c-sq_addlast.o)
 .debug_ranges  0x00000000000015a8       0x10 /home/einar/px4_firmware/src/Firmware/build_px4fmu-v2_default/px4io-v2/NuttX/nuttx-export/libs/libnuttx.a(c-sq_rem.o)
 .debug_ranges  0x00000000000015b8       0x10 /home/einar/px4_firmware/src/Firmware/build_px4fmu-v2_default/px4io-v2/NuttX/nuttx-export/libs/libnuttx.a(mm-mm_calloc.o)
 .debug_ranges  0x00000000000015c8       0x28 /home/einar/px4_firmware/src/Firmware/build_px4fmu-v2_default/px4io-v2/NuttX/nuttx-export/libs/libnuttx.a(mm-mm_free.o)
 .debug_ranges  0x00000000000015f0       0x30 /home/einar/px4_firmware/src/Firmware/build_px4fmu-v2_default/px4io-v2/NuttX/nuttx-export/libs/libnuttx.a(mm-mm_mallinfo.o)
 .debug_ranges  0x0000000000001620       0x10 /home/einar/px4_firmware/src/Firmware/build_px4fmu-v2_default/px4io-v2/NuttX/nuttx-export/libs/libnuttx.a(mm-mm_malloc.o)
 .debug_ranges  0x0000000000001630       0x28 /home/einar/px4_firmware/src/Firmware/build_px4fmu-v2_default/px4io-v2/NuttX/nuttx-export/libs/libnuttx.a(mm-mm_sem.o)
 .debug_ranges  0x0000000000001658       0x10 /home/einar/px4_firmware/src/Firmware/build_px4fmu-v2_default/px4io-v2/NuttX/nuttx-export/libs/libnuttx.a(mm-mm_size2ndx.o)
 .debug_ranges  0x0000000000001668       0x28 /home/einar/px4_firmware/src/Firmware/build_px4fmu-v2_default/px4io-v2/NuttX/nuttx-export/libs/libnuttx.a(mm-mm_user.o)
 .debug_ranges  0x0000000000001690       0x10 /home/einar/px4_firmware/src/Firmware/build_px4fmu-v2_default/px4io-v2/NuttX/nuttx-export/libs/libnuttx.a(mm-mm_zalloc.o)
 .debug_ranges  0x00000000000016a0       0x80 /home/einar/px4_firmware/src/Firmware/build_px4fmu-v2_default/px4io-v2/NuttX/nuttx-export/libs/libnuttx.a(arch-stm32_dma.o)
 .debug_ranges  0x0000000000001720       0x30 /home/einar/px4_firmware/src/Firmware/build_px4fmu-v2_default/px4io-v2/NuttX/nuttx-export/libs/libnuttx.a(arch-stm32_gpio.o)
 .debug_ranges  0x0000000000001750       0x38 /home/einar/px4_firmware/src/Firmware/build_px4fmu-v2_default/px4io-v2/NuttX/nuttx-export/libs/libnuttx.a(arch-stm32_irq.o)
 .debug_ranges  0x0000000000001788      0x248 /home/einar/px4_firmware/src/Firmware/build_px4fmu-v2_default/px4io-v2/NuttX/nuttx-export/libs/libnuttx.a(arch-stm32_serial.o)
 .debug_ranges  0x00000000000019d0       0x10 /home/einar/px4_firmware/src/Firmware/build_px4fmu-v2_default/px4io-v2/NuttX/nuttx-export/libs/libnuttx.a(arch-stm32_start.o)
 .debug_ranges  0x00000000000019e0       0x30 /home/einar/px4_firmware/src/Firmware/build_px4fmu-v2_default/px4io-v2/NuttX/nuttx-export/libs/libnuttx.a(arch-up_assert.o)
 .debug_ranges  0x0000000000001a10       0x28 /home/einar/px4_firmware/src/Firmware/build_px4fmu-v2_default/px4io-v2/NuttX/nuttx-export/libs/libnuttx.a(arch-up_hardfault.o)
 .debug_ranges  0x0000000000001a38       0x10 /home/einar/px4_firmware/src/Firmware/build_px4fmu-v2_default/px4io-v2/NuttX/nuttx-export/libs/libnuttx.a(arch-up_modifyreg32.o)
 .debug_ranges  0x0000000000001a48       0x10 /home/einar/px4_firmware/src/Firmware/build_px4fmu-v2_default/px4io-v2/NuttX/nuttx-export/libs/libnuttx.a(arch-up_svcall.o)
 .debug_ranges  0x0000000000001a58       0x10 /home/einar/px4_firmware/src/Firmware/build_px4fmu-v2_default/px4io-v2/NuttX/nuttx-export/libs/libnuttx.a(arch-up_systemreset.o)
 .debug_ranges  0x0000000000001a68       0x10 /home/einar/px4_firmware/src/Firmware/build_px4fmu-v2_default/px4io-v2/NuttX/nuttx-export/libs/libnuttx.a(arch-up_udelay.o)
 .debug_ranges  0x0000000000001a78       0x10 /home/einar/px4_firmware/src/Firmware/build_px4fmu-v2_default/px4io-v2/NuttX/nuttx-export/libs/libnuttx.a(cxx-libxx_cxa_atexit.o)
 .debug_ranges  0x0000000000001a88       0x10 /home/einar/px4_firmware/src/Firmware/build_px4fmu-v2_default/px4io-v2/NuttX/nuttx-export/libs/libnuttx.a(cxx-libxx_cxapurevirtual.o)
 .debug_ranges  0x0000000000001a98       0x10 /home/einar/px4_firmware/src/Firmware/build_px4fmu-v2_default/px4io-v2/NuttX/nuttx-export/libs/libnuttx.a(cxx-libxx_delete.o)
 .debug_ranges  0x0000000000001aa8       0x10 /home/einar/px4_firmware/src/Firmware/build_px4fmu-v2_default/px4io-v2/NuttX/nuttx-export/libs/libnuttx.a(cxx-libxx_eabi_atexit.o)
 .debug_ranges  0x0000000000001ab8       0x10 /home/einar/px4_firmware/src/Firmware/build_px4fmu-v2_default/px4io-v2/NuttX/nuttx-export/libs/libnuttx.a(cxx-libxx_new.o)
 .debug_ranges  0x0000000000001ac8       0x10 /home/einar/px4_firmware/src/Firmware/build_px4fmu-v2_default/px4io-v2/NuttX/nuttx-export/libs/libnuttx.a(fs-fs_ioctl.o)
 .debug_ranges  0x0000000000001ad8       0x18 /home/einar/px4_firmware/src/Firmware/build_px4fmu-v2_default/px4io-v2/NuttX/nuttx-export/libs/libnuttx.a(fs-fs_open.o)
 .debug_ranges  0x0000000000001af0       0x28 /home/einar/px4_firmware/src/Firmware/build_px4fmu-v2_default/px4io-v2/NuttX/nuttx-export/libs/libnuttx.a(fs-fs_read.o)
 .debug_ranges  0x0000000000001b18       0x10 /home/einar/px4_firmware/src/Firmware/build_px4fmu-v2_default/px4io-v2/NuttX/nuttx-export/libs/libnuttx.a(fs-fs_write.o)
 .debug_ranges  0x0000000000001b28       0x30 /home/einar/px4_firmware/src/Firmware/build_px4fmu-v2_default/px4io-v2/NuttX/nuttx-export/libs/libnuttx.a(drivers-serialirq.o)
 .debug_ranges  0x0000000000001b58       0x78 /home/einar/px4_firmware/src/Firmware/build_px4fmu-v2_default/px4io-v2/NuttX/nuttx-export/libs/libnuttx.a(drivers-serial.o)
 .debug_ranges  0x0000000000001bd0       0x10 /home/einar/px4_firmware/src/Firmware/build_px4fmu-v2_default/px4io-v2/NuttX/nuttx-export/libs/libnuttx.a(sched-errno_getptr.o)
 .debug_ranges  0x0000000000001be0       0x10 /home/einar/px4_firmware/src/Firmware/build_px4fmu-v2_default/px4io-v2/NuttX/nuttx-export/libs/libnuttx.a(sched-exit.o)
 .debug_ranges  0x0000000000001bf0       0x10 /home/einar/px4_firmware/src/Firmware/build_px4fmu-v2_default/px4io-v2/NuttX/nuttx-export/libs/libnuttx.a(sched-getpid.o)
 .debug_ranges  0x0000000000001c00       0x10 /home/einar/px4_firmware/src/Firmware/build_px4fmu-v2_default/px4io-v2/NuttX/nuttx-export/libs/libnuttx.a(sched-os_start.o)
 .debug_ranges  0x0000000000001c10       0x10 /home/einar/px4_firmware/src/Firmware/build_px4fmu-v2_default/px4io-v2/NuttX/nuttx-export/libs/libnuttx.a(sched-sched_garbage.o)
 .debug_ranges  0x0000000000001c20       0x10 /home/einar/px4_firmware/src/Firmware/build_px4fmu-v2_default/px4io-v2/NuttX/nuttx-export/libs/libnuttx.a(sched-sched_getfiles.o)
 .debug_ranges  0x0000000000001c30       0x10 /home/einar/px4_firmware/src/Firmware/build_px4fmu-v2_default/px4io-v2/NuttX/nuttx-export/libs/libnuttx.a(sched-sem_post.o)
 .debug_ranges  0x0000000000001c40       0x10 /home/einar/px4_firmware/src/Firmware/build_px4fmu-v2_default/px4io-v2/NuttX/nuttx-export/libs/libnuttx.a(sched-sem_trywait.o)
 .debug_ranges  0x0000000000001c50       0x10 /home/einar/px4_firmware/src/Firmware/build_px4fmu-v2_default/px4io-v2/NuttX/nuttx-export/libs/libnuttx.a(sched-sem_wait.o)
 .debug_ranges  0x0000000000001c60       0x10 /home/einar/px4_firmware/src/Firmware/build_px4fmu-v2_default/px4io-v2/NuttX/nuttx-export/libs/libnuttx.a(sched-task_exithook.o)
 .debug_ranges  0x0000000000001c70       0x10 /home/einar/px4_firmware/src/Firmware/build_px4fmu-v2_default/px4io-v2/NuttX/nuttx-export/libs/libnuttx.a(sched-task_recover.o)
 .debug_ranges  0x0000000000001c80       0x10 /home/einar/px4_firmware/src/Firmware/build_px4fmu-v2_default/px4io-v2/NuttX/nuttx-export/libs/libnuttx.a(sched-wd_cancel.o)
 .debug_ranges  0x0000000000001c90       0x10 /home/einar/px4_firmware/src/Firmware/build_px4fmu-v2_default/px4io-v2/NuttX/nuttx-export/libs/libnuttx.a(sched-wd_delete.o)
 .debug_ranges  0x0000000000001ca0       0x10 /home/einar/px4_firmware/src/Firmware/build_px4fmu-v2_default/px4io-v2/NuttX/nuttx-export/libs/libnuttx.a(sched-wd_initialize.o)
 .debug_ranges  0x0000000000001cb0       0x10 /home/einar/px4_firmware/src/Firmware/build_px4fmu-v2_default/px4io-v2/NuttX/nuttx-export/libs/libnuttx.a(c-dq_addfirst.o)
 .debug_ranges  0x0000000000001cc0       0x10 /home/einar/px4_firmware/src/Firmware/build_px4fmu-v2_default/px4io-v2/NuttX/nuttx-export/libs/libnuttx.a(c-lib_cfgetspeed.o)
 .debug_ranges  0x0000000000001cd0       0x10 /home/einar/px4_firmware/src/Firmware/build_px4fmu-v2_default/px4io-v2/NuttX/nuttx-export/libs/libnuttx.a(c-lib_checkbase.o)
 .debug_ranges  0x0000000000001ce0       0x10 /home/einar/px4_firmware/src/Firmware/build_px4fmu-v2_default/px4io-v2/NuttX/nuttx-export/libs/libnuttx.a(c-lib_isbasedigit.o)
 .debug_ranges  0x0000000000001cf0       0xe8 /home/einar/px4_firmware/src/Firmware/build_px4fmu-v2_default/px4io-v2/NuttX/nuttx-export/libs/libnuttx.a(c-lib_libvsprintf.o)
 .debug_ranges  0x0000000000001dd8       0x18 /home/einar/px4_firmware/src/Firmware/build_px4fmu-v2_default/px4io-v2/NuttX/nuttx-export/libs/libnuttx.a(c-lib_lowoutstream.o)
 .debug_ranges  0x0000000000001df0       0x18 /home/einar/px4_firmware/src/Firmware/build_px4fmu-v2_default/px4io-v2/NuttX/nuttx-export/libs/libnuttx.a(c-lib_memoutstream.o)
 .debug_ranges  0x0000000000001e08       0x18 /home/einar/px4_firmware/src/Firmware/build_px4fmu-v2_default/px4io-v2/NuttX/nuttx-export/libs/libnuttx.a(c-lib_nulloutstream.o)
 .debug_ranges  0x0000000000001e20       0x18 /home/einar/px4_firmware/src/Firmware/build_px4fmu-v2_default/px4io-v2/NuttX/nuttx-export/libs/libnuttx.a(c-lib_rawoutstream.o)
 .debug_ranges  0x0000000000001e38       0x10 /home/einar/px4_firmware/src/Firmware/build_px4fmu-v2_default/px4io-v2/NuttX/nuttx-export/libs/libnuttx.a(c-lib_skipspace.o)
 .debug_ranges  0x0000000000001e48       0x10 /home/einar/px4_firmware/src/Firmware/build_px4fmu-v2_default/px4io-v2/NuttX/nuttx-export/libs/libnuttx.a(c-lib_strcpy.o)
 .debug_ranges  0x0000000000001e58       0x10 /home/einar/px4_firmware/src/Firmware/build_px4fmu-v2_default/px4io-v2/NuttX/nuttx-export/libs/libnuttx.a(c-lib_strlen.o)
 .debug_ranges  0x0000000000001e68       0x10 /home/einar/px4_firmware/src/Firmware/build_px4fmu-v2_default/px4io-v2/NuttX/nuttx-export/libs/libnuttx.a(c-sem_init.o)
 .debug_ranges  0x0000000000001e78       0x10 /home/einar/px4_firmware/src/Firmware/build_px4fmu-v2_default/px4io-v2/NuttX/nuttx-export/libs/libnuttx.a(c-sq_remafter.o)
 .debug_ranges  0x0000000000001e88       0x10 /home/einar/px4_firmware/src/Firmware/build_px4fmu-v2_default/px4io-v2/NuttX/nuttx-export/libs/libnuttx.a(c-sq_remfirst.o)
 .debug_ranges  0x0000000000001e98       0x10 /home/einar/px4_firmware/src/Firmware/build_px4fmu-v2_default/px4io-v2/NuttX/nuttx-export/libs/libnuttx.a(mm-mm_addfreechunk.o)
 .debug_ranges  0x0000000000001ea8       0x18 /home/einar/px4_firmware/src/Firmware/build_px4fmu-v2_default/px4io-v2/NuttX/nuttx-export/libs/libnuttx.a(mm-mm_initialize.o)
 .debug_ranges  0x0000000000001ec0       0x10 /home/einar/px4_firmware/src/Firmware/build_px4fmu-v2_default/px4io-v2/NuttX/nuttx-export/libs/libnuttx.a(arch-stm32_allocateheap.o)
 .debug_ranges  0x0000000000001ed0       0x10 /home/einar/px4_firmware/src/Firmware/build_px4fmu-v2_default/px4io-v2/NuttX/nuttx-export/libs/libnuttx.a(arch-stm32_idle.o)
 .debug_ranges  0x0000000000001ee0       0x18 /home/einar/px4_firmware/src/Firmware/build_px4fmu-v2_default/px4io-v2/NuttX/nuttx-export/libs/libnuttx.a(arch-stm32_lowputc.o)
 .debug_ranges  0x0000000000001ef8       0x28 /home/einar/px4_firmware/src/Firmware/build_px4fmu-v2_default/px4io-v2/NuttX/nuttx-export/libs/libnuttx.a(arch-stm32_rcc.o)
 .debug_ranges  0x0000000000001f20       0x28 /home/einar/px4_firmware/src/Firmware/build_px4fmu-v2_default/px4io-v2/NuttX/nuttx-export/libs/libnuttx.a(arch-up_blocktask.o)
 .debug_ranges  0x0000000000001f48       0x10 /home/einar/px4_firmware/src/Firmware/build_px4fmu-v2_default/px4io-v2/NuttX/nuttx-export/libs/libnuttx.a(arch-up_copystate.o)
 .debug_ranges  0x0000000000001f58       0x10 /home/einar/px4_firmware/src/Firmware/build_px4fmu-v2_default/px4io-v2/NuttX/nuttx-export/libs/libnuttx.a(arch-up_doirq.o)
 .debug_ranges  0x0000000000001f68       0x10 /home/einar/px4_firmware/src/Firmware/build_px4fmu-v2_default/px4io-v2/NuttX/nuttx-export/libs/libnuttx.a(arch-up_exit.o)
 .debug_ranges  0x0000000000001f78       0x10 /home/einar/px4_firmware/src/Firmware/build_px4fmu-v2_default/px4io-v2/NuttX/nuttx-export/libs/libnuttx.a(arch-up_initialize.o)
 .debug_ranges  0x0000000000001f88       0x10 /home/einar/px4_firmware/src/Firmware/build_px4fmu-v2_default/px4io-v2/NuttX/nuttx-export/libs/libnuttx.a(arch-up_initialstate.o)
 .debug_ranges  0x0000000000001f98       0x10 /home/einar/px4_firmware/src/Firmware/build_px4fmu-v2_default/px4io-v2/NuttX/nuttx-export/libs/libnuttx.a(arch-up_interruptcontext.o)
 .debug_ranges  0x0000000000001fa8       0x10 /home/einar/px4_firmware/src/Firmware/build_px4fmu-v2_default/px4io-v2/NuttX/nuttx-export/libs/libnuttx.a(arch-up_mdelay.o)
 .debug_ranges  0x0000000000001fb8       0x28 /home/einar/px4_firmware/src/Firmware/build_px4fmu-v2_default/px4io-v2/NuttX/nuttx-export/libs/libnuttx.a(arch-up_unblocktask.o)
 .debug_ranges  0x0000000000001fe0       0x50 /home/einar/px4_firmware/src/Firmware/build_px4fmu-v2_default/px4io-v2/NuttX/nuttx-export/libs/libnuttx.a(fs-fs_files.o)
 .debug_ranges  0x0000000000002030       0x10 /home/einar/px4_firmware/src/Firmware/build_px4fmu-v2_default/px4io-v2/NuttX/nuttx-export/libs/libnuttx.a(fs-fs_inodeaddref.o)
 .debug_ranges  0x0000000000002040       0x10 /home/einar/px4_firmware/src/Firmware/build_px4fmu-v2_default/px4io-v2/NuttX/nuttx-export/libs/libnuttx.a(fs-fs_inodefind.o)
 .debug_ranges  0x0000000000002050       0x50 /home/einar/px4_firmware/src/Firmware/build_px4fmu-v2_default/px4io-v2/NuttX/nuttx-export/libs/libnuttx.a(fs-fs_inode.o)
 .debug_ranges  0x00000000000020a0       0x10 /home/einar/px4_firmware/src/Firmware/build_px4fmu-v2_default/px4io-v2/NuttX/nuttx-export/libs/libnuttx.a(fs-fs_inoderelease.o)
 .debug_ranges  0x00000000000020b0       0x10 /home/einar/px4_firmware/src/Firmware/build_px4fmu-v2_default/px4io-v2/NuttX/nuttx-export/libs/libnuttx.a(fs-fs_registerdriver.o)
 .debug_ranges  0x00000000000020c0       0x20 /home/einar/px4_firmware/src/Firmware/build_px4fmu-v2_default/px4io-v2/NuttX/nuttx-export/libs/libnuttx.a(drivers-dev_null.o)
 .debug_ranges  0x00000000000020e0       0x18 /home/einar/px4_firmware/src/Firmware/build_px4fmu-v2_default/px4io-v2/NuttX/nuttx-export/libs/libnuttx.a(sched-group_create.o)
 .debug_ranges  0x00000000000020f8       0x10 /home/einar/px4_firmware/src/Firmware/build_px4fmu-v2_default/px4io-v2/NuttX/nuttx-export/libs/libnuttx.a(sched-group_leave.o)
 .debug_ranges  0x0000000000002108       0x10 /home/einar/px4_firmware/src/Firmware/build_px4fmu-v2_default/px4io-v2/NuttX/nuttx-export/libs/libnuttx.a(sched-group_setupidlefiles.o)
 .debug_ranges  0x0000000000002118       0x10 /home/einar/px4_firmware/src/Firmware/build_px4fmu-v2_default/px4io-v2/NuttX/nuttx-export/libs/libnuttx.a(sched-irq_dispatch.o)
 .debug_ranges  0x0000000000002128       0x10 /home/einar/px4_firmware/src/Firmware/build_px4fmu-v2_default/px4io-v2/NuttX/nuttx-export/libs/libnuttx.a(sched-os_bringup.o)
 .debug_ranges  0x0000000000002138       0x10 /home/einar/px4_firmware/src/Firmware/build_px4fmu-v2_default/px4io-v2/NuttX/nuttx-export/libs/libnuttx.a(sched-sched_addblocked.o)
 .debug_ranges  0x0000000000002148       0x10 /home/einar/px4_firmware/src/Firmware/build_px4fmu-v2_default/px4io-v2/NuttX/nuttx-export/libs/libnuttx.a(sched-sched_addprioritized.o)
 .debug_ranges  0x0000000000002158       0x10 /home/einar/px4_firmware/src/Firmware/build_px4fmu-v2_default/px4io-v2/NuttX/nuttx-export/libs/libnuttx.a(sched-sched_addreadytorun.o)
 .debug_ranges  0x0000000000002168       0x10 /home/einar/px4_firmware/src/Firmware/build_px4fmu-v2_default/px4io-v2/NuttX/nuttx-export/libs/libnuttx.a(sched-sched_free.o)
 .debug_ranges  0x0000000000002178       0x10 /home/einar/px4_firmware/src/Firmware/build_px4fmu-v2_default/px4io-v2/NuttX/nuttx-export/libs/libnuttx.a(sched-sched_mergepending.o)
 .debug_ranges  0x0000000000002188       0x10 /home/einar/px4_firmware/src/Firmware/build_px4fmu-v2_default/px4io-v2/NuttX/nuttx-export/libs/libnuttx.a(sched-sched_removeblocked.o)
 .debug_ranges  0x0000000000002198       0x10 /home/einar/px4_firmware/src/Firmware/build_px4fmu-v2_default/px4io-v2/NuttX/nuttx-export/libs/libnuttx.a(sched-sched_removereadytorun.o)
 .debug_ranges  0x00000000000021a8       0x10 /home/einar/px4_firmware/src/Firmware/build_px4fmu-v2_default/px4io-v2/NuttX/nuttx-export/libs/libnuttx.a(sched-sem_destroy.o)
 .debug_ranges  0x00000000000021b8       0x20 /home/einar/px4_firmware/src/Firmware/build_px4fmu-v2_default/px4io-v2/NuttX/nuttx-export/libs/libnuttx.a(sched-task_create.o)
 .debug_ranges  0x00000000000021d8       0x10 /home/einar/px4_firmware/src/Firmware/build_px4fmu-v2_default/px4io-v2/NuttX/nuttx-export/libs/libnuttx.a(sched-task_exit.o)
 .debug_ranges  0x00000000000021e8       0x48 /home/einar/px4_firmware/src/Firmware/build_px4fmu-v2_default/px4io-v2/NuttX/nuttx-export/libs/libnuttx.a(sched-task_setup.o)
 .debug_ranges  0x0000000000002230       0x10 /home/einar/px4_firmware/src/Firmware/build_px4fmu-v2_default/px4io-v2/NuttX/nuttx-export/libs/libnuttx.a(sched-task_start.o)
 .debug_ranges  0x0000000000002240       0x10 /home/einar/px4_firmware/src/Firmware/build_px4fmu-v2_default/px4io-v2/NuttX/nuttx-export/libs/libnuttx.a(sched-task_terminate.o)
 .debug_ranges  0x0000000000002250       0x10 /home/einar/px4_firmware/src/Firmware/build_px4fmu-v2_default/px4io-v2/NuttX/nuttx-export/libs/libnuttx.a(c-dq_addlast.o)
 .debug_ranges  0x0000000000002260       0x10 /home/einar/px4_firmware/src/Firmware/build_px4fmu-v2_default/px4io-v2/NuttX/nuttx-export/libs/libnuttx.a(c-dq_rem.o)
 .debug_ranges  0x0000000000002270       0x10 /home/einar/px4_firmware/src/Firmware/build_px4fmu-v2_default/px4io-v2/NuttX/nuttx-export/libs/libnuttx.a(c-lib_strdup.o)
 .debug_ranges  0x0000000000002280       0x18 /home/einar/px4_firmware/src/Firmware/build_px4fmu-v2_default/px4io-v2/NuttX/nuttx-export/libs/libnuttx.a(arch-stm32_timerisr.o)
 .debug_ranges  0x0000000000002298       0x10 /home/einar/px4_firmware/src/Firmware/build_px4fmu-v2_default/px4io-v2/NuttX/nuttx-export/libs/libnuttx.a(arch-up_createstack.o)
 .debug_ranges  0x00000000000022a8       0x10 /home/einar/px4_firmware/src/Firmware/build_px4fmu-v2_default/px4io-v2/NuttX/nuttx-export/libs/libnuttx.a(arch-up_releasestack.o)
 .debug_ranges  0x00000000000022b8       0x10 /home/einar/px4_firmware/src/Firmware/build_px4fmu-v2_default/px4io-v2/NuttX/nuttx-export/libs/libnuttx.a(fs-fs_close.o)
 .debug_ranges  0x00000000000022c8       0x10 /home/einar/px4_firmware/src/Firmware/build_px4fmu-v2_default/px4io-v2/NuttX/nuttx-export/libs/libnuttx.a(fs-fs_filedup2.o)
 .debug_ranges  0x00000000000022d8       0x48 /home/einar/px4_firmware/src/Firmware/build_px4fmu-v2_default/px4io-v2/NuttX/nuttx-export/libs/libnuttx.a(fs-fs_inodereserve.o)
 .debug_ranges  0x0000000000002320       0x10 /home/einar/px4_firmware/src/Firmware/build_px4fmu-v2_default/px4io-v2/NuttX/nuttx-export/libs/libnuttx.a(sched-group_setuptaskfiles.o)
 .debug_ranges  0x0000000000002330       0x10 /home/einar/px4_firmware/src/Firmware/build_px4fmu-v2_default/px4io-v2/NuttX/nuttx-export/libs/libnuttx.a(sched-sched_gettcb.o)
 .debug_ranges  0x0000000000002340       0x10 /home/einar/px4_firmware/src/Firmware/build_px4fmu-v2_default/px4io-v2/NuttX/nuttx-export/libs/libnuttx.a(sched-sched_lock.o)
 .debug_ranges  0x0000000000002350       0x10 /home/einar/px4_firmware/src/Firmware/build_px4fmu-v2_default/px4io-v2/NuttX/nuttx-export/libs/libnuttx.a(sched-sched_processtimer.o)
 .debug_ranges  0x0000000000002360       0x10 /home/einar/px4_firmware/src/Firmware/build_px4fmu-v2_default/px4io-v2/NuttX/nuttx-export/libs/libnuttx.a(sched-sched_releasetcb.o)
 .debug_ranges  0x0000000000002370       0x10 /home/einar/px4_firmware/src/Firmware/build_px4fmu-v2_default/px4io-v2/NuttX/nuttx-export/libs/libnuttx.a(sched-sched_unlock.o)
 .debug_ranges  0x0000000000002380       0x10 /home/einar/px4_firmware/src/Firmware/build_px4fmu-v2_default/px4io-v2/NuttX/nuttx-export/libs/libnuttx.a(sched-task_activate.o)
 .debug_ranges  0x0000000000002390       0x28 /home/einar/px4_firmware/src/Firmware/build_px4fmu-v2_default/px4io-v2/NuttX/nuttx-export/libs/libnuttx.a(arch-up_releasepending.o)

.debug_str      0x0000000000000000     0x59ba
 .debug_str     0x0000000000000000      0x334 CMakeFiles/px4io-v2.dir/adc.c.obj
                                        0x398 (size before relaxing)
 .debug_str     0x0000000000000334      0x35b CMakeFiles/px4io-v2.dir/controls.c.obj
                                        0x6ba (size before relaxing)
 .debug_str     0x000000000000068f      0x217 CMakeFiles/px4io-v2.dir/dsm.c.obj
                                        0x501 (size before relaxing)
 .debug_str     0x00000000000008a6      0x344 CMakeFiles/px4io-v2.dir/px4io.c.obj
                                        0x789 (size before relaxing)
 .debug_str     0x0000000000000bea      0x1d9 CMakeFiles/px4io-v2.dir/registers.c.obj
                                        0x5f1 (size before relaxing)
 .debug_str     0x0000000000000dc3       0xc1 CMakeFiles/px4io-v2.dir/safety.c.obj
                                        0x399 (size before relaxing)
 .debug_str     0x0000000000000e84       0xff CMakeFiles/px4io-v2.dir/sbus.c.obj
                                        0x4ed (size before relaxing)
 .debug_str     0x0000000000000f83       0x8b CMakeFiles/px4io-v2.dir/__/systemlib/up_cxxinitialize.c.obj
                                        0x23f (size before relaxing)
 .debug_str     0x000000000000100e      0x26c CMakeFiles/px4io-v2.dir/__/systemlib/perf_counter.c.obj
                                        0x5c8 (size before relaxing)
 .debug_str     0x000000000000127a      0x674 CMakeFiles/px4io-v2.dir/mixer.cpp.obj
                                        0xa43 (size before relaxing)
 .debug_str     0x00000000000018ee      0x2f7 CMakeFiles/px4io-v2.dir/__/systemlib/mixer/mixer.cpp.obj
                                        0x850 (size before relaxing)
 .debug_str     0x0000000000001be5      0x17c CMakeFiles/px4io-v2.dir/__/systemlib/mixer/mixer_group.cpp.obj
                                        0x96a (size before relaxing)
 .debug_str     0x0000000000001d61      0x497 CMakeFiles/px4io-v2.dir/__/systemlib/mixer/mixer_multirotor.cpp.obj
                                        0xc95 (size before relaxing)
 .debug_str     0x00000000000021f8      0x23f CMakeFiles/px4io-v2.dir/__/systemlib/mixer/mixer_simple.cpp.obj
                                        0xa00 (size before relaxing)
 .debug_str     0x0000000000002437       0xf4 CMakeFiles/px4io-v2.dir/__/systemlib/pwm_limit/pwm_limit.c.obj
                                        0x444 (size before relaxing)
 .debug_str     0x000000000000252b      0x217 CMakeFiles/px4io-v2.dir/__/__/lib/rc/st24.c.obj
                                        0x4a8 (size before relaxing)
 .debug_str     0x0000000000002742      0x198 CMakeFiles/px4io-v2.dir/__/__/lib/rc/sumd.c.obj
                                        0x48b (size before relaxing)
 .debug_str     0x00000000000028da      0x263 CMakeFiles/px4io-v2.dir/__/__/drivers/stm32/drv_hrt.c.obj
                                        0x6c8 (size before relaxing)
 .debug_str     0x0000000000002b3d      0x149 CMakeFiles/px4io-v2.dir/__/__/drivers/stm32/drv_pwm_servo.c.obj
                                        0x47e (size before relaxing)
 .debug_str     0x0000000000002c86       0x65 CMakeFiles/px4io-v2.dir/__/__/drivers/boards/px4io-v2/px4io_init.c.obj
                                        0x2cf (size before relaxing)
 .debug_str     0x0000000000002ceb       0x54 CMakeFiles/px4io-v2.dir/__/__/drivers/boards/px4io-v2/px4io_pwm_servo.c.obj
                                        0x38f (size before relaxing)
 .debug_str     0x0000000000002d3f      0x19d CMakeFiles/px4io-v2.dir/serial.c.obj
                                        0x56a (size before relaxing)
 .debug_str     0x0000000000002edc      0x1d9 CMakeFiles/px4io-v2.dir/__/systemlib/hx_stream.c.obj
                                        0x4e2 (size before relaxing)
 .debug_str     0x00000000000030b5      0x18d /home/einar/px4_firmware/src/Firmware/build_px4fmu-v2_default/px4io-v2/NuttX/nuttx-export/libs/libnuttx.a(sched-irq_attach.o)
                                        0x270 (size before relaxing)
 .debug_str     0x0000000000003242       0x20 /home/einar/px4_firmware/src/Firmware/build_px4fmu-v2_default/px4io-v2/NuttX/nuttx-export/libs/libnuttx.a(sched-irq_initialize.o)
                                        0x237 (size before relaxing)
 .debug_str     0x0000000000003262       0x27 /home/einar/px4_firmware/src/Firmware/build_px4fmu-v2_default/px4io-v2/NuttX/nuttx-export/libs/libnuttx.a(sched-irq_unexpectedisr.o)
                                        0x269 (size before relaxing)
 .debug_str     0x0000000000003289       0x71 /home/einar/px4_firmware/src/Firmware/build_px4fmu-v2_default/px4io-v2/NuttX/nuttx-export/libs/libnuttx.a(c-lib_abort.o)
                                        0x206 (size before relaxing)
 .debug_str     0x00000000000032fa       0x22 /home/einar/px4_firmware/src/Firmware/build_px4fmu-v2_default/px4io-v2/NuttX/nuttx-export/libs/libnuttx.a(c-lib_cfsetspeed.o)
                                        0x28c (size before relaxing)
 .debug_str     0x000000000000331c       0x24 /home/einar/px4_firmware/src/Firmware/build_px4fmu-v2_default/px4io-v2/NuttX/nuttx-export/libs/libnuttx.a(c-lib_crc32.o)
                                        0x247 (size before relaxing)
 .debug_str     0x0000000000003340       0x1d /home/einar/px4_firmware/src/Firmware/build_px4fmu-v2_default/px4io-v2/NuttX/nuttx-export/libs/libnuttx.a(c-lib_dprintf.o)
                                        0x24e (size before relaxing)
 .debug_str     0x000000000000335d       0x5a /home/einar/px4_firmware/src/Firmware/build_px4fmu-v2_default/px4io-v2/NuttX/nuttx-export/libs/libnuttx.a(c-lib_lowsyslog.o)
                                        0x299 (size before relaxing)
 .debug_str     0x00000000000033b7       0x14 /home/einar/px4_firmware/src/Firmware/build_px4fmu-v2_default/px4io-v2/NuttX/nuttx-export/libs/libnuttx.a(c-lib_memchr.o)
                                        0x214 (size before relaxing)
 .debug_str     0x00000000000033cb       0x1e /home/einar/px4_firmware/src/Firmware/build_px4fmu-v2_default/px4io-v2/NuttX/nuttx-export/libs/libnuttx.a(c-lib_memcpy.o)
                                        0x21e (size before relaxing)
 .debug_str     0x00000000000033e9       0x14 /home/einar/px4_firmware/src/Firmware/build_px4fmu-v2_default/px4io-v2/NuttX/nuttx-export/libs/libnuttx.a(c-lib_memset.o)
                                        0x214 (size before relaxing)
 .debug_str     0x00000000000033fd       0x13 /home/einar/px4_firmware/src/Firmware/build_px4fmu-v2_default/px4io-v2/NuttX/nuttx-export/libs/libnuttx.a(c-lib_printf.o)
                                        0x24b (size before relaxing)
 .debug_str     0x0000000000003410       0xa4 /home/einar/px4_firmware/src/Firmware/build_px4fmu-v2_default/px4io-v2/NuttX/nuttx-export/libs/libnuttx.a(c-lib_sscanf.o)
                                        0x316 (size before relaxing)
 .debug_str     0x00000000000034b4       0x14 /home/einar/px4_firmware/src/Firmware/build_px4fmu-v2_default/px4io-v2/NuttX/nuttx-export/libs/libnuttx.a(c-lib_strchr.o)
                                        0x1fa (size before relaxing)
 .debug_str     0x00000000000034c8       0x14 /home/einar/px4_firmware/src/Firmware/build_px4fmu-v2_default/px4io-v2/NuttX/nuttx-export/libs/libnuttx.a(c-lib_strcmp.o)
                                        0x201 (size before relaxing)
 .debug_str     0x00000000000034dc       0x1c /home/einar/px4_firmware/src/Firmware/build_px4fmu-v2_default/px4io-v2/NuttX/nuttx-export/libs/libnuttx.a(c-lib_strcspn.o)
                                        0x224 (size before relaxing)
 .debug_str     0x00000000000034f8       0x15 /home/einar/px4_firmware/src/Firmware/build_px4fmu-v2_default/px4io-v2/NuttX/nuttx-export/libs/libnuttx.a(c-lib_strncpy.o)
                                        0x21b (size before relaxing)
 .debug_str     0x000000000000350d       0x43 /home/einar/px4_firmware/src/Firmware/build_px4fmu-v2_default/px4io-v2/NuttX/nuttx-export/libs/libnuttx.a(c-lib_strtol.o)
                                        0x26a (size before relaxing)
 .debug_str     0x0000000000003550       0x33 /home/einar/px4_firmware/src/Firmware/build_px4fmu-v2_default/px4io-v2/NuttX/nuttx-export/libs/libnuttx.a(c-lib_strtoul.o)
                                        0x281 (size before relaxing)
 .debug_str     0x0000000000003583       0x3e /home/einar/px4_firmware/src/Firmware/build_px4fmu-v2_default/px4io-v2/NuttX/nuttx-export/libs/libnuttx.a(c-lib_syslog.o)
                                        0x2b0 (size before relaxing)
 .debug_str     0x00000000000035c1       0x18 /home/einar/px4_firmware/src/Firmware/build_px4fmu-v2_default/px4io-v2/NuttX/nuttx-export/libs/libnuttx.a(c-lib_tcgetattr.o)
                                        0x29c (size before relaxing)
 .debug_str     0x00000000000035d9       0x20 /home/einar/px4_firmware/src/Firmware/build_px4fmu-v2_default/px4io-v2/NuttX/nuttx-export/libs/libnuttx.a(c-lib_tcsetattr.o)
                                        0x2a4 (size before relaxing)
 .debug_str     0x00000000000035f9       0x15 /home/einar/px4_firmware/src/Firmware/build_px4fmu-v2_default/px4io-v2/NuttX/nuttx-export/libs/libnuttx.a(c-lib_vdprintf.o)
                                        0x2ac (size before relaxing)
 .debug_str     0x000000000000360e       0x3a /home/einar/px4_firmware/src/Firmware/build_px4fmu-v2_default/px4io-v2/NuttX/nuttx-export/libs/libnuttx.a(c-lib_vsnprintf.o)
                                        0x2e2 (size before relaxing)
 .debug_str     0x0000000000003648       0x1f /home/einar/px4_firmware/src/Firmware/build_px4fmu-v2_default/px4io-v2/NuttX/nuttx-export/libs/libnuttx.a(c-sq_addafter.o)
                                        0x256 (size before relaxing)
 .debug_str     0x0000000000003667       0x14 /home/einar/px4_firmware/src/Firmware/build_px4fmu-v2_default/px4io-v2/NuttX/nuttx-export/libs/libnuttx.a(c-sq_addfirst.o)
                                        0x246 (size before relaxing)
 .debug_str     0x000000000000367b       0x13 /home/einar/px4_firmware/src/Firmware/build_px4fmu-v2_default/px4io-v2/NuttX/nuttx-export/libs/libnuttx.a(c-sq_addlast.o)
                                        0x244 (size before relaxing)
 .debug_str     0x000000000000368e       0x1b /home/einar/px4_firmware/src/Firmware/build_px4fmu-v2_default/px4io-v2/NuttX/nuttx-export/libs/libnuttx.a(c-sq_rem.o)
                                        0x24d (size before relaxing)
 .debug_str     0x00000000000036a9       0x73 /home/einar/px4_firmware/src/Firmware/build_px4fmu-v2_default/px4io-v2/NuttX/nuttx-export/libs/libnuttx.a(mm-mm_calloc.o)
                                        0x224 (size before relaxing)
 .debug_str     0x000000000000371c       0xf1 /home/einar/px4_firmware/src/Firmware/build_px4fmu-v2_default/px4io-v2/NuttX/nuttx-export/libs/libnuttx.a(mm-mm_free.o)
                                        0x350 (size before relaxing)
 .debug_str     0x000000000000380d       0x1a /home/einar/px4_firmware/src/Firmware/build_px4fmu-v2_default/px4io-v2/NuttX/nuttx-export/libs/libnuttx.a(mm-mm_mallinfo.o)
                                        0x366 (size before relaxing)
 .debug_str     0x0000000000003827       0x36 /home/einar/px4_firmware/src/Firmware/build_px4fmu-v2_default/px4io-v2/NuttX/nuttx-export/libs/libnuttx.a(mm-mm_malloc.o)
                                        0x367 (size before relaxing)
 .debug_str     0x000000000000385d       0x5d /home/einar/px4_firmware/src/Firmware/build_px4fmu-v2_default/px4io-v2/NuttX/nuttx-export/libs/libnuttx.a(mm-mm_sem.o)
                                        0x38f (size before relaxing)
 .debug_str     0x00000000000038ba        0xe /home/einar/px4_firmware/src/Firmware/build_px4fmu-v2_default/px4io-v2/NuttX/nuttx-export/libs/libnuttx.a(mm-mm_size2ndx.o)
                                        0x21f (size before relaxing)
 .debug_str     0x00000000000038c8       0x5f /home/einar/px4_firmware/src/Firmware/build_px4fmu-v2_default/px4io-v2/NuttX/nuttx-export/libs/libnuttx.a(mm-mm_user.o)
                                        0x384 (size before relaxing)
 .debug_str     0x0000000000003927        0xc /home/einar/px4_firmware/src/Firmware/build_px4fmu-v2_default/px4io-v2/NuttX/nuttx-export/libs/libnuttx.a(mm-mm_zalloc.o)
                                        0x22c (size before relaxing)
 .debug_str     0x0000000000003933      0x1f9 /home/einar/px4_firmware/src/Firmware/build_px4fmu-v2_default/px4io-v2/NuttX/nuttx-export/libs/libnuttx.a(arch-stm32_dma.o)
                                        0x4e2 (size before relaxing)
 .debug_str     0x0000000000003b2c       0x72 /home/einar/px4_firmware/src/Firmware/build_px4fmu-v2_default/px4io-v2/NuttX/nuttx-export/libs/libnuttx.a(arch-stm32_gpio.o)
                                        0x30e (size before relaxing)
 .debug_str     0x0000000000003b9e       0x78 /home/einar/px4_firmware/src/Firmware/build_px4fmu-v2_default/px4io-v2/NuttX/nuttx-export/libs/libnuttx.a(arch-stm32_irq.o)
                                        0x38e (size before relaxing)
 .debug_str     0x0000000000003c16      0x57c /home/einar/px4_firmware/src/Firmware/build_px4fmu-v2_default/px4io-v2/NuttX/nuttx-export/libs/libnuttx.a(arch-stm32_serial.o)
                                        0xaec (size before relaxing)
 .debug_str     0x0000000000004192       0x5f /home/einar/px4_firmware/src/Firmware/build_px4fmu-v2_default/px4io-v2/NuttX/nuttx-export/libs/libnuttx.a(arch-stm32_start.o)
                                        0x2b9 (size before relaxing)
 .debug_str     0x00000000000041f1      0x1fa /home/einar/px4_firmware/src/Firmware/build_px4fmu-v2_default/px4io-v2/NuttX/nuttx-export/libs/libnuttx.a(arch-up_assert.o)
                                        0x6d8 (size before relaxing)
 .debug_str     0x00000000000043eb       0x33 /home/einar/px4_firmware/src/Firmware/build_px4fmu-v2_default/px4io-v2/NuttX/nuttx-export/libs/libnuttx.a(arch-up_hardfault.o)
                                        0x2ca (size before relaxing)
 .debug_str     0x000000000000441e       0x2a /home/einar/px4_firmware/src/Firmware/build_px4fmu-v2_default/px4io-v2/NuttX/nuttx-export/libs/libnuttx.a(arch-up_modifyreg32.o)
                                        0x28c (size before relaxing)
 .debug_str     0x0000000000004448       0x14 /home/einar/px4_firmware/src/Firmware/build_px4fmu-v2_default/px4io-v2/NuttX/nuttx-export/libs/libnuttx.a(arch-up_svcall.o)
                                        0x25d (size before relaxing)
 .debug_str     0x000000000000445c       0x19 /home/einar/px4_firmware/src/Firmware/build_px4fmu-v2_default/px4io-v2/NuttX/nuttx-export/libs/libnuttx.a(arch-up_systemreset.o)
                                        0x217 (size before relaxing)
 .debug_str     0x0000000000004475       0x20 /home/einar/px4_firmware/src/Firmware/build_px4fmu-v2_default/px4io-v2/NuttX/nuttx-export/libs/libnuttx.a(arch-up_udelay.o)
                                        0x253 (size before relaxing)
 .debug_str     0x0000000000004495       0x1e /home/einar/px4_firmware/src/Firmware/build_px4fmu-v2_default/px4io-v2/NuttX/nuttx-export/libs/libnuttx.a(arch-up_vectors.o)
                                        0x1ab (size before relaxing)
 .debug_str     0x00000000000044b3      0x1f6 /home/einar/px4_firmware/src/Firmware/build_px4fmu-v2_default/px4io-v2/NuttX/nuttx-export/libs/libnuttx.a(cxx-libxx_cxa_atexit.o)
                                        0x31b (size before relaxing)
 .debug_str     0x00000000000046a9       0x2c /home/einar/px4_firmware/src/Firmware/build_px4fmu-v2_default/px4io-v2/NuttX/nuttx-export/libs/libnuttx.a(cxx-libxx_cxapurevirtual.o)
                                        0x227 (size before relaxing)
 .debug_str     0x00000000000046d5       0x11 /home/einar/px4_firmware/src/Firmware/build_px4fmu-v2_default/px4io-v2/NuttX/nuttx-export/libs/libnuttx.a(cxx-libxx_delete.o)
                                        0x2f8 (size before relaxing)
 .debug_str     0x00000000000046e6       0x1d /home/einar/px4_firmware/src/Firmware/build_px4fmu-v2_default/px4io-v2/NuttX/nuttx-export/libs/libnuttx.a(cxx-libxx_eabi_atexit.o)
                                        0x325 (size before relaxing)
 .debug_str     0x0000000000004703       0x67 /home/einar/px4_firmware/src/Firmware/build_px4fmu-v2_default/px4io-v2/NuttX/nuttx-export/libs/libnuttx.a(cxx-libxx_new.o)
                                        0x3a8 (size before relaxing)
 .debug_str     0x000000000000476a       0x81 /home/einar/px4_firmware/src/Firmware/build_px4fmu-v2_default/px4io-v2/NuttX/nuttx-export/libs/libnuttx.a(fs-fs_ioctl.o)
                                        0x472 (size before relaxing)
 .debug_str     0x00000000000047eb       0x7a /home/einar/px4_firmware/src/Firmware/build_px4fmu-v2_default/px4io-v2/NuttX/nuttx-export/libs/libnuttx.a(fs-fs_open.o)
                                        0x4e3 (size before relaxing)
 .debug_str     0x0000000000004865       0x14 /home/einar/px4_firmware/src/Firmware/build_px4fmu-v2_default/px4io-v2/NuttX/nuttx-export/libs/libnuttx.a(fs-fs_read.o)
                                        0x47b (size before relaxing)
 .debug_str     0x0000000000004879       0x16 /home/einar/px4_firmware/src/Firmware/build_px4fmu-v2_default/px4io-v2/NuttX/nuttx-export/libs/libnuttx.a(fs-fs_write.o)
                                        0x484 (size before relaxing)
 .debug_str     0x000000000000488f       0x97 /home/einar/px4_firmware/src/Firmware/build_px4fmu-v2_default/px4io-v2/NuttX/nuttx-export/libs/libnuttx.a(drivers-serialirq.o)
                                        0x599 (size before relaxing)
 .debug_str     0x0000000000004926       0xe2 /home/einar/px4_firmware/src/Firmware/build_px4fmu-v2_default/px4io-v2/NuttX/nuttx-export/libs/libnuttx.a(drivers-serial.o)
                                        0x737 (size before relaxing)
 .debug_str     0x0000000000004a08       0x1a /home/einar/px4_firmware/src/Firmware/build_px4fmu-v2_default/px4io-v2/NuttX/nuttx-export/libs/libnuttx.a(sched-errno_getptr.o)
                                        0x683 (size before relaxing)
 .debug_str     0x0000000000004a22        0xe /home/einar/px4_firmware/src/Firmware/build_px4fmu-v2_default/px4io-v2/NuttX/nuttx-export/libs/libnuttx.a(sched-exit.o)
                                        0x5d7 (size before relaxing)
 .debug_str     0x0000000000004a30        0x9 /home/einar/px4_firmware/src/Firmware/build_px4fmu-v2_default/px4io-v2/NuttX/nuttx-export/libs/libnuttx.a(sched-getpid.o)
                                        0x5c0 (size before relaxing)
 .debug_str     0x0000000000004a39      0x1bc /home/einar/px4_firmware/src/Firmware/build_px4fmu-v2_default/px4io-v2/NuttX/nuttx-export/libs/libnuttx.a(sched-os_start.o)
                                        0x8c2 (size before relaxing)
 .debug_str     0x0000000000004bf5       0x34 /home/einar/px4_firmware/src/Firmware/build_px4fmu-v2_default/px4io-v2/NuttX/nuttx-export/libs/libnuttx.a(sched-sched_garbage.o)
                                        0x2ce (size before relaxing)
 .debug_str     0x0000000000004c29       0x11 /home/einar/px4_firmware/src/Firmware/build_px4fmu-v2_default/px4io-v2/NuttX/nuttx-export/libs/libnuttx.a(sched-sched_getfiles.o)
                                        0x5d5 (size before relaxing)
 .debug_str     0x0000000000004c3a       0x2c /home/einar/px4_firmware/src/Firmware/build_px4fmu-v2_default/px4io-v2/NuttX/nuttx-export/libs/libnuttx.a(sched-sem_post.o)
                                        0x61e (size before relaxing)
 .debug_str     0x0000000000004c66        0xe /home/einar/px4_firmware/src/Firmware/build_px4fmu-v2_default/px4io-v2/NuttX/nuttx-export/libs/libnuttx.a(sched-sem_trywait.o)
                                        0x60f (size before relaxing)
 .debug_str     0x0000000000004c74       0x22 /home/einar/px4_firmware/src/Firmware/build_px4fmu-v2_default/px4io-v2/NuttX/nuttx-export/libs/libnuttx.a(sched-sem_wait.o)
                                        0x6bb (size before relaxing)
 .debug_str     0x0000000000004c96       0x35 /home/einar/px4_firmware/src/Firmware/build_px4fmu-v2_default/px4io-v2/NuttX/nuttx-export/libs/libnuttx.a(sched-task_exithook.o)
                                        0x5b7 (size before relaxing)
 .debug_str     0x0000000000004ccb       0x2b /home/einar/px4_firmware/src/Firmware/build_px4fmu-v2_default/px4io-v2/NuttX/nuttx-export/libs/libnuttx.a(sched-task_recover.o)
                                        0x5cb (size before relaxing)
 .debug_str     0x0000000000004cf6       0x2c /home/einar/px4_firmware/src/Firmware/build_px4fmu-v2_default/px4io-v2/NuttX/nuttx-export/libs/libnuttx.a(sched-wd_cancel.o)
                                        0x334 (size before relaxing)
 .debug_str     0x0000000000004d22       0x1e /home/einar/px4_firmware/src/Firmware/build_px4fmu-v2_default/px4io-v2/NuttX/nuttx-export/libs/libnuttx.a(sched-wd_delete.o)
                                        0x322 (size before relaxing)
 .debug_str     0x0000000000004d40       0x1e /home/einar/px4_firmware/src/Firmware/build_px4fmu-v2_default/px4io-v2/NuttX/nuttx-export/libs/libnuttx.a(sched-wd_initialize.o)
                                        0x390 (size before relaxing)
 .debug_str     0x0000000000004d5e       0x14 /home/einar/px4_firmware/src/Firmware/build_px4fmu-v2_default/px4io-v2/NuttX/nuttx-export/libs/libnuttx.a(c-dq_addfirst.o)
                                        0x24c (size before relaxing)
 .debug_str     0x0000000000004d72       0x19 /home/einar/px4_firmware/src/Firmware/build_px4fmu-v2_default/px4io-v2/NuttX/nuttx-export/libs/libnuttx.a(c-lib_cfgetspeed.o)
                                        0x286 (size before relaxing)
 .debug_str     0x0000000000004d8b       0x1c /home/einar/px4_firmware/src/Firmware/build_px4fmu-v2_default/px4io-v2/NuttX/nuttx-export/libs/libnuttx.a(c-lib_checkbase.o)
                                        0x25a (size before relaxing)
 .debug_str     0x0000000000004da7       0x19 /home/einar/px4_firmware/src/Firmware/build_px4fmu-v2_default/px4io-v2/NuttX/nuttx-export/libs/libnuttx.a(c-lib_isbasedigit.o)
                                        0x24f (size before relaxing)
 .debug_str     0x0000000000004dc0      0x10b /home/einar/px4_firmware/src/Firmware/build_px4fmu-v2_default/px4io-v2/NuttX/nuttx-export/libs/libnuttx.a(c-lib_libvsprintf.o)
                                        0x3fb (size before relaxing)
 .debug_str     0x0000000000004ecb       0x2b /home/einar/px4_firmware/src/Firmware/build_px4fmu-v2_default/px4io-v2/NuttX/nuttx-export/libs/libnuttx.a(c-lib_lowoutstream.o)
                                        0x273 (size before relaxing)
 .debug_str     0x0000000000004ef6       0x31 /home/einar/px4_firmware/src/Firmware/build_px4fmu-v2_default/px4io-v2/NuttX/nuttx-export/libs/libnuttx.a(c-lib_memoutstream.o)
                                        0x2a8 (size before relaxing)
 .debug_str     0x0000000000004f27       0x2d /home/einar/px4_firmware/src/Firmware/build_px4fmu-v2_default/px4io-v2/NuttX/nuttx-export/libs/libnuttx.a(c-lib_nulloutstream.o)
                                        0x275 (size before relaxing)
 .debug_str     0x0000000000004f54       0x3a /home/einar/px4_firmware/src/Firmware/build_px4fmu-v2_default/px4io-v2/NuttX/nuttx-export/libs/libnuttx.a(c-lib_rawoutstream.o)
                                        0x2e8 (size before relaxing)
 .debug_str     0x0000000000004f8e       0x17 /home/einar/px4_firmware/src/Firmware/build_px4fmu-v2_default/px4io-v2/NuttX/nuttx-export/libs/libnuttx.a(c-lib_skipspace.o)
                                        0x22d (size before relaxing)
 .debug_str     0x0000000000004fa5       0x14 /home/einar/px4_firmware/src/Firmware/build_px4fmu-v2_default/px4io-v2/NuttX/nuttx-export/libs/libnuttx.a(c-lib_strcpy.o)
                                        0x1ff (size before relaxing)
 .debug_str     0x0000000000004fb9       0x14 /home/einar/px4_firmware/src/Firmware/build_px4fmu-v2_default/px4io-v2/NuttX/nuttx-export/libs/libnuttx.a(c-lib_strlen.o)
                                        0x214 (size before relaxing)
 .debug_str     0x0000000000004fcd       0x1d /home/einar/px4_firmware/src/Firmware/build_px4fmu-v2_default/px4io-v2/NuttX/nuttx-export/libs/libnuttx.a(c-sem_init.o)
                                        0x23f (size before relaxing)
 .debug_str     0x0000000000004fea       0x14 /home/einar/px4_firmware/src/Firmware/build_px4fmu-v2_default/px4io-v2/NuttX/nuttx-export/libs/libnuttx.a(c-sq_remafter.o)
                                        0x246 (size before relaxing)
 .debug_str     0x0000000000004ffe       0x14 /home/einar/px4_firmware/src/Firmware/build_px4fmu-v2_default/px4io-v2/NuttX/nuttx-export/libs/libnuttx.a(c-sq_remfirst.o)
                                        0x241 (size before relaxing)
 .debug_str     0x0000000000005012       0x12 /home/einar/px4_firmware/src/Firmware/build_px4fmu-v2_default/px4io-v2/NuttX/nuttx-export/libs/libnuttx.a(mm-mm_addfreechunk.o)
                                        0x322 (size before relaxing)
 .debug_str     0x0000000000005024       0x19 /home/einar/px4_firmware/src/Firmware/build_px4fmu-v2_default/px4io-v2/NuttX/nuttx-export/libs/libnuttx.a(mm-mm_initialize.o)
                                        0x376 (size before relaxing)
 .debug_str     0x000000000000503d       0x1a /home/einar/px4_firmware/src/Firmware/build_px4fmu-v2_default/px4io-v2/NuttX/nuttx-export/libs/libnuttx.a(arch-stm32_allocateheap.o)
                                        0x275 (size before relaxing)
 .debug_str     0x0000000000005057       0x12 /home/einar/px4_firmware/src/Firmware/build_px4fmu-v2_default/px4io-v2/NuttX/nuttx-export/libs/libnuttx.a(arch-stm32_idle.o)
                                        0x225 (size before relaxing)
 .debug_str     0x0000000000005069       0x1a /home/einar/px4_firmware/src/Firmware/build_px4fmu-v2_default/px4io-v2/NuttX/nuttx-export/libs/libnuttx.a(arch-stm32_lowputc.o)
                                        0x25a (size before relaxing)
 .debug_str     0x0000000000005083       0x7a /home/einar/px4_firmware/src/Firmware/build_px4fmu-v2_default/px4io-v2/NuttX/nuttx-export/libs/libnuttx.a(arch-stm32_rcc.o)
                                        0x2c2 (size before relaxing)
 .debug_str     0x00000000000050fd       0x86 /home/einar/px4_firmware/src/Firmware/build_px4fmu-v2_default/px4io-v2/NuttX/nuttx-export/libs/libnuttx.a(arch-up_blocktask.o)
                                        0x710 (size before relaxing)
 .debug_str     0x0000000000005183       0x17 /home/einar/px4_firmware/src/Firmware/build_px4fmu-v2_default/px4io-v2/NuttX/nuttx-export/libs/libnuttx.a(arch-up_copystate.o)
                                        0x247 (size before relaxing)
 .debug_str     0x000000000000519a       0x33 /home/einar/px4_firmware/src/Firmware/build_px4fmu-v2_default/px4io-v2/NuttX/nuttx-export/libs/libnuttx.a(arch-up_doirq.o)
                                        0x280 (size before relaxing)
 .debug_str     0x00000000000051cd       0x31 /home/einar/px4_firmware/src/Firmware/build_px4fmu-v2_default/px4io-v2/NuttX/nuttx-export/libs/libnuttx.a(arch-up_exit.o)
                                        0x610 (size before relaxing)
 .debug_str     0x00000000000051fe       0x35 /home/einar/px4_firmware/src/Firmware/build_px4fmu-v2_default/px4io-v2/NuttX/nuttx-export/libs/libnuttx.a(arch-up_initialize.o)
                                        0x29e (size before relaxing)
 .debug_str     0x0000000000005233       0x1a /home/einar/px4_firmware/src/Firmware/build_px4fmu-v2_default/px4io-v2/NuttX/nuttx-export/libs/libnuttx.a(arch-up_initialstate.o)
                                        0x5a6 (size before relaxing)
 .debug_str     0x000000000000524d       0x1d /home/einar/px4_firmware/src/Firmware/build_px4fmu-v2_default/px4io-v2/NuttX/nuttx-export/libs/libnuttx.a(arch-up_interruptcontext.o)
                                        0x275 (size before relaxing)
 .debug_str     0x000000000000526a       0x20 /home/einar/px4_firmware/src/Firmware/build_px4fmu-v2_default/px4io-v2/NuttX/nuttx-export/libs/libnuttx.a(arch-up_mdelay.o)
                                        0x235 (size before relaxing)
 .debug_str     0x000000000000528a       0x41 /home/einar/px4_firmware/src/Firmware/build_px4fmu-v2_default/px4io-v2/NuttX/nuttx-export/libs/libnuttx.a(arch-up_unblocktask.o)
                                        0x6db (size before relaxing)
 .debug_str     0x00000000000052cb       0xa8 /home/einar/px4_firmware/src/Firmware/build_px4fmu-v2_default/px4io-v2/NuttX/nuttx-export/libs/libnuttx.a(fs-fs_files.o)
                                        0x580 (size before relaxing)
 .debug_str     0x0000000000005373       0x2d /home/einar/px4_firmware/src/Firmware/build_px4fmu-v2_default/px4io-v2/NuttX/nuttx-export/libs/libnuttx.a(fs-fs_inodeaddref.o)
                                        0x437 (size before relaxing)
 .debug_str     0x00000000000053a0       0x1c /home/einar/px4_firmware/src/Firmware/build_px4fmu-v2_default/px4io-v2/NuttX/nuttx-export/libs/libnuttx.a(fs-fs_inodefind.o)
                                        0x452 (size before relaxing)
 .debug_str     0x00000000000053bc       0x66 /home/einar/px4_firmware/src/Firmware/build_px4fmu-v2_default/px4io-v2/NuttX/nuttx-export/libs/libnuttx.a(fs-fs_inode.o)
                                        0x524 (size before relaxing)
 .debug_str     0x0000000000005422       0x12 /home/einar/px4_firmware/src/Firmware/build_px4fmu-v2_default/px4io-v2/NuttX/nuttx-export/libs/libnuttx.a(fs-fs_inoderelease.o)
                                        0x457 (size before relaxing)
 .debug_str     0x0000000000005434       0x22 /home/einar/px4_firmware/src/Firmware/build_px4fmu-v2_default/px4io-v2/NuttX/nuttx-export/libs/libnuttx.a(fs-fs_registerdriver.o)
                                        0x464 (size before relaxing)
 .debug_str     0x0000000000005456       0x38 /home/einar/px4_firmware/src/Firmware/build_px4fmu-v2_default/px4io-v2/NuttX/nuttx-export/libs/libnuttx.a(drivers-dev_null.o)
                                        0x462 (size before relaxing)
 .debug_str     0x000000000000548e        0xf /home/einar/px4_firmware/src/Firmware/build_px4fmu-v2_default/px4io-v2/NuttX/nuttx-export/libs/libnuttx.a(sched-group_create.o)
                                        0x5c1 (size before relaxing)
 .debug_str     0x000000000000549d       0x28 /home/einar/px4_firmware/src/Firmware/build_px4fmu-v2_default/px4io-v2/NuttX/nuttx-export/libs/libnuttx.a(sched-group_leave.o)
                                        0x5b3 (size before relaxing)
 .debug_str     0x00000000000054c5       0x1c /home/einar/px4_firmware/src/Firmware/build_px4fmu-v2_default/px4io-v2/NuttX/nuttx-export/libs/libnuttx.a(sched-group_setupidlefiles.o)
                                        0x5cb (size before relaxing)
 .debug_str     0x00000000000054e1        0xf /home/einar/px4_firmware/src/Firmware/build_px4fmu-v2_default/px4io-v2/NuttX/nuttx-export/libs/libnuttx.a(sched-irq_dispatch.o)
                                        0x242 (size before relaxing)
 .debug_str     0x00000000000054f0       0x20 /home/einar/px4_firmware/src/Firmware/build_px4fmu-v2_default/px4io-v2/NuttX/nuttx-export/libs/libnuttx.a(sched-os_bringup.o)
                                        0x251 (size before relaxing)
 .debug_str     0x0000000000005510       0x38 /home/einar/px4_firmware/src/Firmware/build_px4fmu-v2_default/px4io-v2/NuttX/nuttx-export/libs/libnuttx.a(sched-sched_addblocked.o)
                                        0x6c7 (size before relaxing)
 .debug_str     0x0000000000005548       0x17 /home/einar/px4_firmware/src/Firmware/build_px4fmu-v2_default/px4io-v2/NuttX/nuttx-export/libs/libnuttx.a(sched-sched_addprioritized.o)
                                        0x5e8 (size before relaxing)
 .debug_str     0x000000000000555f       0x16 /home/einar/px4_firmware/src/Firmware/build_px4fmu-v2_default/px4io-v2/NuttX/nuttx-export/libs/libnuttx.a(sched-sched_addreadytorun.o)
                                        0x6a3 (size before relaxing)
 .debug_str     0x0000000000005575        0xd /home/einar/px4_firmware/src/Firmware/build_px4fmu-v2_default/px4io-v2/NuttX/nuttx-export/libs/libnuttx.a(sched-sched_free.o)
                                        0x2fe (size before relaxing)
 .debug_str     0x0000000000005582       0x33 /home/einar/px4_firmware/src/Firmware/build_px4fmu-v2_default/px4io-v2/NuttX/nuttx-export/libs/libnuttx.a(sched-sched_mergepending.o)
                                        0x6a0 (size before relaxing)
 .debug_str     0x00000000000055b5       0x1d /home/einar/px4_firmware/src/Firmware/build_px4fmu-v2_default/px4io-v2/NuttX/nuttx-export/libs/libnuttx.a(sched-sched_removeblocked.o)
                                        0x6b4 (size before relaxing)
 .debug_str     0x00000000000055d2       0x19 /home/einar/px4_firmware/src/Firmware/build_px4fmu-v2_default/px4io-v2/NuttX/nuttx-export/libs/libnuttx.a(sched-sched_removereadytorun.o)
                                        0x687 (size before relaxing)
 .debug_str     0x00000000000055eb        0xe /home/einar/px4_firmware/src/Firmware/build_px4fmu-v2_default/px4io-v2/NuttX/nuttx-export/libs/libnuttx.a(sched-sem_destroy.o)
                                        0x252 (size before relaxing)
 .debug_str     0x00000000000055f9       0xaa /home/einar/px4_firmware/src/Firmware/build_px4fmu-v2_default/px4io-v2/NuttX/nuttx-export/libs/libnuttx.a(sched-task_create.o)
                                        0x6de (size before relaxing)
 .debug_str     0x00000000000056a3       0x1b /home/einar/px4_firmware/src/Firmware/build_px4fmu-v2_default/px4io-v2/NuttX/nuttx-export/libs/libnuttx.a(sched-task_exit.o)
                                        0x6c3 (size before relaxing)
 .debug_str     0x00000000000056be       0x8e /home/einar/px4_firmware/src/Firmware/build_px4fmu-v2_default/px4io-v2/NuttX/nuttx-export/libs/libnuttx.a(sched-task_setup.o)
                                        0x76a (size before relaxing)
 .debug_str     0x000000000000574c       0x21 /home/einar/px4_firmware/src/Firmware/build_px4fmu-v2_default/px4io-v2/NuttX/nuttx-export/libs/libnuttx.a(sched-task_start.o)
                                        0x5f9 (size before relaxing)
 .debug_str     0x000000000000576d       0x1e /home/einar/px4_firmware/src/Firmware/build_px4fmu-v2_default/px4io-v2/NuttX/nuttx-export/libs/libnuttx.a(sched-task_terminate.o)
                                        0x723 (size before relaxing)
 .debug_str     0x000000000000578b       0x13 /home/einar/px4_firmware/src/Firmware/build_px4fmu-v2_default/px4io-v2/NuttX/nuttx-export/libs/libnuttx.a(c-dq_addlast.o)
                                        0x24a (size before relaxing)
 .debug_str     0x000000000000579e        0xf /home/einar/px4_firmware/src/Firmware/build_px4fmu-v2_default/px4io-v2/NuttX/nuttx-export/libs/libnuttx.a(c-dq_rem.o)
                                        0x24c (size before relaxing)
 .debug_str     0x00000000000057ad       0x19 /home/einar/px4_firmware/src/Firmware/build_px4fmu-v2_default/px4io-v2/NuttX/nuttx-export/libs/libnuttx.a(c-lib_strdup.o)
                                        0x252 (size before relaxing)
 .debug_str     0x00000000000057c6       0x36 /home/einar/px4_firmware/src/Firmware/build_px4fmu-v2_default/px4io-v2/NuttX/nuttx-export/libs/libnuttx.a(arch-stm32_timerisr.o)
                                        0x28d (size before relaxing)
 .debug_str     0x00000000000057fc       0x44 /home/einar/px4_firmware/src/Firmware/build_px4fmu-v2_default/px4io-v2/NuttX/nuttx-export/libs/libnuttx.a(arch-up_createstack.o)
                                        0x5e0 (size before relaxing)
 .debug_str     0x0000000000005840       0x19 /home/einar/px4_firmware/src/Firmware/build_px4fmu-v2_default/px4io-v2/NuttX/nuttx-export/libs/libnuttx.a(arch-up_releasestack.o)
                                        0x5b5 (size before relaxing)
 .debug_str     0x0000000000005859        0xb /home/einar/px4_firmware/src/Firmware/build_px4fmu-v2_default/px4io-v2/NuttX/nuttx-export/libs/libnuttx.a(fs-fs_close.o)
                                        0x233 (size before relaxing)
 .debug_str     0x0000000000005864       0x1e /home/einar/px4_firmware/src/Firmware/build_px4fmu-v2_default/px4io-v2/NuttX/nuttx-export/libs/libnuttx.a(fs-fs_filedup2.o)
                                        0x483 (size before relaxing)
 .debug_str     0x0000000000005882       0x51 /home/einar/px4_firmware/src/Firmware/build_px4fmu-v2_default/px4io-v2/NuttX/nuttx-export/libs/libnuttx.a(fs-fs_inodereserve.o)
                                        0x4c0 (size before relaxing)
 .debug_str     0x00000000000058d3       0x17 /home/einar/px4_firmware/src/Firmware/build_px4fmu-v2_default/px4io-v2/NuttX/nuttx-export/libs/libnuttx.a(sched-group_setuptaskfiles.o)
                                        0x5c6 (size before relaxing)
 .debug_str     0x00000000000058ea        0xf /home/einar/px4_firmware/src/Firmware/build_px4fmu-v2_default/px4io-v2/NuttX/nuttx-export/libs/libnuttx.a(sched-sched_gettcb.o)
                                        0x5b0 (size before relaxing)
 .debug_str     0x00000000000058f9        0xd /home/einar/px4_firmware/src/Firmware/build_px4fmu-v2_default/px4io-v2/NuttX/nuttx-export/libs/libnuttx.a(sched-sched_lock.o)
                                        0x5ec (size before relaxing)
 .debug_str     0x0000000000005906       0x42 /home/einar/px4_firmware/src/Firmware/build_px4fmu-v2_default/px4io-v2/NuttX/nuttx-export/libs/libnuttx.a(sched-sched_processtimer.o)
                                        0x25a (size before relaxing)
 .debug_str     0x0000000000005948       0x24 /home/einar/px4_firmware/src/Firmware/build_px4fmu-v2_default/px4io-v2/NuttX/nuttx-export/libs/libnuttx.a(sched-sched_releasetcb.o)
                                        0x61b (size before relaxing)
 .debug_str     0x000000000000596c       0x22 /home/einar/px4_firmware/src/Firmware/build_px4fmu-v2_default/px4io-v2/NuttX/nuttx-export/libs/libnuttx.a(sched-sched_unlock.o)
                                        0x62e (size before relaxing)
 .debug_str     0x000000000000598e       0x10 /home/einar/px4_firmware/src/Firmware/build_px4fmu-v2_default/px4io-v2/NuttX/nuttx-export/libs/libnuttx.a(sched-task_activate.o)
                                        0x5c1 (size before relaxing)
 .debug_str     0x000000000000599e       0x1c /home/einar/px4_firmware/src/Firmware/build_px4fmu-v2_default/px4io-v2/NuttX/nuttx-export/libs/libnuttx.a(arch-up_releasepending.o)
                                        0x631 (size before relaxing)

.debug_frame    0x0000000000000000     0x3660
 .debug_frame   0x0000000000000000       0x54 CMakeFiles/px4io-v2.dir/adc.c.obj
 .debug_frame   0x0000000000000054       0x60 CMakeFiles/px4io-v2.dir/controls.c.obj
 .debug_frame   0x00000000000000b4       0xd4 CMakeFiles/px4io-v2.dir/dsm.c.obj
 .debug_frame   0x0000000000000188       0x98 CMakeFiles/px4io-v2.dir/px4io.c.obj
 .debug_frame   0x0000000000000220       0x98 CMakeFiles/px4io-v2.dir/registers.c.obj
 .debug_frame   0x00000000000002b8       0x70 CMakeFiles/px4io-v2.dir/safety.c.obj
 .debug_frame   0x0000000000000328       0xb4 CMakeFiles/px4io-v2.dir/sbus.c.obj
 .debug_frame   0x00000000000003dc       0x30 CMakeFiles/px4io-v2.dir/__/systemlib/up_cxxinitialize.c.obj
 .debug_frame   0x000000000000040c      0x244 CMakeFiles/px4io-v2.dir/__/systemlib/perf_counter.c.obj
 .debug_frame   0x0000000000000650       0xc8 CMakeFiles/px4io-v2.dir/mixer.cpp.obj
 .debug_frame   0x0000000000000718      0x138 CMakeFiles/px4io-v2.dir/__/systemlib/mixer/mixer.cpp.obj
 .debug_frame   0x0000000000000850       0xfc CMakeFiles/px4io-v2.dir/__/systemlib/mixer/mixer_group.cpp.obj
 .debug_frame   0x000000000000094c       0xd0 CMakeFiles/px4io-v2.dir/__/systemlib/mixer/mixer_multirotor.cpp.obj
 .debug_frame   0x0000000000000a1c      0x198 CMakeFiles/px4io-v2.dir/__/systemlib/mixer/mixer_simple.cpp.obj
 .debug_frame   0x0000000000000bb4       0x50 CMakeFiles/px4io-v2.dir/__/systemlib/pwm_limit/pwm_limit.c.obj
 .debug_frame   0x0000000000000c04       0x70 CMakeFiles/px4io-v2.dir/__/__/lib/rc/st24.c.obj
 .debug_frame   0x0000000000000c74       0x74 CMakeFiles/px4io-v2.dir/__/__/lib/rc/sumd.c.obj
 .debug_frame   0x0000000000000ce8      0x258 CMakeFiles/px4io-v2.dir/__/__/drivers/stm32/drv_hrt.c.obj
 .debug_frame   0x0000000000000f40      0x110 CMakeFiles/px4io-v2.dir/__/__/drivers/stm32/drv_pwm_servo.c.obj
 .debug_frame   0x0000000000001050       0x30 CMakeFiles/px4io-v2.dir/__/__/drivers/boards/px4io-v2/px4io_init.c.obj
 .debug_frame   0x0000000000001080       0xa4 CMakeFiles/px4io-v2.dir/serial.c.obj
 .debug_frame   0x0000000000001124      0x108 CMakeFiles/px4io-v2.dir/__/systemlib/hx_stream.c.obj
 .debug_frame   0x000000000000122c       0x2c /home/einar/px4_firmware/src/Firmware/build_px4fmu-v2_default/px4io-v2/NuttX/nuttx-export/libs/libnuttx.a(sched-irq_attach.o)
 .debug_frame   0x0000000000001258       0x20 /home/einar/px4_firmware/src/Firmware/build_px4fmu-v2_default/px4io-v2/NuttX/nuttx-export/libs/libnuttx.a(sched-irq_initialize.o)
 .debug_frame   0x0000000000001278       0x28 /home/einar/px4_firmware/src/Firmware/build_px4fmu-v2_default/px4io-v2/NuttX/nuttx-export/libs/libnuttx.a(sched-irq_unexpectedisr.o)
 .debug_frame   0x00000000000012a0       0x28 /home/einar/px4_firmware/src/Firmware/build_px4fmu-v2_default/px4io-v2/NuttX/nuttx-export/libs/libnuttx.a(c-lib_abort.o)
 .debug_frame   0x00000000000012c8       0x20 /home/einar/px4_firmware/src/Firmware/build_px4fmu-v2_default/px4io-v2/NuttX/nuttx-export/libs/libnuttx.a(c-lib_cfsetspeed.o)
 .debug_frame   0x00000000000012e8       0x38 /home/einar/px4_firmware/src/Firmware/build_px4fmu-v2_default/px4io-v2/NuttX/nuttx-export/libs/libnuttx.a(c-lib_crc32.o)
 .debug_frame   0x0000000000001320       0x3c /home/einar/px4_firmware/src/Firmware/build_px4fmu-v2_default/px4io-v2/NuttX/nuttx-export/libs/libnuttx.a(c-lib_dprintf.o)
 .debug_frame   0x000000000000135c       0x5c /home/einar/px4_firmware/src/Firmware/build_px4fmu-v2_default/px4io-v2/NuttX/nuttx-export/libs/libnuttx.a(c-lib_lowsyslog.o)
 .debug_frame   0x00000000000013b8       0x2c /home/einar/px4_firmware/src/Firmware/build_px4fmu-v2_default/px4io-v2/NuttX/nuttx-export/libs/libnuttx.a(c-lib_memchr.o)
 .debug_frame   0x00000000000013e4       0x28 /home/einar/px4_firmware/src/Firmware/build_px4fmu-v2_default/px4io-v2/NuttX/nuttx-export/libs/libnuttx.a(c-lib_memcpy.o)
 .debug_frame   0x000000000000140c       0x20 /home/einar/px4_firmware/src/Firmware/build_px4fmu-v2_default/px4io-v2/NuttX/nuttx-export/libs/libnuttx.a(c-lib_memset.o)
 .debug_frame   0x000000000000142c       0x40 /home/einar/px4_firmware/src/Firmware/build_px4fmu-v2_default/px4io-v2/NuttX/nuttx-export/libs/libnuttx.a(c-lib_printf.o)
 .debug_frame   0x000000000000146c       0x8c /home/einar/px4_firmware/src/Firmware/build_px4fmu-v2_default/px4io-v2/NuttX/nuttx-export/libs/libnuttx.a(c-lib_sscanf.o)
 .debug_frame   0x00000000000014f8       0x20 /home/einar/px4_firmware/src/Firmware/build_px4fmu-v2_default/px4io-v2/NuttX/nuttx-export/libs/libnuttx.a(c-lib_strchr.o)
 .debug_frame   0x0000000000001518       0x20 /home/einar/px4_firmware/src/Firmware/build_px4fmu-v2_default/px4io-v2/NuttX/nuttx-export/libs/libnuttx.a(c-lib_strcmp.o)
 .debug_frame   0x0000000000001538       0x30 /home/einar/px4_firmware/src/Firmware/build_px4fmu-v2_default/px4io-v2/NuttX/nuttx-export/libs/libnuttx.a(c-lib_strcspn.o)
 .debug_frame   0x0000000000001568       0x28 /home/einar/px4_firmware/src/Firmware/build_px4fmu-v2_default/px4io-v2/NuttX/nuttx-export/libs/libnuttx.a(c-lib_strncpy.o)
 .debug_frame   0x0000000000001590       0x30 /home/einar/px4_firmware/src/Firmware/build_px4fmu-v2_default/px4io-v2/NuttX/nuttx-export/libs/libnuttx.a(c-lib_strtol.o)
 .debug_frame   0x00000000000015c0       0x30 /home/einar/px4_firmware/src/Firmware/build_px4fmu-v2_default/px4io-v2/NuttX/nuttx-export/libs/libnuttx.a(c-lib_strtoul.o)
 .debug_frame   0x00000000000015f0       0x60 /home/einar/px4_firmware/src/Firmware/build_px4fmu-v2_default/px4io-v2/NuttX/nuttx-export/libs/libnuttx.a(c-lib_syslog.o)
 .debug_frame   0x0000000000001650       0x20 /home/einar/px4_firmware/src/Firmware/build_px4fmu-v2_default/px4io-v2/NuttX/nuttx-export/libs/libnuttx.a(c-lib_tcgetattr.o)
 .debug_frame   0x0000000000001670       0x20 /home/einar/px4_firmware/src/Firmware/build_px4fmu-v2_default/px4io-v2/NuttX/nuttx-export/libs/libnuttx.a(c-lib_tcsetattr.o)
 .debug_frame   0x0000000000001690       0x30 /home/einar/px4_firmware/src/Firmware/build_px4fmu-v2_default/px4io-v2/NuttX/nuttx-export/libs/libnuttx.a(c-lib_vdprintf.o)
 .debug_frame   0x00000000000016c0       0x34 /home/einar/px4_firmware/src/Firmware/build_px4fmu-v2_default/px4io-v2/NuttX/nuttx-export/libs/libnuttx.a(c-lib_vsnprintf.o)
 .debug_frame   0x00000000000016f4       0x20 /home/einar/px4_firmware/src/Firmware/build_px4fmu-v2_default/px4io-v2/NuttX/nuttx-export/libs/libnuttx.a(c-sq_addafter.o)
 .debug_frame   0x0000000000001714       0x20 /home/einar/px4_firmware/src/Firmware/build_px4fmu-v2_default/px4io-v2/NuttX/nuttx-export/libs/libnuttx.a(c-sq_addfirst.o)
 .debug_frame   0x0000000000001734       0x20 /home/einar/px4_firmware/src/Firmware/build_px4fmu-v2_default/px4io-v2/NuttX/nuttx-export/libs/libnuttx.a(c-sq_addlast.o)
 .debug_frame   0x0000000000001754       0x20 /home/einar/px4_firmware/src/Firmware/build_px4fmu-v2_default/px4io-v2/NuttX/nuttx-export/libs/libnuttx.a(c-sq_rem.o)
 .debug_frame   0x0000000000001774       0x20 /home/einar/px4_firmware/src/Firmware/build_px4fmu-v2_default/px4io-v2/NuttX/nuttx-export/libs/libnuttx.a(mm-mm_calloc.o)
 .debug_frame   0x0000000000001794       0x38 /home/einar/px4_firmware/src/Firmware/build_px4fmu-v2_default/px4io-v2/NuttX/nuttx-export/libs/libnuttx.a(mm-mm_free.o)
 .debug_frame   0x00000000000017cc       0x34 /home/einar/px4_firmware/src/Firmware/build_px4fmu-v2_default/px4io-v2/NuttX/nuttx-export/libs/libnuttx.a(mm-mm_mallinfo.o)
 .debug_frame   0x0000000000001800       0x30 /home/einar/px4_firmware/src/Firmware/build_px4fmu-v2_default/px4io-v2/NuttX/nuttx-export/libs/libnuttx.a(mm-mm_malloc.o)
 .debug_frame   0x0000000000001830       0x78 /home/einar/px4_firmware/src/Firmware/build_px4fmu-v2_default/px4io-v2/NuttX/nuttx-export/libs/libnuttx.a(mm-mm_sem.o)
 .debug_frame   0x00000000000018a8       0x20 /home/einar/px4_firmware/src/Firmware/build_px4fmu-v2_default/px4io-v2/NuttX/nuttx-export/libs/libnuttx.a(mm-mm_size2ndx.o)
 .debug_frame   0x00000000000018c8       0x50 /home/einar/px4_firmware/src/Firmware/build_px4fmu-v2_default/px4io-v2/NuttX/nuttx-export/libs/libnuttx.a(mm-mm_user.o)
 .debug_frame   0x0000000000001918       0x2c /home/einar/px4_firmware/src/Firmware/build_px4fmu-v2_default/px4io-v2/NuttX/nuttx-export/libs/libnuttx.a(mm-mm_zalloc.o)
 .debug_frame   0x0000000000001944       0xcc /home/einar/px4_firmware/src/Firmware/build_px4fmu-v2_default/px4io-v2/NuttX/nuttx-export/libs/libnuttx.a(arch-stm32_dma.o)
 .debug_frame   0x0000000000001a10       0x74 /home/einar/px4_firmware/src/Firmware/build_px4fmu-v2_default/px4io-v2/NuttX/nuttx-export/libs/libnuttx.a(arch-stm32_gpio.o)
 .debug_frame   0x0000000000001a84       0x90 /home/einar/px4_firmware/src/Firmware/build_px4fmu-v2_default/px4io-v2/NuttX/nuttx-export/libs/libnuttx.a(arch-stm32_irq.o)
 .debug_frame   0x0000000000001b14      0x28c /home/einar/px4_firmware/src/Firmware/build_px4fmu-v2_default/px4io-v2/NuttX/nuttx-export/libs/libnuttx.a(arch-stm32_serial.o)
 .debug_frame   0x0000000000001da0       0x28 /home/einar/px4_firmware/src/Firmware/build_px4fmu-v2_default/px4io-v2/NuttX/nuttx-export/libs/libnuttx.a(arch-stm32_start.o)
 .debug_frame   0x0000000000001dc8       0x48 /home/einar/px4_firmware/src/Firmware/build_px4fmu-v2_default/px4io-v2/NuttX/nuttx-export/libs/libnuttx.a(arch-up_assert.o)
 .debug_frame   0x0000000000001e10       0x30 /home/einar/px4_firmware/src/Firmware/build_px4fmu-v2_default/px4io-v2/NuttX/nuttx-export/libs/libnuttx.a(arch-up_hardfault.o)
 .debug_frame   0x0000000000001e40       0x28 /home/einar/px4_firmware/src/Firmware/build_px4fmu-v2_default/px4io-v2/NuttX/nuttx-export/libs/libnuttx.a(arch-up_modifyreg32.o)
 .debug_frame   0x0000000000001e68       0x28 /home/einar/px4_firmware/src/Firmware/build_px4fmu-v2_default/px4io-v2/NuttX/nuttx-export/libs/libnuttx.a(arch-up_svcall.o)
 .debug_frame   0x0000000000001e90       0x20 /home/einar/px4_firmware/src/Firmware/build_px4fmu-v2_default/px4io-v2/NuttX/nuttx-export/libs/libnuttx.a(arch-up_systemreset.o)
 .debug_frame   0x0000000000001eb0       0x28 /home/einar/px4_firmware/src/Firmware/build_px4fmu-v2_default/px4io-v2/NuttX/nuttx-export/libs/libnuttx.a(arch-up_udelay.o)
 .debug_frame   0x0000000000001ed8       0x20 /home/einar/px4_firmware/src/Firmware/build_px4fmu-v2_default/px4io-v2/NuttX/nuttx-export/libs/libnuttx.a(cxx-libxx_cxa_atexit.o)
 .debug_frame   0x0000000000001ef8       0x28 /home/einar/px4_firmware/src/Firmware/build_px4fmu-v2_default/px4io-v2/NuttX/nuttx-export/libs/libnuttx.a(cxx-libxx_cxapurevirtual.o)
 .debug_frame   0x0000000000001f20       0x20 /home/einar/px4_firmware/src/Firmware/build_px4fmu-v2_default/px4io-v2/NuttX/nuttx-export/libs/libnuttx.a(cxx-libxx_delete.o)
 .debug_frame   0x0000000000001f40       0x20 /home/einar/px4_firmware/src/Firmware/build_px4fmu-v2_default/px4io-v2/NuttX/nuttx-export/libs/libnuttx.a(cxx-libxx_eabi_atexit.o)
 .debug_frame   0x0000000000001f60       0x20 /home/einar/px4_firmware/src/Firmware/build_px4fmu-v2_default/px4io-v2/NuttX/nuttx-export/libs/libnuttx.a(cxx-libxx_new.o)
 .debug_frame   0x0000000000001f80       0x2c /home/einar/px4_firmware/src/Firmware/build_px4fmu-v2_default/px4io-v2/NuttX/nuttx-export/libs/libnuttx.a(fs-fs_ioctl.o)
 .debug_frame   0x0000000000001fac       0x58 /home/einar/px4_firmware/src/Firmware/build_px4fmu-v2_default/px4io-v2/NuttX/nuttx-export/libs/libnuttx.a(fs-fs_open.o)
 .debug_frame   0x0000000000002004       0x2c /home/einar/px4_firmware/src/Firmware/build_px4fmu-v2_default/px4io-v2/NuttX/nuttx-export/libs/libnuttx.a(fs-fs_read.o)
 .debug_frame   0x0000000000002030       0x2c /home/einar/px4_firmware/src/Firmware/build_px4fmu-v2_default/px4io-v2/NuttX/nuttx-export/libs/libnuttx.a(fs-fs_write.o)
 .debug_frame   0x000000000000205c       0x58 /home/einar/px4_firmware/src/Firmware/build_px4fmu-v2_default/px4io-v2/NuttX/nuttx-export/libs/libnuttx.a(drivers-serialirq.o)
 .debug_frame   0x00000000000020b4      0x148 /home/einar/px4_firmware/src/Firmware/build_px4fmu-v2_default/px4io-v2/NuttX/nuttx-export/libs/libnuttx.a(drivers-serial.o)
 .debug_frame   0x00000000000021fc       0x28 /home/einar/px4_firmware/src/Firmware/build_px4fmu-v2_default/px4io-v2/NuttX/nuttx-export/libs/libnuttx.a(sched-errno_getptr.o)
 .debug_frame   0x0000000000002224       0x28 /home/einar/px4_firmware/src/Firmware/build_px4fmu-v2_default/px4io-v2/NuttX/nuttx-export/libs/libnuttx.a(sched-exit.o)
 .debug_frame   0x000000000000224c       0x20 /home/einar/px4_firmware/src/Firmware/build_px4fmu-v2_default/px4io-v2/NuttX/nuttx-export/libs/libnuttx.a(sched-getpid.o)
 .debug_frame   0x000000000000226c       0x2c /home/einar/px4_firmware/src/Firmware/build_px4fmu-v2_default/px4io-v2/NuttX/nuttx-export/libs/libnuttx.a(sched-os_start.o)
 .debug_frame   0x0000000000002298       0x28 /home/einar/px4_firmware/src/Firmware/build_px4fmu-v2_default/px4io-v2/NuttX/nuttx-export/libs/libnuttx.a(sched-sched_garbage.o)
 .debug_frame   0x00000000000022c0       0x20 /home/einar/px4_firmware/src/Firmware/build_px4fmu-v2_default/px4io-v2/NuttX/nuttx-export/libs/libnuttx.a(sched-sched_getfiles.o)
 .debug_frame   0x00000000000022e0       0x28 /home/einar/px4_firmware/src/Firmware/build_px4fmu-v2_default/px4io-v2/NuttX/nuttx-export/libs/libnuttx.a(sched-sem_post.o)
 .debug_frame   0x0000000000002308       0x2c /home/einar/px4_firmware/src/Firmware/build_px4fmu-v2_default/px4io-v2/NuttX/nuttx-export/libs/libnuttx.a(sched-sem_trywait.o)
 .debug_frame   0x0000000000002334       0x30 /home/einar/px4_firmware/src/Firmware/build_px4fmu-v2_default/px4io-v2/NuttX/nuttx-export/libs/libnuttx.a(sched-sem_wait.o)
 .debug_frame   0x0000000000002364       0x28 /home/einar/px4_firmware/src/Firmware/build_px4fmu-v2_default/px4io-v2/NuttX/nuttx-export/libs/libnuttx.a(sched-task_exithook.o)
 .debug_frame   0x000000000000238c       0x2c /home/einar/px4_firmware/src/Firmware/build_px4fmu-v2_default/px4io-v2/NuttX/nuttx-export/libs/libnuttx.a(sched-task_recover.o)
 .debug_frame   0x00000000000023b8       0x2c /home/einar/px4_firmware/src/Firmware/build_px4fmu-v2_default/px4io-v2/NuttX/nuttx-export/libs/libnuttx.a(sched-wd_cancel.o)
 .debug_frame   0x00000000000023e4       0x2c /home/einar/px4_firmware/src/Firmware/build_px4fmu-v2_default/px4io-v2/NuttX/nuttx-export/libs/libnuttx.a(sched-wd_delete.o)
 .debug_frame   0x0000000000002410       0x2c /home/einar/px4_firmware/src/Firmware/build_px4fmu-v2_default/px4io-v2/NuttX/nuttx-export/libs/libnuttx.a(sched-wd_initialize.o)
 .debug_frame   0x000000000000243c       0x20 /home/einar/px4_firmware/src/Firmware/build_px4fmu-v2_default/px4io-v2/NuttX/nuttx-export/libs/libnuttx.a(c-dq_addfirst.o)
 .debug_frame   0x000000000000245c       0x20 /home/einar/px4_firmware/src/Firmware/build_px4fmu-v2_default/px4io-v2/NuttX/nuttx-export/libs/libnuttx.a(c-lib_cfgetspeed.o)
 .debug_frame   0x000000000000247c       0x2c /home/einar/px4_firmware/src/Firmware/build_px4fmu-v2_default/px4io-v2/NuttX/nuttx-export/libs/libnuttx.a(c-lib_checkbase.o)
 .debug_frame   0x00000000000024a8       0x20 /home/einar/px4_firmware/src/Firmware/build_px4fmu-v2_default/px4io-v2/NuttX/nuttx-export/libs/libnuttx.a(c-lib_isbasedigit.o)
 .debug_frame   0x00000000000024c8      0x25c /home/einar/px4_firmware/src/Firmware/build_px4fmu-v2_default/px4io-v2/NuttX/nuttx-export/libs/libnuttx.a(c-lib_libvsprintf.o)
 .debug_frame   0x0000000000002724       0x38 /home/einar/px4_firmware/src/Firmware/build_px4fmu-v2_default/px4io-v2/NuttX/nuttx-export/libs/libnuttx.a(c-lib_lowoutstream.o)
 .debug_frame   0x000000000000275c       0x30 /home/einar/px4_firmware/src/Firmware/build_px4fmu-v2_default/px4io-v2/NuttX/nuttx-export/libs/libnuttx.a(c-lib_memoutstream.o)
 .debug_frame   0x000000000000278c       0x30 /home/einar/px4_firmware/src/Firmware/build_px4fmu-v2_default/px4io-v2/NuttX/nuttx-export/libs/libnuttx.a(c-lib_nulloutstream.o)
 .debug_frame   0x00000000000027bc       0x3c /home/einar/px4_firmware/src/Firmware/build_px4fmu-v2_default/px4io-v2/NuttX/nuttx-export/libs/libnuttx.a(c-lib_rawoutstream.o)
 .debug_frame   0x00000000000027f8       0x20 /home/einar/px4_firmware/src/Firmware/build_px4fmu-v2_default/px4io-v2/NuttX/nuttx-export/libs/libnuttx.a(c-lib_skipspace.o)
 .debug_frame   0x0000000000002818       0x20 /home/einar/px4_firmware/src/Firmware/build_px4fmu-v2_default/px4io-v2/NuttX/nuttx-export/libs/libnuttx.a(c-lib_strcpy.o)
 .debug_frame   0x0000000000002838       0x20 /home/einar/px4_firmware/src/Firmware/build_px4fmu-v2_default/px4io-v2/NuttX/nuttx-export/libs/libnuttx.a(c-lib_strlen.o)
 .debug_frame   0x0000000000002858       0x28 /home/einar/px4_firmware/src/Firmware/build_px4fmu-v2_default/px4io-v2/NuttX/nuttx-export/libs/libnuttx.a(c-sem_init.o)
 .debug_frame   0x0000000000002880       0x20 /home/einar/px4_firmware/src/Firmware/build_px4fmu-v2_default/px4io-v2/NuttX/nuttx-export/libs/libnuttx.a(c-sq_remafter.o)
 .debug_frame   0x00000000000028a0       0x20 /home/einar/px4_firmware/src/Firmware/build_px4fmu-v2_default/px4io-v2/NuttX/nuttx-export/libs/libnuttx.a(c-sq_remfirst.o)
 .debug_frame   0x00000000000028c0       0x2c /home/einar/px4_firmware/src/Firmware/build_px4fmu-v2_default/px4io-v2/NuttX/nuttx-export/libs/libnuttx.a(mm-mm_addfreechunk.o)
 .debug_frame   0x00000000000028ec       0x5c /home/einar/px4_firmware/src/Firmware/build_px4fmu-v2_default/px4io-v2/NuttX/nuttx-export/libs/libnuttx.a(mm-mm_initialize.o)
 .debug_frame   0x0000000000002948       0x20 /home/einar/px4_firmware/src/Firmware/build_px4fmu-v2_default/px4io-v2/NuttX/nuttx-export/libs/libnuttx.a(arch-stm32_allocateheap.o)
 .debug_frame   0x0000000000002968       0x20 /home/einar/px4_firmware/src/Firmware/build_px4fmu-v2_default/px4io-v2/NuttX/nuttx-export/libs/libnuttx.a(arch-stm32_idle.o)
 .debug_frame   0x0000000000002988       0x38 /home/einar/px4_firmware/src/Firmware/build_px4fmu-v2_default/px4io-v2/NuttX/nuttx-export/libs/libnuttx.a(arch-stm32_lowputc.o)
 .debug_frame   0x00000000000029c0       0x34 /home/einar/px4_firmware/src/Firmware/build_px4fmu-v2_default/px4io-v2/NuttX/nuttx-export/libs/libnuttx.a(arch-stm32_rcc.o)
 .debug_frame   0x00000000000029f4       0x3c /home/einar/px4_firmware/src/Firmware/build_px4fmu-v2_default/px4io-v2/NuttX/nuttx-export/libs/libnuttx.a(arch-up_blocktask.o)
 .debug_frame   0x0000000000002a30       0x20 /home/einar/px4_firmware/src/Firmware/build_px4fmu-v2_default/px4io-v2/NuttX/nuttx-export/libs/libnuttx.a(arch-up_copystate.o)
 .debug_frame   0x0000000000002a50       0x30 /home/einar/px4_firmware/src/Firmware/build_px4fmu-v2_default/px4io-v2/NuttX/nuttx-export/libs/libnuttx.a(arch-up_doirq.o)
 .debug_frame   0x0000000000002a80       0x28 /home/einar/px4_firmware/src/Firmware/build_px4fmu-v2_default/px4io-v2/NuttX/nuttx-export/libs/libnuttx.a(arch-up_exit.o)
 .debug_frame   0x0000000000002aa8       0x2c /home/einar/px4_firmware/src/Firmware/build_px4fmu-v2_default/px4io-v2/NuttX/nuttx-export/libs/libnuttx.a(arch-up_initialize.o)
 .debug_frame   0x0000000000002ad4       0x28 /home/einar/px4_firmware/src/Firmware/build_px4fmu-v2_default/px4io-v2/NuttX/nuttx-export/libs/libnuttx.a(arch-up_initialstate.o)
 .debug_frame   0x0000000000002afc       0x20 /home/einar/px4_firmware/src/Firmware/build_px4fmu-v2_default/px4io-v2/NuttX/nuttx-export/libs/libnuttx.a(arch-up_interruptcontext.o)
 .debug_frame   0x0000000000002b1c       0x28 /home/einar/px4_firmware/src/Firmware/build_px4fmu-v2_default/px4io-v2/NuttX/nuttx-export/libs/libnuttx.a(arch-up_mdelay.o)
 .debug_frame   0x0000000000002b44       0x38 /home/einar/px4_firmware/src/Firmware/build_px4fmu-v2_default/px4io-v2/NuttX/nuttx-export/libs/libnuttx.a(arch-up_unblocktask.o)
 .debug_frame   0x0000000000002b7c      0x10c /home/einar/px4_firmware/src/Firmware/build_px4fmu-v2_default/px4io-v2/NuttX/nuttx-export/libs/libnuttx.a(fs-fs_files.o)
 .debug_frame   0x0000000000002c88       0x30 /home/einar/px4_firmware/src/Firmware/build_px4fmu-v2_default/px4io-v2/NuttX/nuttx-export/libs/libnuttx.a(fs-fs_inodeaddref.o)
 .debug_frame   0x0000000000002cb8       0x2c /home/einar/px4_firmware/src/Firmware/build_px4fmu-v2_default/px4io-v2/NuttX/nuttx-export/libs/libnuttx.a(fs-fs_inodefind.o)
 .debug_frame   0x0000000000002ce4       0xac /home/einar/px4_firmware/src/Firmware/build_px4fmu-v2_default/px4io-v2/NuttX/nuttx-export/libs/libnuttx.a(fs-fs_inode.o)
 .debug_frame   0x0000000000002d90       0x38 /home/einar/px4_firmware/src/Firmware/build_px4fmu-v2_default/px4io-v2/NuttX/nuttx-export/libs/libnuttx.a(fs-fs_inoderelease.o)
 .debug_frame   0x0000000000002dc8       0x30 /home/einar/px4_firmware/src/Firmware/build_px4fmu-v2_default/px4io-v2/NuttX/nuttx-export/libs/libnuttx.a(fs-fs_registerdriver.o)
 .debug_frame   0x0000000000002df8       0x40 /home/einar/px4_firmware/src/Firmware/build_px4fmu-v2_default/px4io-v2/NuttX/nuttx-export/libs/libnuttx.a(drivers-dev_null.o)
 .debug_frame   0x0000000000002e38       0x38 /home/einar/px4_firmware/src/Firmware/build_px4fmu-v2_default/px4io-v2/NuttX/nuttx-export/libs/libnuttx.a(sched-group_create.o)
 .debug_frame   0x0000000000002e70       0x2c /home/einar/px4_firmware/src/Firmware/build_px4fmu-v2_default/px4io-v2/NuttX/nuttx-export/libs/libnuttx.a(sched-group_leave.o)
 .debug_frame   0x0000000000002e9c       0x28 /home/einar/px4_firmware/src/Firmware/build_px4fmu-v2_default/px4io-v2/NuttX/nuttx-export/libs/libnuttx.a(sched-group_setupidlefiles.o)
 .debug_frame   0x0000000000002ec4       0x20 /home/einar/px4_firmware/src/Firmware/build_px4fmu-v2_default/px4io-v2/NuttX/nuttx-export/libs/libnuttx.a(sched-irq_dispatch.o)
 .debug_frame   0x0000000000002ee4       0x2c /home/einar/px4_firmware/src/Firmware/build_px4fmu-v2_default/px4io-v2/NuttX/nuttx-export/libs/libnuttx.a(sched-os_bringup.o)
 .debug_frame   0x0000000000002f10       0x2c /home/einar/px4_firmware/src/Firmware/build_px4fmu-v2_default/px4io-v2/NuttX/nuttx-export/libs/libnuttx.a(sched-sched_addblocked.o)
 .debug_frame   0x0000000000002f3c       0x28 /home/einar/px4_firmware/src/Firmware/build_px4fmu-v2_default/px4io-v2/NuttX/nuttx-export/libs/libnuttx.a(sched-sched_addprioritized.o)
 .debug_frame   0x0000000000002f64       0x2c /home/einar/px4_firmware/src/Firmware/build_px4fmu-v2_default/px4io-v2/NuttX/nuttx-export/libs/libnuttx.a(sched-sched_addreadytorun.o)
 .debug_frame   0x0000000000002f90       0x34 /home/einar/px4_firmware/src/Firmware/build_px4fmu-v2_default/px4io-v2/NuttX/nuttx-export/libs/libnuttx.a(sched-sched_free.o)
 .debug_frame   0x0000000000002fc4       0x30 /home/einar/px4_firmware/src/Firmware/build_px4fmu-v2_default/px4io-v2/NuttX/nuttx-export/libs/libnuttx.a(sched-sched_mergepending.o)
 .debug_frame   0x0000000000002ff4       0x28 /home/einar/px4_firmware/src/Firmware/build_px4fmu-v2_default/px4io-v2/NuttX/nuttx-export/libs/libnuttx.a(sched-sched_removeblocked.o)
 .debug_frame   0x000000000000301c       0x2c /home/einar/px4_firmware/src/Firmware/build_px4fmu-v2_default/px4io-v2/NuttX/nuttx-export/libs/libnuttx.a(sched-sched_removereadytorun.o)
 .debug_frame   0x0000000000003048       0x28 /home/einar/px4_firmware/src/Firmware/build_px4fmu-v2_default/px4io-v2/NuttX/nuttx-export/libs/libnuttx.a(sched-sem_destroy.o)
 .debug_frame   0x0000000000003070       0x6c /home/einar/px4_firmware/src/Firmware/build_px4fmu-v2_default/px4io-v2/NuttX/nuttx-export/libs/libnuttx.a(sched-task_create.o)
 .debug_frame   0x00000000000030dc       0x2c /home/einar/px4_firmware/src/Firmware/build_px4fmu-v2_default/px4io-v2/NuttX/nuttx-export/libs/libnuttx.a(sched-task_exit.o)
 .debug_frame   0x0000000000003108       0x50 /home/einar/px4_firmware/src/Firmware/build_px4fmu-v2_default/px4io-v2/NuttX/nuttx-export/libs/libnuttx.a(sched-task_setup.o)
 .debug_frame   0x0000000000003158       0x28 /home/einar/px4_firmware/src/Firmware/build_px4fmu-v2_default/px4io-v2/NuttX/nuttx-export/libs/libnuttx.a(sched-task_start.o)
 .debug_frame   0x0000000000003180       0x2c /home/einar/px4_firmware/src/Firmware/build_px4fmu-v2_default/px4io-v2/NuttX/nuttx-export/libs/libnuttx.a(sched-task_terminate.o)
 .debug_frame   0x00000000000031ac       0x20 /home/einar/px4_firmware/src/Firmware/build_px4fmu-v2_default/px4io-v2/NuttX/nuttx-export/libs/libnuttx.a(c-dq_addlast.o)
 .debug_frame   0x00000000000031cc       0x20 /home/einar/px4_firmware/src/Firmware/build_px4fmu-v2_default/px4io-v2/NuttX/nuttx-export/libs/libnuttx.a(c-dq_rem.o)
 .debug_frame   0x00000000000031ec       0x2c /home/einar/px4_firmware/src/Firmware/build_px4fmu-v2_default/px4io-v2/NuttX/nuttx-export/libs/libnuttx.a(c-lib_strdup.o)
 .debug_frame   0x0000000000003218       0x44 /home/einar/px4_firmware/src/Firmware/build_px4fmu-v2_default/px4io-v2/NuttX/nuttx-export/libs/libnuttx.a(arch-stm32_timerisr.o)
 .debug_frame   0x000000000000325c       0x2c /home/einar/px4_firmware/src/Firmware/build_px4fmu-v2_default/px4io-v2/NuttX/nuttx-export/libs/libnuttx.a(arch-up_createstack.o)
 .debug_frame   0x0000000000003288       0x28 /home/einar/px4_firmware/src/Firmware/build_px4fmu-v2_default/px4io-v2/NuttX/nuttx-export/libs/libnuttx.a(arch-up_releasestack.o)
 .debug_frame   0x00000000000032b0       0x28 /home/einar/px4_firmware/src/Firmware/build_px4fmu-v2_default/px4io-v2/NuttX/nuttx-export/libs/libnuttx.a(fs-fs_close.o)
 .debug_frame   0x00000000000032d8       0x38 /home/einar/px4_firmware/src/Firmware/build_px4fmu-v2_default/px4io-v2/NuttX/nuttx-export/libs/libnuttx.a(fs-fs_filedup2.o)
 .debug_frame   0x0000000000003310       0x48 /home/einar/px4_firmware/src/Firmware/build_px4fmu-v2_default/px4io-v2/NuttX/nuttx-export/libs/libnuttx.a(fs-fs_inodereserve.o)
 .debug_frame   0x0000000000003358       0x28 /home/einar/px4_firmware/src/Firmware/build_px4fmu-v2_default/px4io-v2/NuttX/nuttx-export/libs/libnuttx.a(sched-group_setuptaskfiles.o)
 .debug_frame   0x0000000000003380       0x20 /home/einar/px4_firmware/src/Firmware/build_px4fmu-v2_default/px4io-v2/NuttX/nuttx-export/libs/libnuttx.a(sched-sched_gettcb.o)
 .debug_frame   0x00000000000033a0       0x28 /home/einar/px4_firmware/src/Firmware/build_px4fmu-v2_default/px4io-v2/NuttX/nuttx-export/libs/libnuttx.a(sched-sched_lock.o)
 .debug_frame   0x00000000000033c8       0x28 /home/einar/px4_firmware/src/Firmware/build_px4fmu-v2_default/px4io-v2/NuttX/nuttx-export/libs/libnuttx.a(sched-sched_processtimer.o)
 .debug_frame   0x00000000000033f0       0x2c /home/einar/px4_firmware/src/Firmware/build_px4fmu-v2_default/px4io-v2/NuttX/nuttx-export/libs/libnuttx.a(sched-sched_releasetcb.o)
 .debug_frame   0x000000000000341c       0x2c /home/einar/px4_firmware/src/Firmware/build_px4fmu-v2_default/px4io-v2/NuttX/nuttx-export/libs/libnuttx.a(sched-sched_unlock.o)
 .debug_frame   0x0000000000003448       0x28 /home/einar/px4_firmware/src/Firmware/build_px4fmu-v2_default/px4io-v2/NuttX/nuttx-export/libs/libnuttx.a(sched-task_activate.o)
 .debug_frame   0x0000000000003470       0x38 /home/einar/px4_firmware/src/Firmware/build_px4fmu-v2_default/px4io-v2/NuttX/nuttx-export/libs/libnuttx.a(arch-up_releasepending.o)
 .debug_frame   0x00000000000034a8       0x2c /usr/bin/../lib/gcc/arm-none-eabi/4.9.3/../../../../arm-none-eabi/lib/armv7-m/libm.a(lib_a-sf_fmin.o)
 .debug_frame   0x00000000000034d4       0x20 /usr/bin/../lib/gcc/arm-none-eabi/4.9.3/../../../../arm-none-eabi/lib/armv7-m/libm.a(lib_a-sf_fpclassify.o)
 .debug_frame   0x00000000000034f4       0x3c /usr/bin/../lib/gcc/arm-none-eabi/4.9.3/../../../../arm-none-eabi/lib/armv7-m/libm.a(lib_a-wf_sqrt.o)
 .debug_frame   0x0000000000003530       0x2c /usr/bin/../lib/gcc/arm-none-eabi/4.9.3/../../../../arm-none-eabi/lib/armv7-m/libm.a(lib_a-ef_sqrt.o)
 .debug_frame   0x000000000000355c       0x20 /usr/bin/../lib/gcc/arm-none-eabi/4.9.3/../../../../arm-none-eabi/lib/armv7-m/libm.a(lib_a-s_matherr.o)
 .debug_frame   0x000000000000357c       0x28 /usr/bin/../lib/gcc/arm-none-eabi/4.9.3/armv7-m/libgcc.a(_aeabi_uldivmod.o)
 .debug_frame   0x00000000000035a4       0x54 /usr/bin/../lib/gcc/arm-none-eabi/4.9.3/armv7-m/libgcc.a(bpabi.o)
 .debug_frame   0x00000000000035f8       0x34 /usr/bin/../lib/gcc/arm-none-eabi/4.9.3/armv7-m/libgcc.a(_divdi3.o)
 .debug_frame   0x000000000000362c       0x34 /usr/bin/../lib/gcc/arm-none-eabi/4.9.3/armv7-m/libgcc.a(_udivdi3.o)
